---
triple:          'arm64-apple-darwin'
binary-path:     main
relocations:
  - { offsetInCU: 0x3B, offset: 0x3B, size: 0x8, addend: 0x0, symName: _.str, symObjAddr: 0x11520, symBinAddr: 0x1001410A0, symSize: 0x0 }
  - { offsetInCU: 0x6B, offset: 0x6B, size: 0x8, addend: 0x0, symName: _.str.1, symObjAddr: 0x11540, symBinAddr: 0x1001410C0, symSize: 0x0 }
  - { offsetInCU: 0x88, offset: 0x88, size: 0x8, addend: 0x0, symName: _.str.2, symObjAddr: 0x11560, symBinAddr: 0x1001410E0, symSize: 0x0 }
  - { offsetInCU: 0xA5, offset: 0xA5, size: 0x8, addend: 0x0, symName: _.str.3, symObjAddr: 0x11580, symBinAddr: 0x100141100, symSize: 0x0 }
  - { offsetInCU: 0xC2, offset: 0xC2, size: 0x8, addend: 0x0, symName: _.str.4, symObjAddr: 0x115A0, symBinAddr: 0x100141120, symSize: 0x0 }
  - { offsetInCU: 0xE0, offset: 0xE0, size: 0x8, addend: 0x0, symName: _.str.5, symObjAddr: 0x115C0, symBinAddr: 0x100141140, symSize: 0x0 }
  - { offsetInCU: 0x15D, offset: 0x15D, size: 0x8, addend: 0x0, symName: __ZNSt3__114in_place_indexILm1EEE, symObjAddr: 0x116C1, symBinAddr: 0x10014AA00, symSize: 0x0 }
  - { offsetInCU: 0x1C3, offset: 0x1C3, size: 0x8, addend: 0x0, symName: __ZNSt3__114in_place_indexILm3EEE, symObjAddr: 0x116C3, symBinAddr: 0x10014AA01, symSize: 0x0 }
  - { offsetInCU: 0x229, offset: 0x229, size: 0x8, addend: 0x0, symName: __ZNSt3__18in_placeE, symObjAddr: 0x116C5, symBinAddr: 0x10014AA02, symSize: 0x0 }
  - { offsetInCU: 0xA058, offset: 0xA058, size: 0x8, addend: 0x0, symName: __ZNSt3__1neB8ue170006IPNS_12basic_stringIcNS_11char_traitsIcEENS_9allocatorIcEEEEEEbRKNS_11__wrap_iterIT_EESC_, symObjAddr: 0x1120, symBinAddr: 0x100004E14, symSize: 0x34 }
  - { offsetInCU: 0xA09B, offset: 0xA09B, size: 0x8, addend: 0x0, symName: __ZNSt3__118__constexpr_strlenB8ue170006EPKc, symObjAddr: 0x1810, symBinAddr: 0x100005504, symSize: 0x24 }
  - { offsetInCU: 0xA0C7, offset: 0xA0C7, size: 0x8, addend: 0x0, symName: __ZNSt3__119__libcpp_deallocateB8ue170006EPvmm, symObjAddr: 0x2010, symBinAddr: 0x100005D04, symSize: 0x60 }
  - { offsetInCU: 0xA12C, offset: 0xA12C, size: 0x8, addend: 0x0, symName: __ZNSt3__124__is_overaligned_for_newB8ue170006Em, symObjAddr: 0x2070, symBinAddr: 0x100005D64, symSize: 0x20 }
  - { offsetInCU: 0xA15A, offset: 0xA15A, size: 0x8, addend: 0x0, symName: __ZNSt3__127__do_deallocate_handle_sizeB8ue170006IJSt11align_val_tEEEvPvmDpT_, symObjAddr: 0x2090, symBinAddr: 0x100005D84, symSize: 0x30 }
  - { offsetInCU: 0xA1AD, offset: 0xA1AD, size: 0x8, addend: 0x0, symName: __ZNSt3__127__do_deallocate_handle_sizeB8ue170006IJEEEvPvmDpT_, symObjAddr: 0x20C0, symBinAddr: 0x100005DB4, symSize: 0x28 }
  - { offsetInCU: 0xA1EB, offset: 0xA1EB, size: 0x8, addend: 0x0, symName: __ZNSt3__124__libcpp_operator_deleteB8ue170006IJPvSt11align_val_tEEEvDpT_, symObjAddr: 0x20E8, symBinAddr: 0x100005DDC, symSize: 0x2C }
  - { offsetInCU: 0xA234, offset: 0xA234, size: 0x8, addend: 0x0, symName: __ZNSt3__124__libcpp_operator_deleteB8ue170006IJPvEEEvDpT_, symObjAddr: 0x2114, symBinAddr: 0x100005E08, symSize: 0x24 }
  - { offsetInCU: 0xA269, offset: 0xA269, size: 0x8, addend: 0x0, symName: __ZNSt3__1eqB8ue170006IPNS_12basic_stringIcNS_11char_traitsIcEENS_9allocatorIcEEEEEEbRKNS_11__wrap_iterIT_EESC_, symObjAddr: 0x2470, symBinAddr: 0x100006164, symSize: 0x48 }
  - { offsetInCU: 0xA2AC, offset: 0xA2AC, size: 0x8, addend: 0x0, symName: __ZNSt3__112__to_addressB8ue170006IKcEEPT_S3_, symObjAddr: 0x2BF4, symBinAddr: 0x1000068E8, symSize: 0x14 }
  - { offsetInCU: 0xA314, offset: 0xA314, size: 0x8, addend: 0x0, symName: __ZNSt3__120__throw_out_of_rangeB8ue170006EPKc, symObjAddr: 0x3A68, symBinAddr: 0x10000775C, symSize: 0x68 }
  - { offsetInCU: 0xA33E, offset: 0xA33E, size: 0x8, addend: 0x0, symName: __ZNSt3__13minB8ue170006ImEERKT_S3_S3_, symObjAddr: 0x3B5C, symBinAddr: 0x100007850, symSize: 0x2C }
  - { offsetInCU: 0xA381, offset: 0xA381, size: 0x8, addend: 0x0, symName: __ZNSt3__13minB8ue170006ImNS_6__lessIvvEEEERKT_S5_S5_T0_, symObjAddr: 0x3CE4, symBinAddr: 0x1000079D8, symSize: 0x1E8 }
  - { offsetInCU: 0xA426, offset: 0xA426, size: 0x8, addend: 0x0, symName: __ZNSt3__128__char_traits_length_checkedB8ue170006INS_11char_traitsIcEEEEmPKNT_9char_typeE, symObjAddr: 0x4080, symBinAddr: 0x100007D74, symSize: 0x24 }
  - { offsetInCU: 0xA4A3, offset: 0xA4A3, size: 0x8, addend: 0x0, symName: __ZNSt3__18__invokeB8ue170006IZNS_16__variant_detail6__dtorINS1_8__traitsIJidbcNS_12basic_stringIcNS_11char_traitsIcEENS_9allocatorIcEEEEEEELNS1_6_TraitE1EE9__destroyB8ue170006EvEUlRT_E_JRNS1_5__altILm0EiEEEEEDTclclsr3stdE7declvalISD_EEspclsr3stdE7declvalIT0_EEEEOSD_DpOSJ_, symObjAddr: 0x4A44, symBinAddr: 0x100008738, symSize: 0x2C }
  - { offsetInCU: 0xA4F0, offset: 0xA4F0, size: 0x8, addend: 0x0, symName: __ZNSt3__18__invokeB8ue170006IZNS_16__variant_detail6__dtorINS1_8__traitsIJidbcNS_12basic_stringIcNS_11char_traitsIcEENS_9allocatorIcEEEEEEELNS1_6_TraitE1EE9__destroyB8ue170006EvEUlRT_E_JRNS1_5__altILm1EdEEEEEDTclclsr3stdE7declvalISD_EEspclsr3stdE7declvalIT0_EEEEOSD_DpOSJ_, symObjAddr: 0x4ABC, symBinAddr: 0x1000087B0, symSize: 0x2C }
  - { offsetInCU: 0xA53D, offset: 0xA53D, size: 0x8, addend: 0x0, symName: __ZNSt3__18__invokeB8ue170006IZNS_16__variant_detail6__dtorINS1_8__traitsIJidbcNS_12basic_stringIcNS_11char_traitsIcEENS_9allocatorIcEEEEEEELNS1_6_TraitE1EE9__destroyB8ue170006EvEUlRT_E_JRNS1_5__altILm2EbEEEEEDTclclsr3stdE7declvalISD_EEspclsr3stdE7declvalIT0_EEEEOSD_DpOSJ_, symObjAddr: 0x4B58, symBinAddr: 0x10000884C, symSize: 0x2C }
  - { offsetInCU: 0xA58A, offset: 0xA58A, size: 0x8, addend: 0x0, symName: __ZNSt3__18__invokeB8ue170006IZNS_16__variant_detail6__dtorINS1_8__traitsIJidbcNS_12basic_stringIcNS_11char_traitsIcEENS_9allocatorIcEEEEEEELNS1_6_TraitE1EE9__destroyB8ue170006EvEUlRT_E_JRNS1_5__altILm3EcEEEEEDTclclsr3stdE7declvalISD_EEspclsr3stdE7declvalIT0_EEEEOSD_DpOSJ_, symObjAddr: 0x4C18, symBinAddr: 0x10000890C, symSize: 0x2C }
  - { offsetInCU: 0xA5D7, offset: 0xA5D7, size: 0x8, addend: 0x0, symName: __ZNSt3__18__invokeB8ue170006IZNS_16__variant_detail6__dtorINS1_8__traitsIJidbcNS_12basic_stringIcNS_11char_traitsIcEENS_9allocatorIcEEEEEEELNS1_6_TraitE1EE9__destroyB8ue170006EvEUlRT_E_JRNS1_5__altILm4ES9_EEEEEDTclclsr3stdE7declvalISD_EEspclsr3stdE7declvalIT0_EEEEOSD_DpOSJ_, symObjAddr: 0x4CFC, symBinAddr: 0x1000089F0, symSize: 0x2C }
  - { offsetInCU: 0xA624, offset: 0xA624, size: 0x8, addend: 0x0, symName: __ZNSt3__112__to_addressB8ue170006INS_12basic_stringIcNS_11char_traitsIcEENS_9allocatorIcEEEEEEPT_S8_, symObjAddr: 0x5748, symBinAddr: 0x10000943C, symSize: 0x14 }
  - { offsetInCU: 0xA659, offset: 0xA659, size: 0x8, addend: 0x0, symName: __ZNSt3__110destroy_atB8ue170006INS_12basic_stringIcNS_11char_traitsIcEENS_9allocatorIcEEEELi0EEEvPT_, symObjAddr: 0x575C, symBinAddr: 0x100009450, symSize: 0x24 }
  - { offsetInCU: 0xA690, offset: 0xA690, size: 0x8, addend: 0x0, symName: __ZNSt3__112__destroy_atB8ue170006INS_12basic_stringIcNS_11char_traitsIcEENS_9allocatorIcEEEELi0EEEvPT_, symObjAddr: 0x5780, symBinAddr: 0x100009474, symSize: 0x24 }
  - { offsetInCU: 0xA6FA, offset: 0xA6FA, size: 0x8, addend: 0x0, symName: __ZNSt3__110destroy_atB8ue170006INS_4pairIKNS_12basic_stringIcNS_11char_traitsIcEENS_9allocatorIcEEEENS_7variantIJidbcS7_EEEEELi0EEEvPT_, symObjAddr: 0x6CD4, symBinAddr: 0x10000A9C8, symSize: 0x24 }
  - { offsetInCU: 0xA731, offset: 0xA731, size: 0x8, addend: 0x0, symName: __ZNSt3__112__destroy_atB8ue170006INS_4pairIKNS_12basic_stringIcNS_11char_traitsIcEENS_9allocatorIcEEEENS_7variantIJidbcS7_EEEEELi0EEEvPT_, symObjAddr: 0x6CF8, symBinAddr: 0x10000A9EC, symSize: 0x24 }
  - { offsetInCU: 0xA768, offset: 0xA768, size: 0x8, addend: 0x0, symName: __ZNSt3__17launderB8ue170006INS_4pairIKNS_12basic_stringIcNS_11char_traitsIcEENS_9allocatorIcEEEENS_7variantIJidbcS7_EEEEEEEPT_SD_, symObjAddr: 0x6DA4, symBinAddr: 0x10000AA98, symSize: 0x24 }
  - { offsetInCU: 0xA79F, offset: 0xA79F, size: 0x8, addend: 0x0, symName: __ZNSt3__19__launderB8ue170006INS_4pairIKNS_12basic_stringIcNS_11char_traitsIcEENS_9allocatorIcEEEENS_7variantIJidbcS7_EEEEEEEPT_SD_, symObjAddr: 0x6DC8, symBinAddr: 0x10000AABC, symSize: 0x14 }
  - { offsetInCU: 0xA7F4, offset: 0xA7F4, size: 0x8, addend: 0x0, symName: __ZNSt3__13maxB8ue170006ImEERKT_S3_S3_, symObjAddr: 0x9AF4, symBinAddr: 0x10000D7E8, symSize: 0x2C }
  - { offsetInCU: 0xA837, offset: 0xA837, size: 0x8, addend: 0x0, symName: __ZNSt3__116__is_hash_power2B8ue170006Em, symObjAddr: 0x9B20, symBinAddr: 0x10000D814, symSize: 0x50 }
  - { offsetInCU: 0xA863, offset: 0xA863, size: 0x8, addend: 0x0, symName: __ZNSt3__116__next_hash_pow2B8ue170006Em, symObjAddr: 0x9B70, symBinAddr: 0x10000D864, symSize: 0x6C }
  - { offsetInCU: 0xA8AB, offset: 0xA8AB, size: 0x8, addend: 0x0, symName: __ZNSt3__116__constrain_hashB8ue170006Emm, symObjAddr: 0x9EC0, symBinAddr: 0x10000DBB4, symSize: 0x98 }
  - { offsetInCU: 0xA8E5, offset: 0xA8E5, size: 0x8, addend: 0x0, symName: __ZNSt3__117__libcpp_allocateB8ue170006Emm, symObjAddr: 0xA078, symBinAddr: 0x10000DD6C, symSize: 0x60 }
  - { offsetInCU: 0xA93F, offset: 0xA93F, size: 0x8, addend: 0x0, symName: __ZNSt3__121__libcpp_operator_newB8ue170006IJmSt11align_val_tEEEPvDpT_, symObjAddr: 0xA0F4, symBinAddr: 0x10000DDE8, symSize: 0x2C }
  - { offsetInCU: 0xA98C, offset: 0xA98C, size: 0x8, addend: 0x0, symName: __ZNSt3__121__libcpp_operator_newB8ue170006IJmEEEPvDpT_, symObjAddr: 0xA120, symBinAddr: 0x10000DE14, symSize: 0x24 }
  - { offsetInCU: 0xA9C5, offset: 0xA9C5, size: 0x8, addend: 0x0, symName: __ZNSt3__13maxB8ue170006ImNS_6__lessIvvEEEERKT_S5_S5_T0_, symObjAddr: 0xA17C, symBinAddr: 0x10000DE70, symSize: 0x1E8 }
  - { offsetInCU: 0xAA25, offset: 0xAA25, size: 0x8, addend: 0x0, symName: __ZNSt3__112__libcpp_clzB8ue170006Em, symObjAddr: 0xA364, symBinAddr: 0x10000E058, symSize: 0x1C }
  - { offsetInCU: 0xAA51, offset: 0xAA51, size: 0x8, addend: 0x0, symName: __ZNSt3__1eqB8ue170006ERKNS_25__hash_map_const_iteratorINS_21__hash_const_iteratorIPNS_11__hash_nodeINS_17__hash_value_typeINS_12basic_stringIcNS_11char_traitsIcEENS_9allocatorIcEEEENS_7variantIJidbcS9_EEEEEPvEEEEEESJ_, symObjAddr: 0xA3DC, symBinAddr: 0x10000E0D0, symSize: 0x30 }
  - { offsetInCU: 0xAA8E, offset: 0xAA8E, size: 0x8, addend: 0x0, symName: __ZNSt3__1eqB8ue170006ERKNS_21__hash_const_iteratorIPNS_11__hash_nodeINS_17__hash_value_typeINS_12basic_stringIcNS_11char_traitsIcEENS_9allocatorIcEEEENS_7variantIJidbcS8_EEEEEPvEEEESH_, symObjAddr: 0xA698, symBinAddr: 0x10000E38C, symSize: 0xB8 }
  - { offsetInCU: 0xAACB, offset: 0xAACB, size: 0x8, addend: 0x0, symName: __ZNSt3__116__do_string_hashB8ue170006IPKcEEmT_S3_, symObjAddr: 0xBCE4, symBinAddr: 0x10000F9D8, symSize: 0x1EC }
  - { offsetInCU: 0xAB13, offset: 0xAB13, size: 0x8, addend: 0x0, symName: __ZNSt3__110__loadwordB8ue170006ImEET_PKv, symObjAddr: 0xD394, symBinAddr: 0x100011088, symSize: 0x214 }
  - { offsetInCU: 0xAB5B, offset: 0xAB5B, size: 0x8, addend: 0x0, symName: __ZNSt3__14swapB8ue170006ImEENS_9enable_ifIXaasr21is_move_constructibleIT_EE5valuesr18is_move_assignableIS2_EE5valueEvE4typeERS2_S5_, symObjAddr: 0xDA30, symBinAddr: 0x100011724, symSize: 0x134 }
  - { offsetInCU: 0xABAC, offset: 0xABAC, size: 0x8, addend: 0x0, symName: __ZNSt3__110__loadwordB8ue170006IjEET_PKv, symObjAddr: 0xDBB8, symBinAddr: 0x1000118AC, symSize: 0x240 }
  - { offsetInCU: 0xABF4, offset: 0xABF4, size: 0x8, addend: 0x0, symName: __ZNSt3__1eqB8ue170006INS_9allocatorIcEEEEbRKNS_12basic_stringIcNS_11char_traitsIcEET_EES9_, symObjAddr: 0xE394, symBinAddr: 0x100012088, symSize: 0x234 }
  - { offsetInCU: 0xAC67, offset: 0xAC67, size: 0x8, addend: 0x0, symName: __ZNSt3__17launderB8ue170006IKNS_4pairIKNS_12basic_stringIcNS_11char_traitsIcEENS_9allocatorIcEEEENS_7variantIJidbcS7_EEEEEEEPT_SE_, symObjAddr: 0xE5C8, symBinAddr: 0x1000122BC, symSize: 0x24 }
  - { offsetInCU: 0xAC9E, offset: 0xAC9E, size: 0x8, addend: 0x0, symName: __ZNSt3__19__launderB8ue170006IKNS_4pairIKNS_12basic_stringIcNS_11char_traitsIcEENS_9allocatorIcEEEENS_7variantIJidbcS7_EEEEEEEPT_SE_, symObjAddr: 0xE5EC, symBinAddr: 0x1000122E0, symSize: 0x14 }
  - { offsetInCU: 0xAD18, offset: 0xAD18, size: 0x8, addend: 0x0, symName: __ZNSt3__112construct_atB8ue170006INS_4pairIKNS_12basic_stringIcNS_11char_traitsIcEENS_9allocatorIcEEEENS_7variantIJidbcS7_EEEEEJRKSB_EPSB_EEPT_SG_DpOT0_, symObjAddr: 0xEC04, symBinAddr: 0x1000128F8, symSize: 0x3C }
  - { offsetInCU: 0xADCE, offset: 0xADCE, size: 0x8, addend: 0x0, symName: __ZNSt3__18__invokeB8ue170006IZNS_16__variant_detail6__ctorINS1_8__traitsIJidbcNS_12basic_stringIcNS_11char_traitsIcEENS_9allocatorIcEEEEEEEE19__generic_constructB8ue170006IRKNS1_18__copy_constructorISA_LNS1_6_TraitE1EEEEEvRSB_OT_EUlRSJ_OT0_E_JRNS1_5__altILm0EiEERKSQ_EEEDTclclsr3stdE7declvalISJ_EEspclsr3stdE7declvalIT0_EEEESK_DpOSU_, symObjAddr: 0xF790, symBinAddr: 0x100013484, symSize: 0x34 }
  - { offsetInCU: 0xAE2F, offset: 0xAE2F, size: 0x8, addend: 0x0, symName: __ZNSt3__18__invokeB8ue170006IZNS_16__variant_detail6__ctorINS1_8__traitsIJidbcNS_12basic_stringIcNS_11char_traitsIcEENS_9allocatorIcEEEEEEEE19__generic_constructB8ue170006IRKNS1_18__copy_constructorISA_LNS1_6_TraitE1EEEEEvRSB_OT_EUlRSJ_OT0_E_JRNS1_5__altILm1EdEERKSQ_EEEDTclclsr3stdE7declvalISJ_EEspclsr3stdE7declvalIT0_EEEESK_DpOSU_, symObjAddr: 0xF990, symBinAddr: 0x100013684, symSize: 0x34 }
  - { offsetInCU: 0xAE90, offset: 0xAE90, size: 0x8, addend: 0x0, symName: __ZNSt3__18__invokeB8ue170006IZNS_16__variant_detail6__ctorINS1_8__traitsIJidbcNS_12basic_stringIcNS_11char_traitsIcEENS_9allocatorIcEEEEEEEE19__generic_constructB8ue170006IRKNS1_18__copy_constructorISA_LNS1_6_TraitE1EEEEEvRSB_OT_EUlRSJ_OT0_E_JRNS1_5__altILm2EbEERKSQ_EEEDTclclsr3stdE7declvalISJ_EEspclsr3stdE7declvalIT0_EEEESK_DpOSU_, symObjAddr: 0xFB64, symBinAddr: 0x100013858, symSize: 0x34 }
  - { offsetInCU: 0xAEF1, offset: 0xAEF1, size: 0x8, addend: 0x0, symName: __ZNSt3__18__invokeB8ue170006IZNS_16__variant_detail6__ctorINS1_8__traitsIJidbcNS_12basic_stringIcNS_11char_traitsIcEENS_9allocatorIcEEEEEEEE19__generic_constructB8ue170006IRKNS1_18__copy_constructorISA_LNS1_6_TraitE1EEEEEvRSB_OT_EUlRSJ_OT0_E_JRNS1_5__altILm3EcEERKSQ_EEEDTclclsr3stdE7declvalISJ_EEspclsr3stdE7declvalIT0_EEEESK_DpOSU_, symObjAddr: 0xFDAC, symBinAddr: 0x100013AA0, symSize: 0x34 }
  - { offsetInCU: 0xAF52, offset: 0xAF52, size: 0x8, addend: 0x0, symName: __ZNSt3__18__invokeB8ue170006IZNS_16__variant_detail6__ctorINS1_8__traitsIJidbcNS_12basic_stringIcNS_11char_traitsIcEENS_9allocatorIcEEEEEEEE19__generic_constructB8ue170006IRKNS1_18__copy_constructorISA_LNS1_6_TraitE1EEEEEvRSB_OT_EUlRSJ_OT0_E_JRNS1_5__altILm4ES9_EERKSQ_EEEDTclclsr3stdE7declvalISJ_EEspclsr3stdE7declvalIT0_EEEESK_DpOSU_, symObjAddr: 0x10010, symBinAddr: 0x100013D04, symSize: 0x34 }
  - { offsetInCU: 0xB2AC, offset: 0xB2AC, size: 0x8, addend: 0x0, symName: __ZSt28__throw_bad_array_new_lengthB8ue170006v, symObjAddr: 0xA040, symBinAddr: 0x10000DD34, symSize: 0x38 }
  - { offsetInCU: 0xE235, offset: 0xE235, size: 0x8, addend: 0x0, symName: _main, symObjAddr: 0x0, symBinAddr: 0x100003CF4, symSize: 0xB58 }
  - { offsetInCU: 0xE327, offset: 0xE327, size: 0x8, addend: 0x0, symName: __ZNSt3__112basic_stringIcNS_11char_traitsIcEENS_9allocatorIcEEEC1B8ue170006ILi0EEEPKc, symObjAddr: 0xB58, symBinAddr: 0x10000484C, symSize: 0x34 }
  - { offsetInCU: 0xE4C9, offset: 0xE4C9, size: 0x8, addend: 0x0, symName: __ZNSt3__113unordered_mapINS_12basic_stringIcNS_11char_traitsIcEENS_9allocatorIcEEEENS_7variantIJidbcS6_EEENS_4hashIS6_EENS_8equal_toIS6_EENS4_INS_4pairIKS6_S8_EEEEEC1B8ue170006Ev, symObjAddr: 0xB8C, symBinAddr: 0x100004880, symSize: 0x2C }
  - { offsetInCU: 0xE4F3, offset: 0xE4F3, size: 0x8, addend: 0x0, symName: __ZNSt3__113unordered_mapINS_12basic_stringIcNS_11char_traitsIcEENS_9allocatorIcEEEENS_7variantIJidbcS6_EEENS_4hashIS6_EENS_8equal_toIS6_EENS4_INS_4pairIKS6_S8_EEEEEC1ERKSH_, symObjAddr: 0xBB8, symBinAddr: 0x1000048AC, symSize: 0x34 }
  - { offsetInCU: 0xE52E, offset: 0xE52E, size: 0x8, addend: 0x0, symName: __ZNSt3__113unordered_mapINS_12basic_stringIcNS_11char_traitsIcEENS_9allocatorIcEEEENS_7variantIJidbcS6_EEENS_4hashIS6_EENS_8equal_toIS6_EENS4_INS_4pairIKS6_S8_EEEEED1B8ue170006Ev, symObjAddr: 0xBEC, symBinAddr: 0x1000048E0, symSize: 0x2C }
  - { offsetInCU: 0xE558, offset: 0xE558, size: 0x8, addend: 0x0, symName: __ZNSt3__112basic_stringIcNS_11char_traitsIcEENS_9allocatorIcEEEaSB8ue170006EOS5_, symObjAddr: 0xC18, symBinAddr: 0x10000490C, symSize: 0x34 }
  - { offsetInCU: 0xE58D, offset: 0xE58D, size: 0x8, addend: 0x0, symName: __ZNSt3__16vectorINS_12basic_stringIcNS_11char_traitsIcEENS_9allocatorIcEEEENS4_IS6_EEE5beginB8ue170006Ev, symObjAddr: 0xC4C, symBinAddr: 0x100004940, symSize: 0x268 }
  - { offsetInCU: 0xE5B6, offset: 0xE5B6, size: 0x8, addend: 0x0, symName: __ZNSt3__16vectorINS_12basic_stringIcNS_11char_traitsIcEENS_9allocatorIcEEEENS4_IS6_EEE3endB8ue170006Ev, symObjAddr: 0xEB4, symBinAddr: 0x100004BA8, symSize: 0x26C }
  - { offsetInCU: 0xE5DF, offset: 0xE5DF, size: 0x8, addend: 0x0, symName: __ZNKSt3__111__wrap_iterIPNS_12basic_stringIcNS_11char_traitsIcEENS_9allocatorIcEEEEEdeB8ue170006Ev, symObjAddr: 0x1154, symBinAddr: 0x100004E48, symSize: 0x60 }
  - { offsetInCU: 0xE605, offset: 0xE605, size: 0x8, addend: 0x0, symName: __ZNKSt3__112basic_stringIcNS_11char_traitsIcEENS_9allocatorIcEEE11starts_withB8ue170006EPKc, symObjAddr: 0x11B4, symBinAddr: 0x100004EA8, symSize: 0x228 }
  - { offsetInCU: 0xE63C, offset: 0xE63C, size: 0x8, addend: 0x0, symName: __ZNSt3__17variantIJidbcNS_12basic_stringIcNS_11char_traitsIcEENS_9allocatorIcEEEEEED1B8ue170006Ev, symObjAddr: 0x13DC, symBinAddr: 0x1000050D0, symSize: 0x2C }
  - { offsetInCU: 0xE666, offset: 0xE666, size: 0x8, addend: 0x0, symName: __ZNSt3__111__wrap_iterIPNS_12basic_stringIcNS_11char_traitsIcEENS_9allocatorIcEEEEEppB8ue170006Ev, symObjAddr: 0x1408, symBinAddr: 0x1000050FC, symSize: 0x68 }
  - { offsetInCU: 0xE68C, offset: 0xE68C, size: 0x8, addend: 0x0, symName: __ZNSt3__16vectorINS_12basic_stringIcNS_11char_traitsIcEENS_9allocatorIcEEEENS4_IS6_EEED1B8ue170006Ev, symObjAddr: 0x1470, symBinAddr: 0x100005164, symSize: 0x2C }
  - { offsetInCU: 0xE74A, offset: 0xE74A, size: 0x8, addend: 0x0, symName: __ZN11SymbolTableD1Ev, symObjAddr: 0x149C, symBinAddr: 0x100005190, symSize: 0x2C }
  - { offsetInCU: 0xE776, offset: 0xE776, size: 0x8, addend: 0x0, symName: __ZNSt3__112basic_stringIcNS_11char_traitsIcEENS_9allocatorIcEEEC2B8ue170006ILi0EEEPKc, symObjAddr: 0x14C8, symBinAddr: 0x1000051BC, symSize: 0x210 }
  - { offsetInCU: 0xE7BC, offset: 0xE7BC, size: 0x8, addend: 0x0, symName: __ZNSt3__117__compressed_pairINS_12basic_stringIcNS_11char_traitsIcEENS_9allocatorIcEEE5__repES5_EC1B8ue170006INS_18__default_init_tagESA_EEOT_OT0_, symObjAddr: 0x16D8, symBinAddr: 0x1000053CC, symSize: 0x3C }
  - { offsetInCU: 0xE814, offset: 0xE814, size: 0x8, addend: 0x0, symName: __ZNSt3__111char_traitsIcE6lengthB8ue170006EPKc, symObjAddr: 0x1714, symBinAddr: 0x100005408, symSize: 0x40 }
  - { offsetInCU: 0xE837, offset: 0xE837, size: 0x8, addend: 0x0, symName: __ZNSt3__117__compressed_pairINS_12basic_stringIcNS_11char_traitsIcEENS_9allocatorIcEEE5__repES5_EC2B8ue170006INS_18__default_init_tagESA_EEOT_OT0_, symObjAddr: 0x1754, symBinAddr: 0x100005448, symSize: 0x3C }
  - { offsetInCU: 0xE88F, offset: 0xE88F, size: 0x8, addend: 0x0, symName: __ZNSt3__122__compressed_pair_elemINS_12basic_stringIcNS_11char_traitsIcEENS_9allocatorIcEEE5__repELi0ELb0EEC2B8ue170006ENS_18__default_init_tagE, symObjAddr: 0x1790, symBinAddr: 0x100005484, symSize: 0x14 }
  - { offsetInCU: 0xE8C4, offset: 0xE8C4, size: 0x8, addend: 0x0, symName: __ZNSt3__122__compressed_pair_elemINS_9allocatorIcEELi1ELb1EEC2B8ue170006ENS_18__default_init_tagE, symObjAddr: 0x17A4, symBinAddr: 0x100005498, symSize: 0x2C }
  - { offsetInCU: 0xE8F9, offset: 0xE8F9, size: 0x8, addend: 0x0, symName: __ZNSt3__19allocatorIcEC2B8ue170006Ev, symObjAddr: 0x17D0, symBinAddr: 0x1000054C4, symSize: 0x2C }
  - { offsetInCU: 0xE923, offset: 0xE923, size: 0x8, addend: 0x0, symName: __ZNSt3__116__non_trivial_ifILb1ENS_9allocatorIcEEEC2B8ue170006Ev, symObjAddr: 0x17FC, symBinAddr: 0x1000054F0, symSize: 0x14 }
  - { offsetInCU: 0xE94D, offset: 0xE94D, size: 0x8, addend: 0x0, symName: __ZNSt3__112basic_stringIcNS_11char_traitsIcEENS_9allocatorIcEEE13__move_assignB8ue170006ERS5_NS_17integral_constantIbLb1EEE, symObjAddr: 0x1840, symBinAddr: 0x100005534, symSize: 0x2D0 }
  - { offsetInCU: 0xE993, offset: 0xE993, size: 0x8, addend: 0x0, symName: __ZNKSt3__112basic_stringIcNS_11char_traitsIcEENS_9allocatorIcEEE9__is_longB8ue170006Ev, symObjAddr: 0x1B10, symBinAddr: 0x100005804, symSize: 0xA4 }
  - { offsetInCU: 0xE9B9, offset: 0xE9B9, size: 0x8, addend: 0x0, symName: __ZNSt3__116allocator_traitsINS_9allocatorIcEEE10deallocateB8ue170006ERS2_Pcm, symObjAddr: 0x1BB4, symBinAddr: 0x1000058A8, symSize: 0x34 }
  - { offsetInCU: 0xE9FB, offset: 0xE9FB, size: 0x8, addend: 0x0, symName: __ZNSt3__112basic_stringIcNS_11char_traitsIcEENS_9allocatorIcEEE7__allocB8ue170006Ev, symObjAddr: 0x1BE8, symBinAddr: 0x1000058DC, symSize: 0x24 }
  - { offsetInCU: 0xEA21, offset: 0xEA21, size: 0x8, addend: 0x0, symName: __ZNSt3__112basic_stringIcNS_11char_traitsIcEENS_9allocatorIcEEE18__get_long_pointerB8ue170006Ev, symObjAddr: 0x1C0C, symBinAddr: 0x100005900, symSize: 0x6C }
  - { offsetInCU: 0xEA47, offset: 0xEA47, size: 0x8, addend: 0x0, symName: __ZNKSt3__112basic_stringIcNS_11char_traitsIcEENS_9allocatorIcEEE14__get_long_capB8ue170006Ev, symObjAddr: 0x1C78, symBinAddr: 0x10000596C, symSize: 0x78 }
  - { offsetInCU: 0xEA6D, offset: 0xEA6D, size: 0x8, addend: 0x0, symName: __ZNSt3__112basic_stringIcNS_11char_traitsIcEENS_9allocatorIcEEE19__move_assign_allocB8ue170006ERS5_, symObjAddr: 0x1CF0, symBinAddr: 0x1000059E4, symSize: 0x2C }
  - { offsetInCU: 0xEAA2, offset: 0xEAA2, size: 0x8, addend: 0x0, symName: __ZNSt3__117__compressed_pairINS_12basic_stringIcNS_11char_traitsIcEENS_9allocatorIcEEE5__repES5_E5firstB8ue170006Ev, symObjAddr: 0x1D1C, symBinAddr: 0x100005A10, symSize: 0x24 }
  - { offsetInCU: 0xEAC8, offset: 0xEAC8, size: 0x8, addend: 0x0, symName: __ZNSt3__112basic_stringIcNS_11char_traitsIcEENS_9allocatorIcEEE16__set_short_sizeB8ue170006Em, symObjAddr: 0x1D40, symBinAddr: 0x100005A34, symSize: 0x130 }
  - { offsetInCU: 0xEAFD, offset: 0xEAFD, size: 0x8, addend: 0x0, symName: __ZNSt3__111char_traitsIcE6assignB8ue170006ERcRKc, symObjAddr: 0x1E70, symBinAddr: 0x100005B64, symSize: 0xF4 }
  - { offsetInCU: 0xEB2E, offset: 0xEB2E, size: 0x8, addend: 0x0, symName: __ZNSt3__112basic_stringIcNS_11char_traitsIcEENS_9allocatorIcEEE19__get_short_pointerB8ue170006Ev, symObjAddr: 0x1F64, symBinAddr: 0x100005C58, symSize: 0x28 }
  - { offsetInCU: 0xEB54, offset: 0xEB54, size: 0x8, addend: 0x0, symName: __ZNKSt3__117__compressed_pairINS_12basic_stringIcNS_11char_traitsIcEENS_9allocatorIcEEE5__repES5_E5firstB8ue170006Ev, symObjAddr: 0x1F8C, symBinAddr: 0x100005C80, symSize: 0x24 }
  - { offsetInCU: 0xEB7A, offset: 0xEB7A, size: 0x8, addend: 0x0, symName: __ZNKSt3__122__compressed_pair_elemINS_12basic_stringIcNS_11char_traitsIcEENS_9allocatorIcEEE5__repELi0ELb0EE5__getB8ue170006Ev, symObjAddr: 0x1FB0, symBinAddr: 0x100005CA4, symSize: 0x14 }
  - { offsetInCU: 0xEBA0, offset: 0xEBA0, size: 0x8, addend: 0x0, symName: __ZNSt3__19allocatorIcE10deallocateB8ue170006EPcm, symObjAddr: 0x1FC4, symBinAddr: 0x100005CB8, symSize: 0x4C }
  - { offsetInCU: 0xEBE2, offset: 0xEBE2, size: 0x8, addend: 0x0, symName: __ZNSt3__117__compressed_pairINS_12basic_stringIcNS_11char_traitsIcEENS_9allocatorIcEEE5__repES5_E6secondB8ue170006Ev, symObjAddr: 0x2138, symBinAddr: 0x100005E2C, symSize: 0x24 }
  - { offsetInCU: 0xEC08, offset: 0xEC08, size: 0x8, addend: 0x0, symName: __ZNSt3__122__compressed_pair_elemINS_9allocatorIcEELi1ELb1EE5__getB8ue170006Ev, symObjAddr: 0x215C, symBinAddr: 0x100005E50, symSize: 0x14 }
  - { offsetInCU: 0xEC2E, offset: 0xEC2E, size: 0x8, addend: 0x0, symName: __ZNSt3__112basic_stringIcNS_11char_traitsIcEENS_9allocatorIcEEE19__move_assign_allocB8ue170006ERS5_NS_17integral_constantIbLb1EEE, symObjAddr: 0x2170, symBinAddr: 0x100005E64, symSize: 0x38 }
  - { offsetInCU: 0xEC6F, offset: 0xEC6F, size: 0x8, addend: 0x0, symName: __ZNSt3__122__compressed_pair_elemINS_12basic_stringIcNS_11char_traitsIcEENS_9allocatorIcEEE5__repELi0ELb0EE5__getB8ue170006Ev, symObjAddr: 0x21A8, symBinAddr: 0x100005E9C, symSize: 0x14 }
  - { offsetInCU: 0xEC95, offset: 0xEC95, size: 0x8, addend: 0x0, symName: __ZNSt3__114pointer_traitsIPcE10pointer_toB8ue170006ERc, symObjAddr: 0x21BC, symBinAddr: 0x100005EB0, symSize: 0x14 }
  - { offsetInCU: 0xECB8, offset: 0xECB8, size: 0x8, addend: 0x0, symName: __ZNSt3__16vectorINS_12basic_stringIcNS_11char_traitsIcEENS_9allocatorIcEEEENS4_IS6_EEE11__make_iterB8ue170006EPS6_, symObjAddr: 0x21D0, symBinAddr: 0x100005EC4, symSize: 0x1FC }
  - { offsetInCU: 0xECEF, offset: 0xECEF, size: 0x8, addend: 0x0, symName: __ZNSt3__111__wrap_iterIPNS_12basic_stringIcNS_11char_traitsIcEENS_9allocatorIcEEEEEC1B8ue170006ES7_, symObjAddr: 0x23CC, symBinAddr: 0x1000060C0, symSize: 0x34 }
  - { offsetInCU: 0xED27, offset: 0xED27, size: 0x8, addend: 0x0, symName: __ZNSt3__111__wrap_iterIPNS_12basic_stringIcNS_11char_traitsIcEENS_9allocatorIcEEEEEC2B8ue170006ES7_, symObjAddr: 0x2400, symBinAddr: 0x1000060F4, symSize: 0x70 }
  - { offsetInCU: 0xED5F, offset: 0xED5F, size: 0x8, addend: 0x0, symName: __ZNKSt3__111__wrap_iterIPNS_12basic_stringIcNS_11char_traitsIcEENS_9allocatorIcEEEEE4baseB8ue170006Ev, symObjAddr: 0x24B8, symBinAddr: 0x1000061AC, symSize: 0x60 }
  - { offsetInCU: 0xED85, offset: 0xED85, size: 0x8, addend: 0x0, symName: __ZNKSt3__112basic_stringIcNS_11char_traitsIcEENS_9allocatorIcEEE11starts_withB8ue170006ENS_17basic_string_viewIcS2_EE, symObjAddr: 0x2518, symBinAddr: 0x10000620C, symSize: 0x2E4 }
  - { offsetInCU: 0xEDBF, offset: 0xEDBF, size: 0x8, addend: 0x0, symName: __ZNSt3__117basic_string_viewIcNS_11char_traitsIcEEEC1B8ue170006EPKc, symObjAddr: 0x27FC, symBinAddr: 0x1000064F0, symSize: 0x34 }
  - { offsetInCU: 0xEDF8, offset: 0xEDF8, size: 0x8, addend: 0x0, symName: __ZNKSt3__112basic_stringIcNS_11char_traitsIcEENS_9allocatorIcEEE4dataB8ue170006Ev, symObjAddr: 0x2830, symBinAddr: 0x100006524, symSize: 0x28 }
  - { offsetInCU: 0xEE1E, offset: 0xEE1E, size: 0x8, addend: 0x0, symName: __ZNKSt3__112basic_stringIcNS_11char_traitsIcEENS_9allocatorIcEEE4sizeB8ue170006Ev, symObjAddr: 0x2858, symBinAddr: 0x10000654C, symSize: 0x54 }
  - { offsetInCU: 0xEE44, offset: 0xEE44, size: 0x8, addend: 0x0, symName: __ZNSt3__117basic_string_viewIcNS_11char_traitsIcEEEC1B8ue170006EPKcm, symObjAddr: 0x28AC, symBinAddr: 0x1000065A0, symSize: 0x3C }
  - { offsetInCU: 0xEE8C, offset: 0xEE8C, size: 0x8, addend: 0x0, symName: __ZNKSt3__117basic_string_viewIcNS_11char_traitsIcEEE11starts_withB8ue170006ES3_, symObjAddr: 0x28E8, symBinAddr: 0x1000065DC, symSize: 0x30C }
  - { offsetInCU: 0xEEC6, offset: 0xEEC6, size: 0x8, addend: 0x0, symName: __ZNKSt3__112basic_stringIcNS_11char_traitsIcEENS_9allocatorIcEEE13__get_pointerB8ue170006Ev, symObjAddr: 0x2C08, symBinAddr: 0x1000068FC, symSize: 0x54 }
  - { offsetInCU: 0xEEEC, offset: 0xEEEC, size: 0x8, addend: 0x0, symName: __ZNKSt3__112basic_stringIcNS_11char_traitsIcEENS_9allocatorIcEEE18__get_long_pointerB8ue170006Ev, symObjAddr: 0x2C5C, symBinAddr: 0x100006950, symSize: 0x6C }
  - { offsetInCU: 0xEF12, offset: 0xEF12, size: 0x8, addend: 0x0, symName: __ZNKSt3__112basic_stringIcNS_11char_traitsIcEENS_9allocatorIcEEE19__get_short_pointerB8ue170006Ev, symObjAddr: 0x2CC8, symBinAddr: 0x1000069BC, symSize: 0x28 }
  - { offsetInCU: 0xEF38, offset: 0xEF38, size: 0x8, addend: 0x0, symName: __ZNSt3__114pointer_traitsIPKcE10pointer_toB8ue170006ERS1_, symObjAddr: 0x2CF0, symBinAddr: 0x1000069E4, symSize: 0x14 }
  - { offsetInCU: 0xEF5B, offset: 0xEF5B, size: 0x8, addend: 0x0, symName: __ZNKSt3__112basic_stringIcNS_11char_traitsIcEENS_9allocatorIcEEE15__get_long_sizeB8ue170006Ev, symObjAddr: 0x2D04, symBinAddr: 0x1000069F8, symSize: 0x70 }
  - { offsetInCU: 0xEF81, offset: 0xEF81, size: 0x8, addend: 0x0, symName: __ZNKSt3__112basic_stringIcNS_11char_traitsIcEENS_9allocatorIcEEE16__get_short_sizeB8ue170006Ev, symObjAddr: 0x2D74, symBinAddr: 0x100006A68, symSize: 0xA0 }
  - { offsetInCU: 0xEFA7, offset: 0xEFA7, size: 0x8, addend: 0x0, symName: __ZNSt3__117basic_string_viewIcNS_11char_traitsIcEEEC2B8ue170006EPKcm, symObjAddr: 0x2E14, symBinAddr: 0x100006B08, symSize: 0xBC }
  - { offsetInCU: 0xEFEF, offset: 0xEFEF, size: 0x8, addend: 0x0, symName: __ZNKSt3__117basic_string_viewIcNS_11char_traitsIcEEE4sizeB8ue170006Ev, symObjAddr: 0x2ED0, symBinAddr: 0x100006BC4, symSize: 0x64 }
  - { offsetInCU: 0xF015, offset: 0xF015, size: 0x8, addend: 0x0, symName: __ZNKSt3__117basic_string_viewIcNS_11char_traitsIcEEE7compareB8ue170006EmmS3_, symObjAddr: 0x2F34, symBinAddr: 0x100006C28, symSize: 0x328 }
  - { offsetInCU: 0xF06F, offset: 0xF06F, size: 0x8, addend: 0x0, symName: __ZNKSt3__117basic_string_viewIcNS_11char_traitsIcEEE6substrB8ue170006Emm, symObjAddr: 0x325C, symBinAddr: 0x100006F50, symSize: 0x3D8 }
  - { offsetInCU: 0xF0B9, offset: 0xF0B9, size: 0x8, addend: 0x0, symName: __ZNKSt3__117basic_string_viewIcNS_11char_traitsIcEEE7compareES3_, symObjAddr: 0x3634, symBinAddr: 0x100007328, symSize: 0x434 }
  - { offsetInCU: 0xF113, offset: 0xF113, size: 0x8, addend: 0x0, symName: __ZNSt3__117basic_string_viewIcNS_11char_traitsIcEEEC1B8ue170006Ev, symObjAddr: 0x3AD0, symBinAddr: 0x1000077C4, symSize: 0x2C }
  - { offsetInCU: 0xF13D, offset: 0xF13D, size: 0x8, addend: 0x0, symName: __ZNKSt3__117basic_string_viewIcNS_11char_traitsIcEEE4dataB8ue170006Ev, symObjAddr: 0x3AFC, symBinAddr: 0x1000077F0, symSize: 0x60 }
  - { offsetInCU: 0xF163, offset: 0xF163, size: 0x8, addend: 0x0, symName: __ZNSt12out_of_rangeC1B8ue170006EPKc, symObjAddr: 0x3B88, symBinAddr: 0x10000787C, symSize: 0x34 }
  - { offsetInCU: 0xF19B, offset: 0xF19B, size: 0x8, addend: 0x0, symName: __ZNSt12out_of_rangeC2B8ue170006EPKc, symObjAddr: 0x3BBC, symBinAddr: 0x1000078B0, symSize: 0x8C }
  - { offsetInCU: 0xF1D3, offset: 0xF1D3, size: 0x8, addend: 0x0, symName: __ZNSt3__117basic_string_viewIcNS_11char_traitsIcEEEC2B8ue170006Ev, symObjAddr: 0x3C48, symBinAddr: 0x10000793C, symSize: 0x9C }
  - { offsetInCU: 0xF207, offset: 0xF207, size: 0x8, addend: 0x0, symName: __ZNKSt3__16__lessIvvEclB8ue170006ImmEEbRKT_RKT0_, symObjAddr: 0x3ECC, symBinAddr: 0x100007BC0, symSize: 0xBC }
  - { offsetInCU: 0xF25B, offset: 0xF25B, size: 0x8, addend: 0x0, symName: __ZNSt3__111char_traitsIcE7compareB8ue170006EPKcS3_m, symObjAddr: 0x3F88, symBinAddr: 0x100007C7C, symSize: 0x34 }
  - { offsetInCU: 0xF29A, offset: 0xF29A, size: 0x8, addend: 0x0, symName: __ZNSt3__117basic_string_viewIcNS_11char_traitsIcEEEC2B8ue170006EPKc, symObjAddr: 0x3FBC, symBinAddr: 0x100007CB0, symSize: 0xC4 }
  - { offsetInCU: 0xF2D3, offset: 0xF2D3, size: 0x8, addend: 0x0, symName: __ZNSt3__17variantIJidbcNS_12basic_stringIcNS_11char_traitsIcEENS_9allocatorIcEEEEEED2B8ue170006Ev, symObjAddr: 0x40A4, symBinAddr: 0x100007D98, symSize: 0x2C }
  - { offsetInCU: 0xF2FD, offset: 0xF2FD, size: 0x8, addend: 0x0, symName: __ZNSt3__116__variant_detail6__implIJidbcNS_12basic_stringIcNS_11char_traitsIcEENS_9allocatorIcEEEEEED1Ev, symObjAddr: 0x40D0, symBinAddr: 0x100007DC4, symSize: 0x2C }
  - { offsetInCU: 0xF32A, offset: 0xF32A, size: 0x8, addend: 0x0, symName: __ZNSt3__116__variant_detail6__implIJidbcNS_12basic_stringIcNS_11char_traitsIcEENS_9allocatorIcEEEEEED2Ev, symObjAddr: 0x40FC, symBinAddr: 0x100007DF0, symSize: 0x2C }
  - { offsetInCU: 0xF357, offset: 0xF357, size: 0x8, addend: 0x0, symName: __ZNSt3__116__variant_detail17__copy_assignmentINS0_8__traitsIJidbcNS_12basic_stringIcNS_11char_traitsIcEENS_9allocatorIcEEEEEEELNS0_6_TraitE1EED2Ev, symObjAddr: 0x4128, symBinAddr: 0x100007E1C, symSize: 0x2C }
  - { offsetInCU: 0xF381, offset: 0xF381, size: 0x8, addend: 0x0, symName: __ZNSt3__116__variant_detail17__move_assignmentINS0_8__traitsIJidbcNS_12basic_stringIcNS_11char_traitsIcEENS_9allocatorIcEEEEEEELNS0_6_TraitE1EED2Ev, symObjAddr: 0x4154, symBinAddr: 0x100007E48, symSize: 0x2C }
  - { offsetInCU: 0xF3B0, offset: 0xF3B0, size: 0x8, addend: 0x0, symName: __ZNSt3__116__variant_detail12__assignmentINS0_8__traitsIJidbcNS_12basic_stringIcNS_11char_traitsIcEENS_9allocatorIcEEEEEEEED2Ev, symObjAddr: 0x4180, symBinAddr: 0x100007E74, symSize: 0x2C }
  - { offsetInCU: 0xF3DD, offset: 0xF3DD, size: 0x8, addend: 0x0, symName: __ZNSt3__116__variant_detail18__copy_constructorINS0_8__traitsIJidbcNS_12basic_stringIcNS_11char_traitsIcEENS_9allocatorIcEEEEEEELNS0_6_TraitE1EED2Ev, symObjAddr: 0x41AC, symBinAddr: 0x100007EA0, symSize: 0x2C }
  - { offsetInCU: 0xF407, offset: 0xF407, size: 0x8, addend: 0x0, symName: __ZNSt3__116__variant_detail18__move_constructorINS0_8__traitsIJidbcNS_12basic_stringIcNS_11char_traitsIcEENS_9allocatorIcEEEEEEELNS0_6_TraitE1EED2Ev, symObjAddr: 0x41D8, symBinAddr: 0x100007ECC, symSize: 0x2C }
  - { offsetInCU: 0xF436, offset: 0xF436, size: 0x8, addend: 0x0, symName: __ZNSt3__116__variant_detail6__ctorINS0_8__traitsIJidbcNS_12basic_stringIcNS_11char_traitsIcEENS_9allocatorIcEEEEEEEED2Ev, symObjAddr: 0x4204, symBinAddr: 0x100007EF8, symSize: 0x2C }
  - { offsetInCU: 0xF463, offset: 0xF463, size: 0x8, addend: 0x0, symName: __ZNSt3__116__variant_detail6__dtorINS0_8__traitsIJidbcNS_12basic_stringIcNS_11char_traitsIcEENS_9allocatorIcEEEEEEELNS0_6_TraitE1EED2Ev, symObjAddr: 0x4230, symBinAddr: 0x100007F24, symSize: 0x34 }
  - { offsetInCU: 0xF48D, offset: 0xF48D, size: 0x8, addend: 0x0, symName: __ZNSt3__116__variant_detail6__dtorINS0_8__traitsIJidbcNS_12basic_stringIcNS_11char_traitsIcEENS_9allocatorIcEEEEEEELNS0_6_TraitE1EE9__destroyB8ue170006Ev, symObjAddr: 0x4264, symBinAddr: 0x100007F58, symSize: 0x270 }
  - { offsetInCU: 0xF54D, offset: 0xF54D, size: 0x8, addend: 0x0, symName: __ZNSt3__116__variant_detail6__baseILNS0_6_TraitE1EJidbcNS_12basic_stringIcNS_11char_traitsIcEENS_9allocatorIcEEEEEED2Ev, symObjAddr: 0x44D4, symBinAddr: 0x1000081C8, symSize: 0x2C }
  - { offsetInCU: 0xF57A, offset: 0xF57A, size: 0x8, addend: 0x0, symName: __ZNKSt3__116__variant_detail6__baseILNS0_6_TraitE1EJidbcNS_12basic_stringIcNS_11char_traitsIcEENS_9allocatorIcEEEEEE22valueless_by_exceptionB8ue170006Ev, symObjAddr: 0x4500, symBinAddr: 0x1000081F4, symSize: 0x30 }
  - { offsetInCU: 0xF5A5, offset: 0xF5A5, size: 0x8, addend: 0x0, symName: __ZNSt3__116__variant_detail12__visitation6__base11__visit_altB8ue170006IZNS0_6__dtorINS0_8__traitsIJidbcNS_12basic_stringIcNS_11char_traitsIcEENS_9allocatorIcEEEEEEELNS0_6_TraitE1EE9__destroyB8ue170006EvEUlRT_E_JRSE_EEEDcOSF_DpOT0_, symObjAddr: 0x4530, symBinAddr: 0x100008224, symSize: 0x288 }
  - { offsetInCU: 0xF601, offset: 0xF601, size: 0x8, addend: 0x0, symName: __ZNKSt3__116__variant_detail6__baseILNS0_6_TraitE1EJidbcNS_12basic_stringIcNS_11char_traitsIcEENS_9allocatorIcEEEEEE5indexB8ue170006Ev, symObjAddr: 0x47B8, symBinAddr: 0x1000084AC, symSize: 0x11C }
  - { offsetInCU: 0xF62C, offset: 0xF62C, size: 0x8, addend: 0x0, symName: __ZNSt3__116__variant_detail12__visitation6__base12__dispatcherIJLm0EEE10__dispatchB8ue170006IOZNS0_6__dtorINS0_8__traitsIJidbcNS_12basic_stringIcNS_11char_traitsIcEENS_9allocatorIcEEEEEEELNS0_6_TraitE1EE9__destroyB8ue170006EvEUlRT_E_JRNS0_6__baseILSF_1EJidbcSD_EEEEEEDcSH_DpT0_, symObjAddr: 0x48D4, symBinAddr: 0x1000085C8, symSize: 0x3C }
  - { offsetInCU: 0xF673, offset: 0xF673, size: 0x8, addend: 0x0, symName: __ZNSt3__116__variant_detail12__visitation6__base12__dispatcherIJLm1EEE10__dispatchB8ue170006IOZNS0_6__dtorINS0_8__traitsIJidbcNS_12basic_stringIcNS_11char_traitsIcEENS_9allocatorIcEEEEEEELNS0_6_TraitE1EE9__destroyB8ue170006EvEUlRT_E_JRNS0_6__baseILSF_1EJidbcSD_EEEEEEDcSH_DpT0_, symObjAddr: 0x4910, symBinAddr: 0x100008604, symSize: 0x3C }
  - { offsetInCU: 0xF6BA, offset: 0xF6BA, size: 0x8, addend: 0x0, symName: __ZNSt3__116__variant_detail12__visitation6__base12__dispatcherIJLm2EEE10__dispatchB8ue170006IOZNS0_6__dtorINS0_8__traitsIJidbcNS_12basic_stringIcNS_11char_traitsIcEENS_9allocatorIcEEEEEEELNS0_6_TraitE1EE9__destroyB8ue170006EvEUlRT_E_JRNS0_6__baseILSF_1EJidbcSD_EEEEEEDcSH_DpT0_, symObjAddr: 0x494C, symBinAddr: 0x100008640, symSize: 0x3C }
  - { offsetInCU: 0xF701, offset: 0xF701, size: 0x8, addend: 0x0, symName: __ZNSt3__116__variant_detail12__visitation6__base12__dispatcherIJLm3EEE10__dispatchB8ue170006IOZNS0_6__dtorINS0_8__traitsIJidbcNS_12basic_stringIcNS_11char_traitsIcEENS_9allocatorIcEEEEEEELNS0_6_TraitE1EE9__destroyB8ue170006EvEUlRT_E_JRNS0_6__baseILSF_1EJidbcSD_EEEEEEDcSH_DpT0_, symObjAddr: 0x4988, symBinAddr: 0x10000867C, symSize: 0x3C }
  - { offsetInCU: 0xF748, offset: 0xF748, size: 0x8, addend: 0x0, symName: __ZNSt3__116__variant_detail12__visitation6__base12__dispatcherIJLm4EEE10__dispatchB8ue170006IOZNS0_6__dtorINS0_8__traitsIJidbcNS_12basic_stringIcNS_11char_traitsIcEENS_9allocatorIcEEEEEEELNS0_6_TraitE1EE9__destroyB8ue170006EvEUlRT_E_JRNS0_6__baseILSF_1EJidbcSD_EEEEEEDcSH_DpT0_, symObjAddr: 0x49C4, symBinAddr: 0x1000086B8, symSize: 0x3C }
  - { offsetInCU: 0xF7C6, offset: 0xF7C6, size: 0x8, addend: 0x0, symName: __ZNSt3__116__variant_detail12__visitation6__base4__atB8ue170006IPFvOZNS0_6__dtorINS0_8__traitsIJidbcNS_12basic_stringIcNS_11char_traitsIcEENS_9allocatorIcEEEEEEELNS0_6_TraitE1EE9__destroyB8ue170006EvEUlRT_E_RNS0_6__baseILSD_1EJidbcSB_EEEELm5EJEEEODaRKNS_8__farrayISF_XT0_EEEmDpT1_, symObjAddr: 0x4A00, symBinAddr: 0x1000086F4, symSize: 0x30 }
  - { offsetInCU: 0xF811, offset: 0xF811, size: 0x8, addend: 0x0, symName: __ZNRSt3__116__variant_detail6__baseILNS0_6_TraitE1EJidbcNS_12basic_stringIcNS_11char_traitsIcEENS_9allocatorIcEEEEEE9__as_baseB8ue170006Ev, symObjAddr: 0x4A30, symBinAddr: 0x100008724, symSize: 0x14 }
  - { offsetInCU: 0xF83C, offset: 0xF83C, size: 0x8, addend: 0x0, symName: __ZNSt3__116__variant_detail8__access6__base9__get_altB8ue170006ILm0ERNS0_6__baseILNS0_6_TraitE1EJidbcNS_12basic_stringIcNS_11char_traitsIcEENS_9allocatorIcEEEEEEEEEODaOT0_, symObjAddr: 0x4A70, symBinAddr: 0x100008764, symSize: 0x24 }
  - { offsetInCU: 0xF87D, offset: 0xF87D, size: 0x8, addend: 0x0, symName: __ZZNSt3__116__variant_detail6__dtorINS0_8__traitsIJidbcNS_12basic_stringIcNS_11char_traitsIcEENS_9allocatorIcEEEEEEELNS0_6_TraitE1EE9__destroyB8ue170006EvENKUlRT_E_clINS0_5__altILm0EiEEEEDaSD_, symObjAddr: 0x4A94, symBinAddr: 0x100008788, symSize: 0x14 }
  - { offsetInCU: 0xF8BF, offset: 0xF8BF, size: 0x8, addend: 0x0, symName: __ZNSt3__116__variant_detail8__access7__union9__get_altB8ue170006IRNS0_7__unionILNS0_6_TraitE1ELm0EJidbcNS_12basic_stringIcNS_11char_traitsIcEENS_9allocatorIcEEEEEEEEEODaOT_NS_16in_place_index_tILm0EEE, symObjAddr: 0x4AA8, symBinAddr: 0x10000879C, symSize: 0x14 }
  - { offsetInCU: 0xF8FD, offset: 0xF8FD, size: 0x8, addend: 0x0, symName: __ZNSt3__116__variant_detail8__access6__base9__get_altB8ue170006ILm1ERNS0_6__baseILNS0_6_TraitE1EJidbcNS_12basic_stringIcNS_11char_traitsIcEENS_9allocatorIcEEEEEEEEEODaOT0_, symObjAddr: 0x4AE8, symBinAddr: 0x1000087DC, symSize: 0x24 }
  - { offsetInCU: 0xF934, offset: 0xF934, size: 0x8, addend: 0x0, symName: __ZZNSt3__116__variant_detail6__dtorINS0_8__traitsIJidbcNS_12basic_stringIcNS_11char_traitsIcEENS_9allocatorIcEEEEEEELNS0_6_TraitE1EE9__destroyB8ue170006EvENKUlRT_E_clINS0_5__altILm1EdEEEEDaSD_, symObjAddr: 0x4B0C, symBinAddr: 0x100008800, symSize: 0x14 }
  - { offsetInCU: 0xF976, offset: 0xF976, size: 0x8, addend: 0x0, symName: __ZNSt3__116__variant_detail8__access7__union9__get_altB8ue170006IRNS0_7__unionILNS0_6_TraitE1ELm0EJidbcNS_12basic_stringIcNS_11char_traitsIcEENS_9allocatorIcEEEEEEELm1EEEODaOT_NS_16in_place_index_tIXT0_EEE, symObjAddr: 0x4B20, symBinAddr: 0x100008814, symSize: 0x24 }
  - { offsetInCU: 0xF9B9, offset: 0xF9B9, size: 0x8, addend: 0x0, symName: __ZNSt3__116__variant_detail8__access7__union9__get_altB8ue170006IRNS0_7__unionILNS0_6_TraitE1ELm1EJdbcNS_12basic_stringIcNS_11char_traitsIcEENS_9allocatorIcEEEEEEEEEODaOT_NS_16in_place_index_tILm0EEE, symObjAddr: 0x4B44, symBinAddr: 0x100008838, symSize: 0x14 }
  - { offsetInCU: 0xF9F7, offset: 0xF9F7, size: 0x8, addend: 0x0, symName: __ZNSt3__116__variant_detail8__access6__base9__get_altB8ue170006ILm2ERNS0_6__baseILNS0_6_TraitE1EJidbcNS_12basic_stringIcNS_11char_traitsIcEENS_9allocatorIcEEEEEEEEEODaOT0_, symObjAddr: 0x4B84, symBinAddr: 0x100008878, symSize: 0x24 }
  - { offsetInCU: 0xFA2E, offset: 0xFA2E, size: 0x8, addend: 0x0, symName: __ZZNSt3__116__variant_detail6__dtorINS0_8__traitsIJidbcNS_12basic_stringIcNS_11char_traitsIcEENS_9allocatorIcEEEEEEELNS0_6_TraitE1EE9__destroyB8ue170006EvENKUlRT_E_clINS0_5__altILm2EbEEEEDaSD_, symObjAddr: 0x4BA8, symBinAddr: 0x10000889C, symSize: 0x14 }
  - { offsetInCU: 0xFA70, offset: 0xFA70, size: 0x8, addend: 0x0, symName: __ZNSt3__116__variant_detail8__access7__union9__get_altB8ue170006IRNS0_7__unionILNS0_6_TraitE1ELm0EJidbcNS_12basic_stringIcNS_11char_traitsIcEENS_9allocatorIcEEEEEEELm2EEEODaOT_NS_16in_place_index_tIXT0_EEE, symObjAddr: 0x4BBC, symBinAddr: 0x1000088B0, symSize: 0x24 }
  - { offsetInCU: 0xFAB3, offset: 0xFAB3, size: 0x8, addend: 0x0, symName: __ZNSt3__116__variant_detail8__access7__union9__get_altB8ue170006IRNS0_7__unionILNS0_6_TraitE1ELm1EJdbcNS_12basic_stringIcNS_11char_traitsIcEENS_9allocatorIcEEEEEEELm1EEEODaOT_NS_16in_place_index_tIXT0_EEE, symObjAddr: 0x4BE0, symBinAddr: 0x1000088D4, symSize: 0x24 }
  - { offsetInCU: 0xFAF6, offset: 0xFAF6, size: 0x8, addend: 0x0, symName: __ZNSt3__116__variant_detail8__access7__union9__get_altB8ue170006IRNS0_7__unionILNS0_6_TraitE1ELm2EJbcNS_12basic_stringIcNS_11char_traitsIcEENS_9allocatorIcEEEEEEEEEODaOT_NS_16in_place_index_tILm0EEE, symObjAddr: 0x4C04, symBinAddr: 0x1000088F8, symSize: 0x14 }
  - { offsetInCU: 0xFB34, offset: 0xFB34, size: 0x8, addend: 0x0, symName: __ZNSt3__116__variant_detail8__access6__base9__get_altB8ue170006ILm3ERNS0_6__baseILNS0_6_TraitE1EJidbcNS_12basic_stringIcNS_11char_traitsIcEENS_9allocatorIcEEEEEEEEEODaOT0_, symObjAddr: 0x4C44, symBinAddr: 0x100008938, symSize: 0x24 }
  - { offsetInCU: 0xFB6B, offset: 0xFB6B, size: 0x8, addend: 0x0, symName: __ZZNSt3__116__variant_detail6__dtorINS0_8__traitsIJidbcNS_12basic_stringIcNS_11char_traitsIcEENS_9allocatorIcEEEEEEELNS0_6_TraitE1EE9__destroyB8ue170006EvENKUlRT_E_clINS0_5__altILm3EcEEEEDaSD_, symObjAddr: 0x4C68, symBinAddr: 0x10000895C, symSize: 0x14 }
  - { offsetInCU: 0xFBAD, offset: 0xFBAD, size: 0x8, addend: 0x0, symName: __ZNSt3__116__variant_detail8__access7__union9__get_altB8ue170006IRNS0_7__unionILNS0_6_TraitE1ELm0EJidbcNS_12basic_stringIcNS_11char_traitsIcEENS_9allocatorIcEEEEEEELm3EEEODaOT_NS_16in_place_index_tIXT0_EEE, symObjAddr: 0x4C7C, symBinAddr: 0x100008970, symSize: 0x24 }
  - { offsetInCU: 0xFBF0, offset: 0xFBF0, size: 0x8, addend: 0x0, symName: __ZNSt3__116__variant_detail8__access7__union9__get_altB8ue170006IRNS0_7__unionILNS0_6_TraitE1ELm1EJdbcNS_12basic_stringIcNS_11char_traitsIcEENS_9allocatorIcEEEEEEELm2EEEODaOT_NS_16in_place_index_tIXT0_EEE, symObjAddr: 0x4CA0, symBinAddr: 0x100008994, symSize: 0x24 }
  - { offsetInCU: 0xFC33, offset: 0xFC33, size: 0x8, addend: 0x0, symName: __ZNSt3__116__variant_detail8__access7__union9__get_altB8ue170006IRNS0_7__unionILNS0_6_TraitE1ELm2EJbcNS_12basic_stringIcNS_11char_traitsIcEENS_9allocatorIcEEEEEEELm1EEEODaOT_NS_16in_place_index_tIXT0_EEE, symObjAddr: 0x4CC4, symBinAddr: 0x1000089B8, symSize: 0x24 }
  - { offsetInCU: 0xFC76, offset: 0xFC76, size: 0x8, addend: 0x0, symName: __ZNSt3__116__variant_detail8__access7__union9__get_altB8ue170006IRNS0_7__unionILNS0_6_TraitE1ELm3EJcNS_12basic_stringIcNS_11char_traitsIcEENS_9allocatorIcEEEEEEEEEODaOT_NS_16in_place_index_tILm0EEE, symObjAddr: 0x4CE8, symBinAddr: 0x1000089DC, symSize: 0x14 }
  - { offsetInCU: 0xFCB4, offset: 0xFCB4, size: 0x8, addend: 0x0, symName: __ZNSt3__116__variant_detail8__access6__base9__get_altB8ue170006ILm4ERNS0_6__baseILNS0_6_TraitE1EJidbcNS_12basic_stringIcNS_11char_traitsIcEENS_9allocatorIcEEEEEEEEEODaOT0_, symObjAddr: 0x4D28, symBinAddr: 0x100008A1C, symSize: 0x24 }
  - { offsetInCU: 0xFCEB, offset: 0xFCEB, size: 0x8, addend: 0x0, symName: __ZZNSt3__116__variant_detail6__dtorINS0_8__traitsIJidbcNS_12basic_stringIcNS_11char_traitsIcEENS_9allocatorIcEEEEEEELNS0_6_TraitE1EE9__destroyB8ue170006EvENKUlRT_E_clINS0_5__altILm4ES8_EEEEDaSD_, symObjAddr: 0x4D4C, symBinAddr: 0x100008A40, symSize: 0x28 }
  - { offsetInCU: 0xFD32, offset: 0xFD32, size: 0x8, addend: 0x0, symName: __ZNSt3__116__variant_detail5__altILm4ENS_12basic_stringIcNS_11char_traitsIcEENS_9allocatorIcEEEEED1Ev, symObjAddr: 0x4D74, symBinAddr: 0x100008A68, symSize: 0x2C }
  - { offsetInCU: 0xFD5F, offset: 0xFD5F, size: 0x8, addend: 0x0, symName: __ZNSt3__116__variant_detail5__altILm4ENS_12basic_stringIcNS_11char_traitsIcEENS_9allocatorIcEEEEED2Ev, symObjAddr: 0x4DA0, symBinAddr: 0x100008A94, symSize: 0x2C }
  - { offsetInCU: 0xFD8C, offset: 0xFD8C, size: 0x8, addend: 0x0, symName: __ZNSt3__116__variant_detail8__access7__union9__get_altB8ue170006IRNS0_7__unionILNS0_6_TraitE1ELm0EJidbcNS_12basic_stringIcNS_11char_traitsIcEENS_9allocatorIcEEEEEEELm4EEEODaOT_NS_16in_place_index_tIXT0_EEE, symObjAddr: 0x4DCC, symBinAddr: 0x100008AC0, symSize: 0x24 }
  - { offsetInCU: 0xFDCF, offset: 0xFDCF, size: 0x8, addend: 0x0, symName: __ZNSt3__116__variant_detail8__access7__union9__get_altB8ue170006IRNS0_7__unionILNS0_6_TraitE1ELm1EJdbcNS_12basic_stringIcNS_11char_traitsIcEENS_9allocatorIcEEEEEEELm3EEEODaOT_NS_16in_place_index_tIXT0_EEE, symObjAddr: 0x4DF0, symBinAddr: 0x100008AE4, symSize: 0x24 }
  - { offsetInCU: 0xFE12, offset: 0xFE12, size: 0x8, addend: 0x0, symName: __ZNSt3__116__variant_detail8__access7__union9__get_altB8ue170006IRNS0_7__unionILNS0_6_TraitE1ELm2EJbcNS_12basic_stringIcNS_11char_traitsIcEENS_9allocatorIcEEEEEEELm2EEEODaOT_NS_16in_place_index_tIXT0_EEE, symObjAddr: 0x4E14, symBinAddr: 0x100008B08, symSize: 0x24 }
  - { offsetInCU: 0xFE55, offset: 0xFE55, size: 0x8, addend: 0x0, symName: __ZNSt3__116__variant_detail8__access7__union9__get_altB8ue170006IRNS0_7__unionILNS0_6_TraitE1ELm3EJcNS_12basic_stringIcNS_11char_traitsIcEENS_9allocatorIcEEEEEEELm1EEEODaOT_NS_16in_place_index_tIXT0_EEE, symObjAddr: 0x4E38, symBinAddr: 0x100008B2C, symSize: 0x24 }
  - { offsetInCU: 0xFE98, offset: 0xFE98, size: 0x8, addend: 0x0, symName: __ZNSt3__116__variant_detail8__access7__union9__get_altB8ue170006IRNS0_7__unionILNS0_6_TraitE1ELm4EJNS_12basic_stringIcNS_11char_traitsIcEENS_9allocatorIcEEEEEEEEEODaOT_NS_16in_place_index_tILm0EEE, symObjAddr: 0x4E5C, symBinAddr: 0x100008B50, symSize: 0x14 }
  - { offsetInCU: 0xFED1, offset: 0xFED1, size: 0x8, addend: 0x0, symName: __ZNSt3__116__variant_detail12__visitation6__base4__atB8ue170006IPFvOZNS0_6__dtorINS0_8__traitsIJidbcNS_12basic_stringIcNS_11char_traitsIcEENS_9allocatorIcEEEEEEELNS0_6_TraitE1EE9__destroyB8ue170006EvEUlRT_E_RNS0_6__baseILSD_1EJidbcSB_EEEEEERKSF_SP_, symObjAddr: 0x4E70, symBinAddr: 0x100008B64, symSize: 0x14 }
  - { offsetInCU: 0xFEFE, offset: 0xFEFE, size: 0x8, addend: 0x0, symName: __ZNKSt3__18__farrayIPFvOZNS_16__variant_detail6__dtorINS1_8__traitsIJidbcNS_12basic_stringIcNS_11char_traitsIcEENS_9allocatorIcEEEEEEELNS1_6_TraitE1EE9__destroyB8ue170006EvEUlRT_E_RNS1_6__baseILSB_1EJidbcS9_EEEELm5EEixB8ue170006Em, symObjAddr: 0x4E84, symBinAddr: 0x100008B78, symSize: 0x20 }
  - { offsetInCU: 0xFF33, offset: 0xFF33, size: 0x8, addend: 0x0, symName: __ZNSt3__116__variant_detail7__unionILNS0_6_TraitE1ELm0EJidbcNS_12basic_stringIcNS_11char_traitsIcEENS_9allocatorIcEEEEEED1Ev, symObjAddr: 0x4EA4, symBinAddr: 0x100008B98, symSize: 0x2C }
  - { offsetInCU: 0xFF5D, offset: 0xFF5D, size: 0x8, addend: 0x0, symName: __ZNSt3__116__variant_detail7__unionILNS0_6_TraitE1ELm0EJidbcNS_12basic_stringIcNS_11char_traitsIcEENS_9allocatorIcEEEEEED2Ev, symObjAddr: 0x4ED0, symBinAddr: 0x100008BC4, symSize: 0x14 }
  - { offsetInCU: 0xFF87, offset: 0xFF87, size: 0x8, addend: 0x0, symName: __ZNSt3__16vectorINS_12basic_stringIcNS_11char_traitsIcEENS_9allocatorIcEEEENS4_IS6_EEED2B8ue170006Ev, symObjAddr: 0x4EE4, symBinAddr: 0x100008BD8, symSize: 0x1F8 }
  - { offsetInCU: 0xFFB2, offset: 0xFFB2, size: 0x8, addend: 0x0, symName: __ZNSt3__16vectorINS_12basic_stringIcNS_11char_traitsIcEENS_9allocatorIcEEEENS4_IS6_EEE16__destroy_vectorC1B8ue170006ERS8_, symObjAddr: 0x50DC, symBinAddr: 0x100008DD0, symSize: 0x34 }
  - { offsetInCU: 0xFFEB, offset: 0xFFEB, size: 0x8, addend: 0x0, symName: __ZNSt3__16vectorINS_12basic_stringIcNS_11char_traitsIcEENS_9allocatorIcEEEENS4_IS6_EEE16__destroy_vectorclB8ue170006Ev, symObjAddr: 0x5110, symBinAddr: 0x100008E04, symSize: 0x228 }
  - { offsetInCU: 0x10011, offset: 0x10011, size: 0x8, addend: 0x0, symName: __ZNSt3__16vectorINS_12basic_stringIcNS_11char_traitsIcEENS_9allocatorIcEEEENS4_IS6_EEE16__destroy_vectorC2B8ue170006ERS8_, symObjAddr: 0x5338, symBinAddr: 0x10000902C, symSize: 0x70 }
  - { offsetInCU: 0x1004A, offset: 0x1004A, size: 0x8, addend: 0x0, symName: __ZNSt3__16vectorINS_12basic_stringIcNS_11char_traitsIcEENS_9allocatorIcEEEENS4_IS6_EEE7__clearB8ue170006Ev, symObjAddr: 0x53A8, symBinAddr: 0x10000909C, symSize: 0x64 }
  - { offsetInCU: 0x10070, offset: 0x10070, size: 0x8, addend: 0x0, symName: __ZNKSt3__16vectorINS_12basic_stringIcNS_11char_traitsIcEENS_9allocatorIcEEEENS4_IS6_EEE17__annotate_deleteB8ue170006Ev, symObjAddr: 0x540C, symBinAddr: 0x100009100, symSize: 0xE8 }
  - { offsetInCU: 0x10096, offset: 0x10096, size: 0x8, addend: 0x0, symName: __ZNSt3__116allocator_traitsINS_9allocatorINS_12basic_stringIcNS_11char_traitsIcEENS1_IcEEEEEEE10deallocateB8ue170006ERS7_PS6_m, symObjAddr: 0x54F4, symBinAddr: 0x1000091E8, symSize: 0x34 }
  - { offsetInCU: 0x100D8, offset: 0x100D8, size: 0x8, addend: 0x0, symName: __ZNSt3__16vectorINS_12basic_stringIcNS_11char_traitsIcEENS_9allocatorIcEEEENS4_IS6_EEE7__allocB8ue170006Ev, symObjAddr: 0x5528, symBinAddr: 0x10000921C, symSize: 0x28 }
  - { offsetInCU: 0x100FE, offset: 0x100FE, size: 0x8, addend: 0x0, symName: __ZNKSt3__16vectorINS_12basic_stringIcNS_11char_traitsIcEENS_9allocatorIcEEEENS4_IS6_EEE8capacityB8ue170006Ev, symObjAddr: 0x5550, symBinAddr: 0x100009244, symSize: 0xBC }
  - { offsetInCU: 0x10124, offset: 0x10124, size: 0x8, addend: 0x0, symName: __ZNSt3__16vectorINS_12basic_stringIcNS_11char_traitsIcEENS_9allocatorIcEEEENS4_IS6_EEE22__base_destruct_at_endB8ue170006EPS6_, symObjAddr: 0x560C, symBinAddr: 0x100009300, symSize: 0x114 }
  - { offsetInCU: 0x10168, offset: 0x10168, size: 0x8, addend: 0x0, symName: __ZNSt3__116allocator_traitsINS_9allocatorINS_12basic_stringIcNS_11char_traitsIcEENS1_IcEEEEEEE7destroyB8ue170006IS6_vvEEvRS7_PT_, symObjAddr: 0x5720, symBinAddr: 0x100009414, symSize: 0x28 }
  - { offsetInCU: 0x101A3, offset: 0x101A3, size: 0x8, addend: 0x0, symName: __ZNKSt3__16vectorINS_12basic_stringIcNS_11char_traitsIcEENS_9allocatorIcEEEENS4_IS6_EEE31__annotate_contiguous_containerEPKvSA_SA_SA_, symObjAddr: 0x57A4, symBinAddr: 0x100009498, symSize: 0x58 }
  - { offsetInCU: 0x10205, offset: 0x10205, size: 0x8, addend: 0x0, symName: __ZNKSt3__16vectorINS_12basic_stringIcNS_11char_traitsIcEENS_9allocatorIcEEEENS4_IS6_EEE4dataB8ue170006Ev, symObjAddr: 0x57FC, symBinAddr: 0x1000094F0, symSize: 0x64 }
  - { offsetInCU: 0x1022B, offset: 0x1022B, size: 0x8, addend: 0x0, symName: __ZNKSt3__16vectorINS_12basic_stringIcNS_11char_traitsIcEENS_9allocatorIcEEEENS4_IS6_EEE4sizeB8ue170006Ev, symObjAddr: 0x5860, symBinAddr: 0x100009554, symSize: 0xB0 }
  - { offsetInCU: 0x10251, offset: 0x10251, size: 0x8, addend: 0x0, symName: __ZNSt3__19allocatorINS_12basic_stringIcNS_11char_traitsIcEENS0_IcEEEEE10deallocateB8ue170006EPS5_m, symObjAddr: 0x5910, symBinAddr: 0x100009604, symSize: 0x50 }
  - { offsetInCU: 0x10293, offset: 0x10293, size: 0x8, addend: 0x0, symName: __ZNSt3__117__compressed_pairIPNS_12basic_stringIcNS_11char_traitsIcEENS_9allocatorIcEEEENS4_IS6_EEE6secondB8ue170006Ev, symObjAddr: 0x5960, symBinAddr: 0x100009654, symSize: 0x24 }
  - { offsetInCU: 0x102B9, offset: 0x102B9, size: 0x8, addend: 0x0, symName: __ZNSt3__122__compressed_pair_elemINS_9allocatorINS_12basic_stringIcNS_11char_traitsIcEENS1_IcEEEEEELi1ELb1EE5__getB8ue170006Ev, symObjAddr: 0x5984, symBinAddr: 0x100009678, symSize: 0x14 }
  - { offsetInCU: 0x102DF, offset: 0x102DF, size: 0x8, addend: 0x0, symName: __ZNKSt3__16vectorINS_12basic_stringIcNS_11char_traitsIcEENS_9allocatorIcEEEENS4_IS6_EEE9__end_capB8ue170006Ev, symObjAddr: 0x5998, symBinAddr: 0x10000968C, symSize: 0x28 }
  - { offsetInCU: 0x10305, offset: 0x10305, size: 0x8, addend: 0x0, symName: __ZNKSt3__117__compressed_pairIPNS_12basic_stringIcNS_11char_traitsIcEENS_9allocatorIcEEEENS4_IS6_EEE5firstB8ue170006Ev, symObjAddr: 0x59C0, symBinAddr: 0x1000096B4, symSize: 0x24 }
  - { offsetInCU: 0x1032B, offset: 0x1032B, size: 0x8, addend: 0x0, symName: __ZNKSt3__122__compressed_pair_elemIPNS_12basic_stringIcNS_11char_traitsIcEENS_9allocatorIcEEEELi0ELb0EE5__getB8ue170006Ev, symObjAddr: 0x59E4, symBinAddr: 0x1000096D8, symSize: 0x14 }
  - { offsetInCU: 0x10351, offset: 0x10351, size: 0x8, addend: 0x0, symName: __ZN11SymbolTableD2Ev, symObjAddr: 0x59F8, symBinAddr: 0x1000096EC, symSize: 0x2C }
  - { offsetInCU: 0x1037D, offset: 0x1037D, size: 0x8, addend: 0x0, symName: __ZNSt3__113unordered_mapINS_12basic_stringIcNS_11char_traitsIcEENS_9allocatorIcEEEENS_7variantIJidbcS6_EEENS_4hashIS6_EENS_8equal_toIS6_EENS4_INS_4pairIKS6_S8_EEEEEC2B8ue170006Ev, symObjAddr: 0x5A24, symBinAddr: 0x100009718, symSize: 0x2C }
  - { offsetInCU: 0x103A7, offset: 0x103A7, size: 0x8, addend: 0x0, symName: __ZNSt3__112__hash_tableINS_17__hash_value_typeINS_12basic_stringIcNS_11char_traitsIcEENS_9allocatorIcEEEENS_7variantIJidbcS7_EEEEENS_22__unordered_map_hasherIS7_SA_NS_4hashIS7_EENS_8equal_toIS7_EELb1EEENS_21__unordered_map_equalIS7_SA_SF_SD_Lb1EEENS5_ISA_EEEC1Ev, symObjAddr: 0x5A50, symBinAddr: 0x100009744, symSize: 0x2C }
  - { offsetInCU: 0x103D3, offset: 0x103D3, size: 0x8, addend: 0x0, symName: __ZNSt3__112__hash_tableINS_17__hash_value_typeINS_12basic_stringIcNS_11char_traitsIcEENS_9allocatorIcEEEENS_7variantIJidbcS7_EEEEENS_22__unordered_map_hasherIS7_SA_NS_4hashIS7_EENS_8equal_toIS7_EELb1EEENS_21__unordered_map_equalIS7_SA_SF_SD_Lb1EEENS5_ISA_EEEC2Ev, symObjAddr: 0x5A7C, symBinAddr: 0x100009770, symSize: 0x38C }
  - { offsetInCU: 0x10400, offset: 0x10400, size: 0x8, addend: 0x0, symName: __ZNSt3__110unique_ptrIA_PNS_16__hash_node_baseIPNS_11__hash_nodeINS_17__hash_value_typeINS_12basic_stringIcNS_11char_traitsIcEENS_9allocatorIcEEEENS_7variantIJidbcS9_EEEEEPvEEEENS_25__bucket_list_deallocatorINS7_ISH_EEEEEC1B8ue170006ILb1EvEEv, symObjAddr: 0x5E08, symBinAddr: 0x100009AFC, symSize: 0x2C }
  - { offsetInCU: 0x10435, offset: 0x10435, size: 0x8, addend: 0x0, symName: __ZNSt3__117__compressed_pairINS_16__hash_node_baseIPNS_11__hash_nodeINS_17__hash_value_typeINS_12basic_stringIcNS_11char_traitsIcEENS_9allocatorIcEEEENS_7variantIJidbcS9_EEEEEPvEEEENS7_ISE_EEEC1B8ue170006ILb1EvEEv, symObjAddr: 0x5E34, symBinAddr: 0x100009B28, symSize: 0x2C }
  - { offsetInCU: 0x1046F, offset: 0x1046F, size: 0x8, addend: 0x0, symName: __ZNSt3__117__compressed_pairImNS_22__unordered_map_hasherINS_12basic_stringIcNS_11char_traitsIcEENS_9allocatorIcEEEENS_17__hash_value_typeIS7_NS_7variantIJidbcS7_EEEEENS_4hashIS7_EENS_8equal_toIS7_EELb1EEEEC1B8ue170006IiNS_18__default_init_tagEEEOT_OT0_, symObjAddr: 0x5E60, symBinAddr: 0x100009B54, symSize: 0x3C }
  - { offsetInCU: 0x104CC, offset: 0x104CC, size: 0x8, addend: 0x0, symName: __ZNSt3__117__compressed_pairIfNS_21__unordered_map_equalINS_12basic_stringIcNS_11char_traitsIcEENS_9allocatorIcEEEENS_17__hash_value_typeIS7_NS_7variantIJidbcS7_EEEEENS_8equal_toIS7_EENS_4hashIS7_EELb1EEEEC1B8ue170006IfNS_18__default_init_tagEEEOT_OT0_, symObjAddr: 0x5E9C, symBinAddr: 0x100009B90, symSize: 0x3C }
  - { offsetInCU: 0x10524, offset: 0x10524, size: 0x8, addend: 0x0, symName: __ZNSt3__110unique_ptrIA_PNS_16__hash_node_baseIPNS_11__hash_nodeINS_17__hash_value_typeINS_12basic_stringIcNS_11char_traitsIcEENS_9allocatorIcEEEENS_7variantIJidbcS9_EEEEEPvEEEENS_25__bucket_list_deallocatorINS7_ISH_EEEEEC2B8ue170006ILb1EvEEv, symObjAddr: 0x5ED8, symBinAddr: 0x100009BCC, symSize: 0x200 }
  - { offsetInCU: 0x1055F, offset: 0x1055F, size: 0x8, addend: 0x0, symName: __ZNSt3__117__compressed_pairIPPNS_16__hash_node_baseIPNS_11__hash_nodeINS_17__hash_value_typeINS_12basic_stringIcNS_11char_traitsIcEENS_9allocatorIcEEEENS_7variantIJidbcS9_EEEEEPvEEEENS_25__bucket_list_deallocatorINS7_ISH_EEEEEC1B8ue170006INS_16__value_init_tagESO_EEOT_OT0_, symObjAddr: 0x60D8, symBinAddr: 0x100009DCC, symSize: 0x3C }
  - { offsetInCU: 0x105B7, offset: 0x105B7, size: 0x8, addend: 0x0, symName: __ZNSt3__117__compressed_pairIPPNS_16__hash_node_baseIPNS_11__hash_nodeINS_17__hash_value_typeINS_12basic_stringIcNS_11char_traitsIcEENS_9allocatorIcEEEENS_7variantIJidbcS9_EEEEEPvEEEENS_25__bucket_list_deallocatorINS7_ISH_EEEEEC2B8ue170006INS_16__value_init_tagESO_EEOT_OT0_, symObjAddr: 0x6114, symBinAddr: 0x100009E08, symSize: 0x40 }
  - { offsetInCU: 0x1060F, offset: 0x1060F, size: 0x8, addend: 0x0, symName: __ZNSt3__122__compressed_pair_elemIPPNS_16__hash_node_baseIPNS_11__hash_nodeINS_17__hash_value_typeINS_12basic_stringIcNS_11char_traitsIcEENS_9allocatorIcEEEENS_7variantIJidbcS9_EEEEEPvEEEELi0ELb0EEC2B8ue170006ENS_16__value_init_tagE, symObjAddr: 0x6154, symBinAddr: 0x100009E48, symSize: 0x60 }
  - { offsetInCU: 0x10644, offset: 0x10644, size: 0x8, addend: 0x0, symName: __ZNSt3__122__compressed_pair_elemINS_25__bucket_list_deallocatorINS_9allocatorIPNS_16__hash_node_baseIPNS_11__hash_nodeINS_17__hash_value_typeINS_12basic_stringIcNS_11char_traitsIcEENS2_IcEEEENS_7variantIJidbcSA_EEEEEPvEEEEEEEELi1ELb0EEC2B8ue170006ENS_16__value_init_tagE, symObjAddr: 0x61B4, symBinAddr: 0x100009EA8, symSize: 0x2C }
  - { offsetInCU: 0x10679, offset: 0x10679, size: 0x8, addend: 0x0, symName: __ZNSt3__125__bucket_list_deallocatorINS_9allocatorIPNS_16__hash_node_baseIPNS_11__hash_nodeINS_17__hash_value_typeINS_12basic_stringIcNS_11char_traitsIcEENS1_IcEEEENS_7variantIJidbcS9_EEEEEPvEEEEEEEC1B8ue170006Ev, symObjAddr: 0x61E0, symBinAddr: 0x100009ED4, symSize: 0x2C }
  - { offsetInCU: 0x106A3, offset: 0x106A3, size: 0x8, addend: 0x0, symName: __ZNSt3__125__bucket_list_deallocatorINS_9allocatorIPNS_16__hash_node_baseIPNS_11__hash_nodeINS_17__hash_value_typeINS_12basic_stringIcNS_11char_traitsIcEENS1_IcEEEENS_7variantIJidbcS9_EEEEEPvEEEEEEEC2B8ue170006Ev, symObjAddr: 0x620C, symBinAddr: 0x100009F00, symSize: 0x270 }
  - { offsetInCU: 0x106CE, offset: 0x106CE, size: 0x8, addend: 0x0, symName: __ZNSt3__117__compressed_pairImNS_9allocatorIPNS_16__hash_node_baseIPNS_11__hash_nodeINS_17__hash_value_typeINS_12basic_stringIcNS_11char_traitsIcEENS1_IcEEEENS_7variantIJidbcS9_EEEEEPvEEEEEEEC1B8ue170006IiNS_18__default_init_tagEEEOT_OT0_, symObjAddr: 0x647C, symBinAddr: 0x10000A170, symSize: 0x3C }
  - { offsetInCU: 0x10726, offset: 0x10726, size: 0x8, addend: 0x0, symName: __ZNSt3__117__compressed_pairImNS_9allocatorIPNS_16__hash_node_baseIPNS_11__hash_nodeINS_17__hash_value_typeINS_12basic_stringIcNS_11char_traitsIcEENS1_IcEEEENS_7variantIJidbcS9_EEEEEPvEEEEEEEC2B8ue170006IiNS_18__default_init_tagEEEOT_OT0_, symObjAddr: 0x64B8, symBinAddr: 0x10000A1AC, symSize: 0x40 }
  - { offsetInCU: 0x1077E, offset: 0x1077E, size: 0x8, addend: 0x0, symName: __ZNSt3__122__compressed_pair_elemImLi0ELb0EEC2B8ue170006IivEEOT_, symObjAddr: 0x64F8, symBinAddr: 0x10000A1EC, symSize: 0xD8 }
  - { offsetInCU: 0x107C0, offset: 0x107C0, size: 0x8, addend: 0x0, symName: __ZNSt3__122__compressed_pair_elemINS_9allocatorIPNS_16__hash_node_baseIPNS_11__hash_nodeINS_17__hash_value_typeINS_12basic_stringIcNS_11char_traitsIcEENS1_IcEEEENS_7variantIJidbcS9_EEEEEPvEEEEEELi1ELb1EEC2B8ue170006ENS_18__default_init_tagE, symObjAddr: 0x65D0, symBinAddr: 0x10000A2C4, symSize: 0x2C }
  - { offsetInCU: 0x107F5, offset: 0x107F5, size: 0x8, addend: 0x0, symName: __ZNSt3__19allocatorIPNS_16__hash_node_baseIPNS_11__hash_nodeINS_17__hash_value_typeINS_12basic_stringIcNS_11char_traitsIcEENS0_IcEEEENS_7variantIJidbcS8_EEEEEPvEEEEEC2B8ue170006Ev, symObjAddr: 0x65FC, symBinAddr: 0x10000A2F0, symSize: 0x2C }
  - { offsetInCU: 0x1081F, offset: 0x1081F, size: 0x8, addend: 0x0, symName: __ZNSt3__116__non_trivial_ifILb1ENS_9allocatorIPNS_16__hash_node_baseIPNS_11__hash_nodeINS_17__hash_value_typeINS_12basic_stringIcNS_11char_traitsIcEENS1_IcEEEENS_7variantIJidbcS9_EEEEEPvEEEEEEEC2B8ue170006Ev, symObjAddr: 0x6628, symBinAddr: 0x10000A31C, symSize: 0x14 }
  - { offsetInCU: 0x10849, offset: 0x10849, size: 0x8, addend: 0x0, symName: __ZNSt3__117__compressed_pairINS_16__hash_node_baseIPNS_11__hash_nodeINS_17__hash_value_typeINS_12basic_stringIcNS_11char_traitsIcEENS_9allocatorIcEEEENS_7variantIJidbcS9_EEEEEPvEEEENS7_ISE_EEEC2B8ue170006ILb1EvEEv, symObjAddr: 0x663C, symBinAddr: 0x10000A330, symSize: 0x34 }
  - { offsetInCU: 0x1087E, offset: 0x1087E, size: 0x8, addend: 0x0, symName: __ZNSt3__122__compressed_pair_elemINS_16__hash_node_baseIPNS_11__hash_nodeINS_17__hash_value_typeINS_12basic_stringIcNS_11char_traitsIcEENS_9allocatorIcEEEENS_7variantIJidbcS9_EEEEEPvEEEELi0ELb0EEC2B8ue170006ENS_16__value_init_tagE, symObjAddr: 0x6670, symBinAddr: 0x10000A364, symSize: 0x2C }
  - { offsetInCU: 0x108B3, offset: 0x108B3, size: 0x8, addend: 0x0, symName: __ZNSt3__122__compressed_pair_elemINS_9allocatorINS_11__hash_nodeINS_17__hash_value_typeINS_12basic_stringIcNS_11char_traitsIcEENS1_IcEEEENS_7variantIJidbcS8_EEEEEPvEEEELi1ELb1EEC2B8ue170006ENS_16__value_init_tagE, symObjAddr: 0x669C, symBinAddr: 0x10000A390, symSize: 0x2C }
  - { offsetInCU: 0x108E8, offset: 0x108E8, size: 0x8, addend: 0x0, symName: __ZNSt3__116__hash_node_baseIPNS_11__hash_nodeINS_17__hash_value_typeINS_12basic_stringIcNS_11char_traitsIcEENS_9allocatorIcEEEENS_7variantIJidbcS8_EEEEEPvEEEC1B8ue170006Ev, symObjAddr: 0x66C8, symBinAddr: 0x10000A3BC, symSize: 0x2C }
  - { offsetInCU: 0x10912, offset: 0x10912, size: 0x8, addend: 0x0, symName: __ZNSt3__116__hash_node_baseIPNS_11__hash_nodeINS_17__hash_value_typeINS_12basic_stringIcNS_11char_traitsIcEENS_9allocatorIcEEEENS_7variantIJidbcS8_EEEEEPvEEEC2B8ue170006Ev, symObjAddr: 0x66F4, symBinAddr: 0x10000A3E8, symSize: 0x60 }
  - { offsetInCU: 0x1093C, offset: 0x1093C, size: 0x8, addend: 0x0, symName: __ZNSt3__19allocatorINS_11__hash_nodeINS_17__hash_value_typeINS_12basic_stringIcNS_11char_traitsIcEENS0_IcEEEENS_7variantIJidbcS7_EEEEEPvEEEC2B8ue170006Ev, symObjAddr: 0x6754, symBinAddr: 0x10000A448, symSize: 0x2C }
  - { offsetInCU: 0x10966, offset: 0x10966, size: 0x8, addend: 0x0, symName: __ZNSt3__116__non_trivial_ifILb1ENS_9allocatorINS_11__hash_nodeINS_17__hash_value_typeINS_12basic_stringIcNS_11char_traitsIcEENS1_IcEEEENS_7variantIJidbcS8_EEEEEPvEEEEEC2B8ue170006Ev, symObjAddr: 0x6780, symBinAddr: 0x10000A474, symSize: 0x14 }
  - { offsetInCU: 0x10990, offset: 0x10990, size: 0x8, addend: 0x0, symName: __ZNSt3__117__compressed_pairImNS_22__unordered_map_hasherINS_12basic_stringIcNS_11char_traitsIcEENS_9allocatorIcEEEENS_17__hash_value_typeIS7_NS_7variantIJidbcS7_EEEEENS_4hashIS7_EENS_8equal_toIS7_EELb1EEEEC2B8ue170006IiNS_18__default_init_tagEEEOT_OT0_, symObjAddr: 0x6794, symBinAddr: 0x10000A488, symSize: 0x40 }
  - { offsetInCU: 0x109E8, offset: 0x109E8, size: 0x8, addend: 0x0, symName: __ZNSt3__122__compressed_pair_elemINS_22__unordered_map_hasherINS_12basic_stringIcNS_11char_traitsIcEENS_9allocatorIcEEEENS_17__hash_value_typeIS7_NS_7variantIJidbcS7_EEEEENS_4hashIS7_EENS_8equal_toIS7_EELb1EEELi1ELb1EEC2B8ue170006ENS_18__default_init_tagE, symObjAddr: 0x67D4, symBinAddr: 0x10000A4C8, symSize: 0x2C }
  - { offsetInCU: 0x10A1D, offset: 0x10A1D, size: 0x8, addend: 0x0, symName: __ZNSt3__122__unordered_map_hasherINS_12basic_stringIcNS_11char_traitsIcEENS_9allocatorIcEEEENS_17__hash_value_typeIS6_NS_7variantIJidbcS6_EEEEENS_4hashIS6_EENS_8equal_toIS6_EELb1EEC2B8ue170006Ev, symObjAddr: 0x6800, symBinAddr: 0x10000A4F4, symSize: 0x14 }
  - { offsetInCU: 0x10A47, offset: 0x10A47, size: 0x8, addend: 0x0, symName: __ZNSt3__117__compressed_pairIfNS_21__unordered_map_equalINS_12basic_stringIcNS_11char_traitsIcEENS_9allocatorIcEEEENS_17__hash_value_typeIS7_NS_7variantIJidbcS7_EEEEENS_8equal_toIS7_EENS_4hashIS7_EELb1EEEEC2B8ue170006IfNS_18__default_init_tagEEEOT_OT0_, symObjAddr: 0x6814, symBinAddr: 0x10000A508, symSize: 0x40 }
  - { offsetInCU: 0x10A9F, offset: 0x10A9F, size: 0x8, addend: 0x0, symName: __ZNSt3__122__compressed_pair_elemIfLi0ELb0EEC2B8ue170006IfvEEOT_, symObjAddr: 0x6854, symBinAddr: 0x10000A548, symSize: 0x100 }
  - { offsetInCU: 0x10AE1, offset: 0x10AE1, size: 0x8, addend: 0x0, symName: __ZNSt3__122__compressed_pair_elemINS_21__unordered_map_equalINS_12basic_stringIcNS_11char_traitsIcEENS_9allocatorIcEEEENS_17__hash_value_typeIS7_NS_7variantIJidbcS7_EEEEENS_8equal_toIS7_EENS_4hashIS7_EELb1EEELi1ELb1EEC2B8ue170006ENS_18__default_init_tagE, symObjAddr: 0x6954, symBinAddr: 0x10000A648, symSize: 0x2C }
  - { offsetInCU: 0x10B16, offset: 0x10B16, size: 0x8, addend: 0x0, symName: __ZNSt3__121__unordered_map_equalINS_12basic_stringIcNS_11char_traitsIcEENS_9allocatorIcEEEENS_17__hash_value_typeIS6_NS_7variantIJidbcS6_EEEEENS_8equal_toIS6_EENS_4hashIS6_EELb1EEC2B8ue170006Ev, symObjAddr: 0x6980, symBinAddr: 0x10000A674, symSize: 0x14 }
  - { offsetInCU: 0x10B40, offset: 0x10B40, size: 0x8, addend: 0x0, symName: __ZNSt3__113unordered_mapINS_12basic_stringIcNS_11char_traitsIcEENS_9allocatorIcEEEENS_7variantIJidbcS6_EEENS_4hashIS6_EENS_8equal_toIS6_EENS4_INS_4pairIKS6_S8_EEEEED2B8ue170006Ev, symObjAddr: 0x6994, symBinAddr: 0x10000A688, symSize: 0x2C }
  - { offsetInCU: 0x10B6A, offset: 0x10B6A, size: 0x8, addend: 0x0, symName: __ZNSt3__112__hash_tableINS_17__hash_value_typeINS_12basic_stringIcNS_11char_traitsIcEENS_9allocatorIcEEEENS_7variantIJidbcS7_EEEEENS_22__unordered_map_hasherIS7_SA_NS_4hashIS7_EENS_8equal_toIS7_EELb1EEENS_21__unordered_map_equalIS7_SA_SF_SD_Lb1EEENS5_ISA_EEED1Ev, symObjAddr: 0x69C0, symBinAddr: 0x10000A6B4, symSize: 0x2C }
  - { offsetInCU: 0x10B96, offset: 0x10B96, size: 0x8, addend: 0x0, symName: __ZNSt3__112__hash_tableINS_17__hash_value_typeINS_12basic_stringIcNS_11char_traitsIcEENS_9allocatorIcEEEENS_7variantIJidbcS7_EEEEENS_22__unordered_map_hasherIS7_SA_NS_4hashIS7_EENS_8equal_toIS7_EELb1EEENS_21__unordered_map_equalIS7_SA_SF_SD_Lb1EEENS5_ISA_EEED2Ev, symObjAddr: 0x69EC, symBinAddr: 0x10000A6E0, symSize: 0x88 }
  - { offsetInCU: 0x10BC2, offset: 0x10BC2, size: 0x8, addend: 0x0, symName: __ZNSt3__112__hash_tableINS_17__hash_value_typeINS_12basic_stringIcNS_11char_traitsIcEENS_9allocatorIcEEEENS_7variantIJidbcS7_EEEEENS_22__unordered_map_hasherIS7_SA_NS_4hashIS7_EENS_8equal_toIS7_EELb1EEENS_21__unordered_map_equalIS7_SA_SF_SD_Lb1EEENS5_ISA_EEE17__deallocate_nodeEPNS_16__hash_node_baseIPNS_11__hash_nodeISA_PvEEEE, symObjAddr: 0x6A74, symBinAddr: 0x10000A768, symSize: 0xF8 }
  - { offsetInCU: 0x10C2D, offset: 0x10C2D, size: 0x8, addend: 0x0, symName: __ZNSt3__117__compressed_pairINS_16__hash_node_baseIPNS_11__hash_nodeINS_17__hash_value_typeINS_12basic_stringIcNS_11char_traitsIcEENS_9allocatorIcEEEENS_7variantIJidbcS9_EEEEEPvEEEENS7_ISE_EEE5firstB8ue170006Ev, symObjAddr: 0x6B6C, symBinAddr: 0x10000A860, symSize: 0x24 }
  - { offsetInCU: 0x10C53, offset: 0x10C53, size: 0x8, addend: 0x0, symName: __ZNSt3__110unique_ptrIA_PNS_16__hash_node_baseIPNS_11__hash_nodeINS_17__hash_value_typeINS_12basic_stringIcNS_11char_traitsIcEENS_9allocatorIcEEEENS_7variantIJidbcS9_EEEEEPvEEEENS_25__bucket_list_deallocatorINS7_ISH_EEEEED1B8ue170006Ev, symObjAddr: 0x6B90, symBinAddr: 0x10000A884, symSize: 0x2C }
  - { offsetInCU: 0x10C7D, offset: 0x10C7D, size: 0x8, addend: 0x0, symName: __ZNSt3__112__hash_tableINS_17__hash_value_typeINS_12basic_stringIcNS_11char_traitsIcEENS_9allocatorIcEEEENS_7variantIJidbcS7_EEEEENS_22__unordered_map_hasherIS7_SA_NS_4hashIS7_EENS_8equal_toIS7_EELb1EEENS_21__unordered_map_equalIS7_SA_SF_SD_Lb1EEENS5_ISA_EEE12__node_allocB8ue170006Ev, symObjAddr: 0x6BBC, symBinAddr: 0x10000A8B0, symSize: 0x28 }
  - { offsetInCU: 0x10CA3, offset: 0x10CA3, size: 0x8, addend: 0x0, symName: __ZNSt3__116__hash_node_baseIPNS_11__hash_nodeINS_17__hash_value_typeINS_12basic_stringIcNS_11char_traitsIcEENS_9allocatorIcEEEENS_7variantIJidbcS8_EEEEEPvEEE8__upcastB8ue170006Ev, symObjAddr: 0x6BE4, symBinAddr: 0x10000A8D8, symSize: 0x24 }
  - { offsetInCU: 0x10CC9, offset: 0x10CC9, size: 0x8, addend: 0x0, symName: __ZNSt3__116allocator_traitsINS_9allocatorINS_11__hash_nodeINS_17__hash_value_typeINS_12basic_stringIcNS_11char_traitsIcEENS1_IcEEEENS_7variantIJidbcS8_EEEEEPvEEEEE7destroyB8ue170006INS_4pairIKS8_SA_EEvvEEvRSE_PT_, symObjAddr: 0x6C08, symBinAddr: 0x10000A8FC, symSize: 0x28 }
  - { offsetInCU: 0x10D04, offset: 0x10D04, size: 0x8, addend: 0x0, symName: __ZNSt3__122__hash_key_value_typesINS_17__hash_value_typeINS_12basic_stringIcNS_11char_traitsIcEENS_9allocatorIcEEEENS_7variantIJidbcS7_EEEEEE9__get_ptrB8ue170006ERSA_, symObjAddr: 0x6C30, symBinAddr: 0x10000A924, symSize: 0x24 }
  - { offsetInCU: 0x10D27, offset: 0x10D27, size: 0x8, addend: 0x0, symName: __ZNSt3__116allocator_traitsINS_9allocatorINS_11__hash_nodeINS_17__hash_value_typeINS_12basic_stringIcNS_11char_traitsIcEENS1_IcEEEENS_7variantIJidbcS8_EEEEEPvEEEEE10deallocateB8ue170006ERSE_PSD_m, symObjAddr: 0x6C54, symBinAddr: 0x10000A948, symSize: 0x34 }
  - { offsetInCU: 0x10D69, offset: 0x10D69, size: 0x8, addend: 0x0, symName: __ZNSt3__117__compressed_pairINS_16__hash_node_baseIPNS_11__hash_nodeINS_17__hash_value_typeINS_12basic_stringIcNS_11char_traitsIcEENS_9allocatorIcEEEENS_7variantIJidbcS9_EEEEEPvEEEENS7_ISE_EEE6secondB8ue170006Ev, symObjAddr: 0x6C88, symBinAddr: 0x10000A97C, symSize: 0x24 }
  - { offsetInCU: 0x10D8F, offset: 0x10D8F, size: 0x8, addend: 0x0, symName: __ZNSt3__122__compressed_pair_elemINS_9allocatorINS_11__hash_nodeINS_17__hash_value_typeINS_12basic_stringIcNS_11char_traitsIcEENS1_IcEEEENS_7variantIJidbcS8_EEEEEPvEEEELi1ELb1EE5__getB8ue170006Ev, symObjAddr: 0x6CAC, symBinAddr: 0x10000A9A0, symSize: 0x14 }
  - { offsetInCU: 0x10DB5, offset: 0x10DB5, size: 0x8, addend: 0x0, symName: __ZNSt3__114pointer_traitsIPNS_16__hash_node_baseIPNS_11__hash_nodeINS_17__hash_value_typeINS_12basic_stringIcNS_11char_traitsIcEENS_9allocatorIcEEEENS_7variantIJidbcS9_EEEEEPvEEEEE10pointer_toB8ue170006ERSG_, symObjAddr: 0x6CC0, symBinAddr: 0x10000A9B4, symSize: 0x14 }
  - { offsetInCU: 0x10DD8, offset: 0x10DD8, size: 0x8, addend: 0x0, symName: __ZNSt3__14pairIKNS_12basic_stringIcNS_11char_traitsIcEENS_9allocatorIcEEEENS_7variantIJidbcS6_EEEED1Ev, symObjAddr: 0x6D1C, symBinAddr: 0x10000AA10, symSize: 0x2C }
  - { offsetInCU: 0x10E04, offset: 0x10E04, size: 0x8, addend: 0x0, symName: __ZNSt3__14pairIKNS_12basic_stringIcNS_11char_traitsIcEENS_9allocatorIcEEEENS_7variantIJidbcS6_EEEED2Ev, symObjAddr: 0x6D48, symBinAddr: 0x10000AA3C, symSize: 0x38 }
  - { offsetInCU: 0x10E30, offset: 0x10E30, size: 0x8, addend: 0x0, symName: __ZNSt3__117__hash_value_typeINS_12basic_stringIcNS_11char_traitsIcEENS_9allocatorIcEEEENS_7variantIJidbcS6_EEEE11__get_valueB8ue170006Ev, symObjAddr: 0x6D80, symBinAddr: 0x10000AA74, symSize: 0x24 }
  - { offsetInCU: 0x10E56, offset: 0x10E56, size: 0x8, addend: 0x0, symName: __ZNSt3__19allocatorINS_11__hash_nodeINS_17__hash_value_typeINS_12basic_stringIcNS_11char_traitsIcEENS0_IcEEEENS_7variantIJidbcS7_EEEEEPvEEE10deallocateB8ue170006EPSC_m, symObjAddr: 0x6DDC, symBinAddr: 0x10000AAD0, symSize: 0x50 }
  - { offsetInCU: 0x10E98, offset: 0x10E98, size: 0x8, addend: 0x0, symName: __ZNSt3__122__compressed_pair_elemINS_16__hash_node_baseIPNS_11__hash_nodeINS_17__hash_value_typeINS_12basic_stringIcNS_11char_traitsIcEENS_9allocatorIcEEEENS_7variantIJidbcS9_EEEEEPvEEEELi0ELb0EE5__getB8ue170006Ev, symObjAddr: 0x6E2C, symBinAddr: 0x10000AB20, symSize: 0x14 }
  - { offsetInCU: 0x10EBE, offset: 0x10EBE, size: 0x8, addend: 0x0, symName: __ZNSt3__110unique_ptrIA_PNS_16__hash_node_baseIPNS_11__hash_nodeINS_17__hash_value_typeINS_12basic_stringIcNS_11char_traitsIcEENS_9allocatorIcEEEENS_7variantIJidbcS9_EEEEEPvEEEENS_25__bucket_list_deallocatorINS7_ISH_EEEEED2B8ue170006Ev, symObjAddr: 0x6E40, symBinAddr: 0x10000AB34, symSize: 0x30 }
  - { offsetInCU: 0x10EE8, offset: 0x10EE8, size: 0x8, addend: 0x0, symName: __ZNSt3__110unique_ptrIA_PNS_16__hash_node_baseIPNS_11__hash_nodeINS_17__hash_value_typeINS_12basic_stringIcNS_11char_traitsIcEENS_9allocatorIcEEEENS_7variantIJidbcS9_EEEEEPvEEEENS_25__bucket_list_deallocatorINS7_ISH_EEEEE5resetB8ue170006EDn, symObjAddr: 0x6E70, symBinAddr: 0x10000AB64, symSize: 0xE0 }
  - { offsetInCU: 0x10F29, offset: 0x10F29, size: 0x8, addend: 0x0, symName: __ZNSt3__117__compressed_pairIPPNS_16__hash_node_baseIPNS_11__hash_nodeINS_17__hash_value_typeINS_12basic_stringIcNS_11char_traitsIcEENS_9allocatorIcEEEENS_7variantIJidbcS9_EEEEEPvEEEENS_25__bucket_list_deallocatorINS7_ISH_EEEEE5firstB8ue170006Ev, symObjAddr: 0x6F50, symBinAddr: 0x10000AC44, symSize: 0x24 }
  - { offsetInCU: 0x10F4F, offset: 0x10F4F, size: 0x8, addend: 0x0, symName: __ZNSt3__117__compressed_pairIPPNS_16__hash_node_baseIPNS_11__hash_nodeINS_17__hash_value_typeINS_12basic_stringIcNS_11char_traitsIcEENS_9allocatorIcEEEENS_7variantIJidbcS9_EEEEEPvEEEENS_25__bucket_list_deallocatorINS7_ISH_EEEEE6secondB8ue170006Ev, symObjAddr: 0x6F74, symBinAddr: 0x10000AC68, symSize: 0x28 }
  - { offsetInCU: 0x10F75, offset: 0x10F75, size: 0x8, addend: 0x0, symName: __ZNSt3__125__bucket_list_deallocatorINS_9allocatorIPNS_16__hash_node_baseIPNS_11__hash_nodeINS_17__hash_value_typeINS_12basic_stringIcNS_11char_traitsIcEENS1_IcEEEENS_7variantIJidbcS9_EEEEEPvEEEEEEEclB8ue170006EPSH_, symObjAddr: 0x6F9C, symBinAddr: 0x10000AC90, symSize: 0x98 }
  - { offsetInCU: 0x10FAA, offset: 0x10FAA, size: 0x8, addend: 0x0, symName: __ZNSt3__122__compressed_pair_elemIPPNS_16__hash_node_baseIPNS_11__hash_nodeINS_17__hash_value_typeINS_12basic_stringIcNS_11char_traitsIcEENS_9allocatorIcEEEENS_7variantIJidbcS9_EEEEEPvEEEELi0ELb0EE5__getB8ue170006Ev, symObjAddr: 0x7034, symBinAddr: 0x10000AD28, symSize: 0x14 }
  - { offsetInCU: 0x10FD0, offset: 0x10FD0, size: 0x8, addend: 0x0, symName: __ZNSt3__122__compressed_pair_elemINS_25__bucket_list_deallocatorINS_9allocatorIPNS_16__hash_node_baseIPNS_11__hash_nodeINS_17__hash_value_typeINS_12basic_stringIcNS_11char_traitsIcEENS2_IcEEEENS_7variantIJidbcSA_EEEEEPvEEEEEEEELi1ELb0EE5__getB8ue170006Ev, symObjAddr: 0x7048, symBinAddr: 0x10000AD3C, symSize: 0x14 }
  - { offsetInCU: 0x10FF6, offset: 0x10FF6, size: 0x8, addend: 0x0, symName: __ZNSt3__116allocator_traitsINS_9allocatorIPNS_16__hash_node_baseIPNS_11__hash_nodeINS_17__hash_value_typeINS_12basic_stringIcNS_11char_traitsIcEENS1_IcEEEENS_7variantIJidbcS9_EEEEEPvEEEEEEE10deallocateB8ue170006ERSI_PSH_m, symObjAddr: 0x705C, symBinAddr: 0x10000AD50, symSize: 0x34 }
  - { offsetInCU: 0x11038, offset: 0x11038, size: 0x8, addend: 0x0, symName: __ZNSt3__125__bucket_list_deallocatorINS_9allocatorIPNS_16__hash_node_baseIPNS_11__hash_nodeINS_17__hash_value_typeINS_12basic_stringIcNS_11char_traitsIcEENS1_IcEEEENS_7variantIJidbcS9_EEEEEPvEEEEEEE7__allocB8ue170006Ev, symObjAddr: 0x7090, symBinAddr: 0x10000AD84, symSize: 0x24 }
  - { offsetInCU: 0x1105E, offset: 0x1105E, size: 0x8, addend: 0x0, symName: __ZNSt3__125__bucket_list_deallocatorINS_9allocatorIPNS_16__hash_node_baseIPNS_11__hash_nodeINS_17__hash_value_typeINS_12basic_stringIcNS_11char_traitsIcEENS1_IcEEEENS_7variantIJidbcS9_EEEEEPvEEEEEEE4sizeB8ue170006Ev, symObjAddr: 0x70B4, symBinAddr: 0x10000ADA8, symSize: 0x24 }
  - { offsetInCU: 0x11084, offset: 0x11084, size: 0x8, addend: 0x0, symName: __ZNSt3__19allocatorIPNS_16__hash_node_baseIPNS_11__hash_nodeINS_17__hash_value_typeINS_12basic_stringIcNS_11char_traitsIcEENS0_IcEEEENS_7variantIJidbcS8_EEEEEPvEEEEE10deallocateB8ue170006EPSG_m, symObjAddr: 0x70D8, symBinAddr: 0x10000ADCC, symSize: 0x4C }
  - { offsetInCU: 0x110C6, offset: 0x110C6, size: 0x8, addend: 0x0, symName: __ZNSt3__117__compressed_pairImNS_9allocatorIPNS_16__hash_node_baseIPNS_11__hash_nodeINS_17__hash_value_typeINS_12basic_stringIcNS_11char_traitsIcEENS1_IcEEEENS_7variantIJidbcS9_EEEEEPvEEEEEEE6secondB8ue170006Ev, symObjAddr: 0x7124, symBinAddr: 0x10000AE18, symSize: 0x24 }
  - { offsetInCU: 0x110EC, offset: 0x110EC, size: 0x8, addend: 0x0, symName: __ZNSt3__122__compressed_pair_elemINS_9allocatorIPNS_16__hash_node_baseIPNS_11__hash_nodeINS_17__hash_value_typeINS_12basic_stringIcNS_11char_traitsIcEENS1_IcEEEENS_7variantIJidbcS9_EEEEEPvEEEEEELi1ELb1EE5__getB8ue170006Ev, symObjAddr: 0x7148, symBinAddr: 0x10000AE3C, symSize: 0x14 }
  - { offsetInCU: 0x11112, offset: 0x11112, size: 0x8, addend: 0x0, symName: __ZNSt3__117__compressed_pairImNS_9allocatorIPNS_16__hash_node_baseIPNS_11__hash_nodeINS_17__hash_value_typeINS_12basic_stringIcNS_11char_traitsIcEENS1_IcEEEENS_7variantIJidbcS9_EEEEEPvEEEEEEE5firstB8ue170006Ev, symObjAddr: 0x715C, symBinAddr: 0x10000AE50, symSize: 0x24 }
  - { offsetInCU: 0x11138, offset: 0x11138, size: 0x8, addend: 0x0, symName: __ZNSt3__122__compressed_pair_elemImLi0ELb0EE5__getB8ue170006Ev, symObjAddr: 0x7180, symBinAddr: 0x10000AE74, symSize: 0x14 }
  - { offsetInCU: 0x1115E, offset: 0x1115E, size: 0x8, addend: 0x0, symName: __ZNSt3__113unordered_mapINS_12basic_stringIcNS_11char_traitsIcEENS_9allocatorIcEEEENS_7variantIJidbcS6_EEENS_4hashIS6_EENS_8equal_toIS6_EENS4_INS_4pairIKS6_S8_EEEEEC2ERKSH_, symObjAddr: 0x7194, symBinAddr: 0x10000AE88, symSize: 0x3D0 }
  - { offsetInCU: 0x1119B, offset: 0x1119B, size: 0x8, addend: 0x0, symName: __ZNSt3__112__hash_tableINS_17__hash_value_typeINS_12basic_stringIcNS_11char_traitsIcEENS_9allocatorIcEEEENS_7variantIJidbcS7_EEEEENS_22__unordered_map_hasherIS7_SA_NS_4hashIS7_EENS_8equal_toIS7_EELb1EEENS_21__unordered_map_equalIS7_SA_SF_SD_Lb1EEENS5_ISA_EEEC1ERKSK_, symObjAddr: 0x7564, symBinAddr: 0x10000B258, symSize: 0x34 }
  - { offsetInCU: 0x111D6, offset: 0x111D6, size: 0x8, addend: 0x0, symName: __ZNSt3__112__hash_tableINS_17__hash_value_typeINS_12basic_stringIcNS_11char_traitsIcEENS_9allocatorIcEEEENS_7variantIJidbcS7_EEEEENS_22__unordered_map_hasherIS7_SA_NS_4hashIS7_EENS_8equal_toIS7_EELb1EEENS_21__unordered_map_equalIS7_SA_SF_SD_Lb1EEENS5_ISA_EEE15__rehash_uniqueB8ue170006Em, symObjAddr: 0x7598, symBinAddr: 0x10000B28C, symSize: 0x2C }
  - { offsetInCU: 0x1120B, offset: 0x1120B, size: 0x8, addend: 0x0, symName: __ZNKSt3__113unordered_mapINS_12basic_stringIcNS_11char_traitsIcEENS_9allocatorIcEEEENS_7variantIJidbcS6_EEENS_4hashIS6_EENS_8equal_toIS6_EENS4_INS_4pairIKS6_S8_EEEEE12bucket_countB8ue170006Ev, symObjAddr: 0x75C4, symBinAddr: 0x10000B2B8, symSize: 0x24 }
  - { offsetInCU: 0x11231, offset: 0x11231, size: 0x8, addend: 0x0, symName: __ZNSt3__113unordered_mapINS_12basic_stringIcNS_11char_traitsIcEENS_9allocatorIcEEEENS_7variantIJidbcS6_EEENS_4hashIS6_EENS_8equal_toIS6_EENS4_INS_4pairIKS6_S8_EEEEE6insertINS_25__hash_map_const_iteratorINS_21__hash_const_iteratorIPNS_11__hash_nodeINS_17__hash_value_typeIS6_S8_EEPvEEEEEEEEvT_ST_, symObjAddr: 0x75E8, symBinAddr: 0x10000B2DC, symSize: 0x310 }
  - { offsetInCU: 0x11289, offset: 0x11289, size: 0x8, addend: 0x0, symName: __ZNKSt3__113unordered_mapINS_12basic_stringIcNS_11char_traitsIcEENS_9allocatorIcEEEENS_7variantIJidbcS6_EEENS_4hashIS6_EENS_8equal_toIS6_EENS4_INS_4pairIKS6_S8_EEEEE5beginB8ue170006Ev, symObjAddr: 0x78F8, symBinAddr: 0x10000B5EC, symSize: 0x2B4 }
  - { offsetInCU: 0x112B0, offset: 0x112B0, size: 0x8, addend: 0x0, symName: __ZNKSt3__113unordered_mapINS_12basic_stringIcNS_11char_traitsIcEENS_9allocatorIcEEEENS_7variantIJidbcS6_EEENS_4hashIS6_EENS_8equal_toIS6_EENS4_INS_4pairIKS6_S8_EEEEE3endB8ue170006Ev, symObjAddr: 0x7BAC, symBinAddr: 0x10000B8A0, symSize: 0x2B4 }
  - { offsetInCU: 0x112D7, offset: 0x112D7, size: 0x8, addend: 0x0, symName: __ZNSt3__112__hash_tableINS_17__hash_value_typeINS_12basic_stringIcNS_11char_traitsIcEENS_9allocatorIcEEEENS_7variantIJidbcS7_EEEEENS_22__unordered_map_hasherIS7_SA_NS_4hashIS7_EENS_8equal_toIS7_EELb1EEENS_21__unordered_map_equalIS7_SA_SF_SD_Lb1EEENS5_ISA_EEEC2ERKSK_, symObjAddr: 0x7E60, symBinAddr: 0x10000BB54, symSize: 0x460 }
  - { offsetInCU: 0x1131E, offset: 0x1131E, size: 0x8, addend: 0x0, symName: __ZNSt3__116allocator_traitsINS_9allocatorIPNS_16__hash_node_baseIPNS_11__hash_nodeINS_17__hash_value_typeINS_12basic_stringIcNS_11char_traitsIcEENS1_IcEEEENS_7variantIJidbcS9_EEEEEPvEEEEEEE37select_on_container_copy_constructionB8ue170006ISI_vvEESI_RKSI_, symObjAddr: 0x82C0, symBinAddr: 0x10000BFB4, symSize: 0x10 }
  - { offsetInCU: 0x1134D, offset: 0x1134D, size: 0x8, addend: 0x0, symName: __ZNKSt3__110unique_ptrIA_PNS_16__hash_node_baseIPNS_11__hash_nodeINS_17__hash_value_typeINS_12basic_stringIcNS_11char_traitsIcEENS_9allocatorIcEEEENS_7variantIJidbcS9_EEEEEPvEEEENS_25__bucket_list_deallocatorINS7_ISH_EEEEE11get_deleterB8ue170006Ev, symObjAddr: 0x82D0, symBinAddr: 0x10000BFC4, symSize: 0x24 }
  - { offsetInCU: 0x11373, offset: 0x11373, size: 0x8, addend: 0x0, symName: __ZNKSt3__125__bucket_list_deallocatorINS_9allocatorIPNS_16__hash_node_baseIPNS_11__hash_nodeINS_17__hash_value_typeINS_12basic_stringIcNS_11char_traitsIcEENS1_IcEEEENS_7variantIJidbcS9_EEEEEPvEEEEEEE7__allocB8ue170006Ev, symObjAddr: 0x82F4, symBinAddr: 0x10000BFE8, symSize: 0x24 }
  - { offsetInCU: 0x11399, offset: 0x11399, size: 0x8, addend: 0x0, symName: __ZNSt3__125__bucket_list_deallocatorINS_9allocatorIPNS_16__hash_node_baseIPNS_11__hash_nodeINS_17__hash_value_typeINS_12basic_stringIcNS_11char_traitsIcEENS1_IcEEEENS_7variantIJidbcS9_EEEEEPvEEEEEEEC1B8ue170006ERKSI_m, symObjAddr: 0x8318, symBinAddr: 0x10000C00C, symSize: 0x3C }
  - { offsetInCU: 0x113E1, offset: 0x113E1, size: 0x8, addend: 0x0, symName: __ZNSt3__110unique_ptrIA_PNS_16__hash_node_baseIPNS_11__hash_nodeINS_17__hash_value_typeINS_12basic_stringIcNS_11char_traitsIcEENS_9allocatorIcEEEENS_7variantIJidbcS9_EEEEEPvEEEENS_25__bucket_list_deallocatorINS7_ISH_EEEEEC1B8ue170006ILb1EvEEDnNS_16__dependent_typeINS_27__unique_ptr_deleter_sfinaeISL_EEXT_EE20__good_rval_ref_typeE, symObjAddr: 0x8354, symBinAddr: 0x10000C048, symSize: 0x3C }
  - { offsetInCU: 0x1143B, offset: 0x1143B, size: 0x8, addend: 0x0, symName: __ZNSt3__116allocator_traitsINS_9allocatorINS_11__hash_nodeINS_17__hash_value_typeINS_12basic_stringIcNS_11char_traitsIcEENS1_IcEEEENS_7variantIJidbcS8_EEEEEPvEEEEE37select_on_container_copy_constructionB8ue170006ISE_vvEESE_RKSE_, symObjAddr: 0x8390, symBinAddr: 0x10000C084, symSize: 0x10 }
  - { offsetInCU: 0x1146A, offset: 0x1146A, size: 0x8, addend: 0x0, symName: __ZNKSt3__112__hash_tableINS_17__hash_value_typeINS_12basic_stringIcNS_11char_traitsIcEENS_9allocatorIcEEEENS_7variantIJidbcS7_EEEEENS_22__unordered_map_hasherIS7_SA_NS_4hashIS7_EENS_8equal_toIS7_EELb1EEENS_21__unordered_map_equalIS7_SA_SF_SD_Lb1EEENS5_ISA_EEE12__node_allocB8ue170006Ev, symObjAddr: 0x83A0, symBinAddr: 0x10000C094, symSize: 0x28 }
  - { offsetInCU: 0x11495, offset: 0x11495, size: 0x8, addend: 0x0, symName: __ZNSt3__117__compressed_pairINS_16__hash_node_baseIPNS_11__hash_nodeINS_17__hash_value_typeINS_12basic_stringIcNS_11char_traitsIcEENS_9allocatorIcEEEENS_7variantIJidbcS9_EEEEEPvEEEENS7_ISE_EEEC1B8ue170006INS_18__default_init_tagESH_EEOT_OT0_, symObjAddr: 0x83C8, symBinAddr: 0x10000C0BC, symSize: 0x3C }
  - { offsetInCU: 0x114ED, offset: 0x114ED, size: 0x8, addend: 0x0, symName: __ZNKSt3__112__hash_tableINS_17__hash_value_typeINS_12basic_stringIcNS_11char_traitsIcEENS_9allocatorIcEEEENS_7variantIJidbcS7_EEEEENS_22__unordered_map_hasherIS7_SA_NS_4hashIS7_EENS_8equal_toIS7_EELb1EEENS_21__unordered_map_equalIS7_SA_SF_SD_Lb1EEENS5_ISA_EEE13hash_functionB8ue170006Ev, symObjAddr: 0x8404, symBinAddr: 0x10000C0F8, symSize: 0x28 }
  - { offsetInCU: 0x11513, offset: 0x11513, size: 0x8, addend: 0x0, symName: __ZNSt3__117__compressed_pairImNS_22__unordered_map_hasherINS_12basic_stringIcNS_11char_traitsIcEENS_9allocatorIcEEEENS_17__hash_value_typeIS7_NS_7variantIJidbcS7_EEEEENS_4hashIS7_EENS_8equal_toIS7_EELb1EEEEC1B8ue170006IiRKSG_EEOT_OT0_, symObjAddr: 0x842C, symBinAddr: 0x10000C120, symSize: 0x3C }
  - { offsetInCU: 0x1156B, offset: 0x1156B, size: 0x8, addend: 0x0, symName: __ZNKSt3__117__compressed_pairIPPNS_16__hash_node_baseIPNS_11__hash_nodeINS_17__hash_value_typeINS_12basic_stringIcNS_11char_traitsIcEENS_9allocatorIcEEEENS_7variantIJidbcS9_EEEEEPvEEEENS_25__bucket_list_deallocatorINS7_ISH_EEEEE6secondB8ue170006Ev, symObjAddr: 0x8468, symBinAddr: 0x10000C15C, symSize: 0x28 }
  - { offsetInCU: 0x11591, offset: 0x11591, size: 0x8, addend: 0x0, symName: __ZNKSt3__122__compressed_pair_elemINS_25__bucket_list_deallocatorINS_9allocatorIPNS_16__hash_node_baseIPNS_11__hash_nodeINS_17__hash_value_typeINS_12basic_stringIcNS_11char_traitsIcEENS2_IcEEEENS_7variantIJidbcSA_EEEEEPvEEEEEEEELi1ELb0EE5__getB8ue170006Ev, symObjAddr: 0x8490, symBinAddr: 0x10000C184, symSize: 0x14 }
  - { offsetInCU: 0x115B7, offset: 0x115B7, size: 0x8, addend: 0x0, symName: __ZNKSt3__117__compressed_pairImNS_9allocatorIPNS_16__hash_node_baseIPNS_11__hash_nodeINS_17__hash_value_typeINS_12basic_stringIcNS_11char_traitsIcEENS1_IcEEEENS_7variantIJidbcS9_EEEEEPvEEEEEEE6secondB8ue170006Ev, symObjAddr: 0x84A4, symBinAddr: 0x10000C198, symSize: 0x24 }
  - { offsetInCU: 0x115DD, offset: 0x115DD, size: 0x8, addend: 0x0, symName: __ZNKSt3__122__compressed_pair_elemINS_9allocatorIPNS_16__hash_node_baseIPNS_11__hash_nodeINS_17__hash_value_typeINS_12basic_stringIcNS_11char_traitsIcEENS1_IcEEEENS_7variantIJidbcS9_EEEEEPvEEEEEELi1ELb1EE5__getB8ue170006Ev, symObjAddr: 0x84C8, symBinAddr: 0x10000C1BC, symSize: 0x14 }
  - { offsetInCU: 0x11603, offset: 0x11603, size: 0x8, addend: 0x0, symName: __ZNSt3__125__bucket_list_deallocatorINS_9allocatorIPNS_16__hash_node_baseIPNS_11__hash_nodeINS_17__hash_value_typeINS_12basic_stringIcNS_11char_traitsIcEENS1_IcEEEENS_7variantIJidbcS9_EEEEEPvEEEEEEEC2B8ue170006ERKSI_m, symObjAddr: 0x84DC, symBinAddr: 0x10000C1D0, symSize: 0x214 }
  - { offsetInCU: 0x11651, offset: 0x11651, size: 0x8, addend: 0x0, symName: __ZNSt3__117__compressed_pairImNS_9allocatorIPNS_16__hash_node_baseIPNS_11__hash_nodeINS_17__hash_value_typeINS_12basic_stringIcNS_11char_traitsIcEENS1_IcEEEENS_7variantIJidbcS9_EEEEEPvEEEEEEEC1B8ue170006IRmRKSI_EEOT_OT0_, symObjAddr: 0x86F0, symBinAddr: 0x10000C3E4, symSize: 0x3C }
  - { offsetInCU: 0x116A9, offset: 0x116A9, size: 0x8, addend: 0x0, symName: __ZNSt3__117__compressed_pairImNS_9allocatorIPNS_16__hash_node_baseIPNS_11__hash_nodeINS_17__hash_value_typeINS_12basic_stringIcNS_11char_traitsIcEENS1_IcEEEENS_7variantIJidbcS9_EEEEEPvEEEEEEEC2B8ue170006IRmRKSI_EEOT_OT0_, symObjAddr: 0x872C, symBinAddr: 0x10000C420, symSize: 0x44 }
  - { offsetInCU: 0x11701, offset: 0x11701, size: 0x8, addend: 0x0, symName: __ZNSt3__122__compressed_pair_elemImLi0ELb0EEC2B8ue170006IRmvEEOT_, symObjAddr: 0x8770, symBinAddr: 0x10000C464, symSize: 0xB0 }
  - { offsetInCU: 0x11743, offset: 0x11743, size: 0x8, addend: 0x0, symName: __ZNSt3__122__compressed_pair_elemINS_9allocatorIPNS_16__hash_node_baseIPNS_11__hash_nodeINS_17__hash_value_typeINS_12basic_stringIcNS_11char_traitsIcEENS1_IcEEEENS_7variantIJidbcS9_EEEEEPvEEEEEELi1ELb1EEC2B8ue170006IRKSI_vEEOT_, symObjAddr: 0x8820, symBinAddr: 0x10000C514, symSize: 0x18 }
  - { offsetInCU: 0x11785, offset: 0x11785, size: 0x8, addend: 0x0, symName: __ZNSt3__110unique_ptrIA_PNS_16__hash_node_baseIPNS_11__hash_nodeINS_17__hash_value_typeINS_12basic_stringIcNS_11char_traitsIcEENS_9allocatorIcEEEENS_7variantIJidbcS9_EEEEEPvEEEENS_25__bucket_list_deallocatorINS7_ISH_EEEEEC2B8ue170006ILb1EvEEDnNS_16__dependent_typeINS_27__unique_ptr_deleter_sfinaeISL_EEXT_EE20__good_rval_ref_typeE, symObjAddr: 0x8838, symBinAddr: 0x10000C52C, symSize: 0x22C }
  - { offsetInCU: 0x117DD, offset: 0x117DD, size: 0x8, addend: 0x0, symName: __ZNSt3__117__compressed_pairIPPNS_16__hash_node_baseIPNS_11__hash_nodeINS_17__hash_value_typeINS_12basic_stringIcNS_11char_traitsIcEENS_9allocatorIcEEEENS_7variantIJidbcS9_EEEEEPvEEEENS_25__bucket_list_deallocatorINS7_ISH_EEEEEC1B8ue170006IDnSL_EEOT_OT0_, symObjAddr: 0x8A64, symBinAddr: 0x10000C758, symSize: 0x3C }
  - { offsetInCU: 0x11835, offset: 0x11835, size: 0x8, addend: 0x0, symName: __ZNSt3__117__compressed_pairIPPNS_16__hash_node_baseIPNS_11__hash_nodeINS_17__hash_value_typeINS_12basic_stringIcNS_11char_traitsIcEENS_9allocatorIcEEEENS_7variantIJidbcS9_EEEEEPvEEEENS_25__bucket_list_deallocatorINS7_ISH_EEEEEC2B8ue170006IDnSL_EEOT_OT0_, symObjAddr: 0x8AA0, symBinAddr: 0x10000C794, symSize: 0x48 }
  - { offsetInCU: 0x1188D, offset: 0x1188D, size: 0x8, addend: 0x0, symName: __ZNSt3__122__compressed_pair_elemIPPNS_16__hash_node_baseIPNS_11__hash_nodeINS_17__hash_value_typeINS_12basic_stringIcNS_11char_traitsIcEENS_9allocatorIcEEEENS_7variantIJidbcS9_EEEEEPvEEEELi0ELb0EEC2B8ue170006IDnvEEOT_, symObjAddr: 0x8AE8, symBinAddr: 0x10000C7DC, symSize: 0x64 }
  - { offsetInCU: 0x118CF, offset: 0x118CF, size: 0x8, addend: 0x0, symName: __ZNSt3__122__compressed_pair_elemINS_25__bucket_list_deallocatorINS_9allocatorIPNS_16__hash_node_baseIPNS_11__hash_nodeINS_17__hash_value_typeINS_12basic_stringIcNS_11char_traitsIcEENS2_IcEEEENS_7variantIJidbcSA_EEEEEPvEEEEEEEELi1ELb0EEC2B8ue170006ISK_vEEOT_, symObjAddr: 0x8B4C, symBinAddr: 0x10000C840, symSize: 0x34 }
  - { offsetInCU: 0x11911, offset: 0x11911, size: 0x8, addend: 0x0, symName: __ZNSt3__125__bucket_list_deallocatorINS_9allocatorIPNS_16__hash_node_baseIPNS_11__hash_nodeINS_17__hash_value_typeINS_12basic_stringIcNS_11char_traitsIcEENS1_IcEEEENS_7variantIJidbcS9_EEEEEPvEEEEEEEC1B8ue170006EOSJ_, symObjAddr: 0x8B80, symBinAddr: 0x10000C874, symSize: 0x34 }
  - { offsetInCU: 0x1194A, offset: 0x1194A, size: 0x8, addend: 0x0, symName: __ZNSt3__125__bucket_list_deallocatorINS_9allocatorIPNS_16__hash_node_baseIPNS_11__hash_nodeINS_17__hash_value_typeINS_12basic_stringIcNS_11char_traitsIcEENS1_IcEEEENS_7variantIJidbcS9_EEEEEPvEEEEEEEC2B8ue170006EOSJ_, symObjAddr: 0x8BB4, symBinAddr: 0x10000C8A8, symSize: 0x88 }
  - { offsetInCU: 0x11983, offset: 0x11983, size: 0x8, addend: 0x0, symName: __ZNKSt3__117__compressed_pairINS_16__hash_node_baseIPNS_11__hash_nodeINS_17__hash_value_typeINS_12basic_stringIcNS_11char_traitsIcEENS_9allocatorIcEEEENS_7variantIJidbcS9_EEEEEPvEEEENS7_ISE_EEE6secondB8ue170006Ev, symObjAddr: 0x8C3C, symBinAddr: 0x10000C930, symSize: 0x24 }
  - { offsetInCU: 0x119A9, offset: 0x119A9, size: 0x8, addend: 0x0, symName: __ZNKSt3__122__compressed_pair_elemINS_9allocatorINS_11__hash_nodeINS_17__hash_value_typeINS_12basic_stringIcNS_11char_traitsIcEENS1_IcEEEENS_7variantIJidbcS8_EEEEEPvEEEELi1ELb1EE5__getB8ue170006Ev, symObjAddr: 0x8C60, symBinAddr: 0x10000C954, symSize: 0x14 }
  - { offsetInCU: 0x119CF, offset: 0x119CF, size: 0x8, addend: 0x0, symName: __ZNSt3__117__compressed_pairINS_16__hash_node_baseIPNS_11__hash_nodeINS_17__hash_value_typeINS_12basic_stringIcNS_11char_traitsIcEENS_9allocatorIcEEEENS_7variantIJidbcS9_EEEEEPvEEEENS7_ISE_EEEC2B8ue170006INS_18__default_init_tagESH_EEOT_OT0_, symObjAddr: 0x8C74, symBinAddr: 0x10000C968, symSize: 0x40 }
  - { offsetInCU: 0x11A27, offset: 0x11A27, size: 0x8, addend: 0x0, symName: __ZNSt3__122__compressed_pair_elemINS_16__hash_node_baseIPNS_11__hash_nodeINS_17__hash_value_typeINS_12basic_stringIcNS_11char_traitsIcEENS_9allocatorIcEEEENS_7variantIJidbcS9_EEEEEPvEEEELi0ELb0EEC2B8ue170006ENS_18__default_init_tagE, symObjAddr: 0x8CB4, symBinAddr: 0x10000C9A8, symSize: 0x2C }
  - { offsetInCU: 0x11A5C, offset: 0x11A5C, size: 0x8, addend: 0x0, symName: __ZNSt3__122__compressed_pair_elemINS_9allocatorINS_11__hash_nodeINS_17__hash_value_typeINS_12basic_stringIcNS_11char_traitsIcEENS1_IcEEEENS_7variantIJidbcS8_EEEEEPvEEEELi1ELb1EEC2B8ue170006ISE_vEEOT_, symObjAddr: 0x8CE0, symBinAddr: 0x10000C9D4, symSize: 0x18 }
  - { offsetInCU: 0x11A9E, offset: 0x11A9E, size: 0x8, addend: 0x0, symName: __ZNKSt3__117__compressed_pairImNS_22__unordered_map_hasherINS_12basic_stringIcNS_11char_traitsIcEENS_9allocatorIcEEEENS_17__hash_value_typeIS7_NS_7variantIJidbcS7_EEEEENS_4hashIS7_EENS_8equal_toIS7_EELb1EEEE6secondB8ue170006Ev, symObjAddr: 0x8CF8, symBinAddr: 0x10000C9EC, symSize: 0x24 }
  - { offsetInCU: 0x11AC4, offset: 0x11AC4, size: 0x8, addend: 0x0, symName: __ZNKSt3__122__compressed_pair_elemINS_22__unordered_map_hasherINS_12basic_stringIcNS_11char_traitsIcEENS_9allocatorIcEEEENS_17__hash_value_typeIS7_NS_7variantIJidbcS7_EEEEENS_4hashIS7_EENS_8equal_toIS7_EELb1EEELi1ELb1EE5__getB8ue170006Ev, symObjAddr: 0x8D1C, symBinAddr: 0x10000CA10, symSize: 0x14 }
  - { offsetInCU: 0x11AEA, offset: 0x11AEA, size: 0x8, addend: 0x0, symName: __ZNSt3__117__compressed_pairImNS_22__unordered_map_hasherINS_12basic_stringIcNS_11char_traitsIcEENS_9allocatorIcEEEENS_17__hash_value_typeIS7_NS_7variantIJidbcS7_EEEEENS_4hashIS7_EENS_8equal_toIS7_EELb1EEEEC2B8ue170006IiRKSG_EEOT_OT0_, symObjAddr: 0x8D30, symBinAddr: 0x10000CA24, symSize: 0x44 }
  - { offsetInCU: 0x11B42, offset: 0x11B42, size: 0x8, addend: 0x0, symName: __ZNSt3__122__compressed_pair_elemINS_22__unordered_map_hasherINS_12basic_stringIcNS_11char_traitsIcEENS_9allocatorIcEEEENS_17__hash_value_typeIS7_NS_7variantIJidbcS7_EEEEENS_4hashIS7_EENS_8equal_toIS7_EELb1EEELi1ELb1EEC2B8ue170006IRKSG_vEEOT_, symObjAddr: 0x8D74, symBinAddr: 0x10000CA68, symSize: 0x18 }
  - { offsetInCU: 0x11B84, offset: 0x11B84, size: 0x8, addend: 0x0, symName: __ZNSt3__112__hash_tableINS_17__hash_value_typeINS_12basic_stringIcNS_11char_traitsIcEENS_9allocatorIcEEEENS_7variantIJidbcS7_EEEEENS_22__unordered_map_hasherIS7_SA_NS_4hashIS7_EENS_8equal_toIS7_EELb1EEENS_21__unordered_map_equalIS7_SA_SF_SD_Lb1EEENS5_ISA_EEE8__rehashILb1EEEvm, symObjAddr: 0x8D8C, symBinAddr: 0x10000CA80, symSize: 0x784 }
  - { offsetInCU: 0x11BDA, offset: 0x11BDA, size: 0x8, addend: 0x0, symName: __ZNKSt3__112__hash_tableINS_17__hash_value_typeINS_12basic_stringIcNS_11char_traitsIcEENS_9allocatorIcEEEENS_7variantIJidbcS7_EEEEENS_22__unordered_map_hasherIS7_SA_NS_4hashIS7_EENS_8equal_toIS7_EELb1EEENS_21__unordered_map_equalIS7_SA_SF_SD_Lb1EEENS5_ISA_EEE12bucket_countB8ue170006Ev, symObjAddr: 0x9510, symBinAddr: 0x10000D204, symSize: 0x28 }
  - { offsetInCU: 0x11C00, offset: 0x11C00, size: 0x8, addend: 0x0, symName: __ZNSt3__112__hash_tableINS_17__hash_value_typeINS_12basic_stringIcNS_11char_traitsIcEENS_9allocatorIcEEEENS_7variantIJidbcS7_EEEEENS_22__unordered_map_hasherIS7_SA_NS_4hashIS7_EENS_8equal_toIS7_EELb1EEENS_21__unordered_map_equalIS7_SA_SF_SD_Lb1EEENS5_ISA_EEE11__do_rehashILb1EEEvm, symObjAddr: 0x9538, symBinAddr: 0x10000D22C, symSize: 0x5BC }
  - { offsetInCU: 0x11CE4, offset: 0x11CE4, size: 0x8, addend: 0x0, symName: __Z4ceilB8ue170006f, symObjAddr: 0x9BDC, symBinAddr: 0x10000D8D0, symSize: 0x18 }
  - { offsetInCU: 0x11D13, offset: 0x11D13, size: 0x8, addend: 0x0, symName: __ZNSt3__112__hash_tableINS_17__hash_value_typeINS_12basic_stringIcNS_11char_traitsIcEENS_9allocatorIcEEEENS_7variantIJidbcS7_EEEEENS_22__unordered_map_hasherIS7_SA_NS_4hashIS7_EENS_8equal_toIS7_EELb1EEENS_21__unordered_map_equalIS7_SA_SF_SD_Lb1EEENS5_ISA_EEE4sizeB8ue170006Ev, symObjAddr: 0x9BF4, symBinAddr: 0x10000D8E8, symSize: 0x28 }
  - { offsetInCU: 0x11D39, offset: 0x11D39, size: 0x8, addend: 0x0, symName: __ZNSt3__112__hash_tableINS_17__hash_value_typeINS_12basic_stringIcNS_11char_traitsIcEENS_9allocatorIcEEEENS_7variantIJidbcS7_EEEEENS_22__unordered_map_hasherIS7_SA_NS_4hashIS7_EENS_8equal_toIS7_EELb1EEENS_21__unordered_map_equalIS7_SA_SF_SD_Lb1EEENS5_ISA_EEE15max_load_factorB8ue170006Ev, symObjAddr: 0x9C1C, symBinAddr: 0x10000D910, symSize: 0x28 }
  - { offsetInCU: 0x11D5F, offset: 0x11D5F, size: 0x8, addend: 0x0, symName: __ZNKSt3__125__bucket_list_deallocatorINS_9allocatorIPNS_16__hash_node_baseIPNS_11__hash_nodeINS_17__hash_value_typeINS_12basic_stringIcNS_11char_traitsIcEENS1_IcEEEENS_7variantIJidbcS9_EEEEEPvEEEEEEE4sizeB8ue170006Ev, symObjAddr: 0x9C44, symBinAddr: 0x10000D938, symSize: 0x6C }
  - { offsetInCU: 0x11D85, offset: 0x11D85, size: 0x8, addend: 0x0, symName: __ZNKSt3__117__compressed_pairImNS_9allocatorIPNS_16__hash_node_baseIPNS_11__hash_nodeINS_17__hash_value_typeINS_12basic_stringIcNS_11char_traitsIcEENS1_IcEEEENS_7variantIJidbcS9_EEEEEPvEEEEEEE5firstB8ue170006Ev, symObjAddr: 0x9CB0, symBinAddr: 0x10000D9A4, symSize: 0x24 }
  - { offsetInCU: 0x11DAB, offset: 0x11DAB, size: 0x8, addend: 0x0, symName: __ZNKSt3__122__compressed_pair_elemImLi0ELb0EE5__getB8ue170006Ev, symObjAddr: 0x9CD4, symBinAddr: 0x10000D9C8, symSize: 0x14 }
  - { offsetInCU: 0x11DD1, offset: 0x11DD1, size: 0x8, addend: 0x0, symName: __ZNSt3__110unique_ptrIA_PNS_16__hash_node_baseIPNS_11__hash_nodeINS_17__hash_value_typeINS_12basic_stringIcNS_11char_traitsIcEENS_9allocatorIcEEEENS_7variantIJidbcS9_EEEEEPvEEEENS_25__bucket_list_deallocatorINS7_ISH_EEEEE11get_deleterB8ue170006Ev, symObjAddr: 0x9CE8, symBinAddr: 0x10000D9DC, symSize: 0x24 }
  - { offsetInCU: 0x11DF7, offset: 0x11DF7, size: 0x8, addend: 0x0, symName: __ZNSt3__110unique_ptrIA_PNS_16__hash_node_baseIPNS_11__hash_nodeINS_17__hash_value_typeINS_12basic_stringIcNS_11char_traitsIcEENS_9allocatorIcEEEENS_7variantIJidbcS9_EEEEEPvEEEENS_25__bucket_list_deallocatorINS7_ISH_EEEEE5resetB8ue170006IPSH_EENS_9enable_ifIXsr28_CheckArrayPointerConversionIT_EE5valueEvE4typeESQ_, symObjAddr: 0x9D0C, symBinAddr: 0x10000DA00, symSize: 0xEC }
  - { offsetInCU: 0x11E44, offset: 0x11E44, size: 0x8, addend: 0x0, symName: __ZNSt3__116allocator_traitsINS_9allocatorIPNS_16__hash_node_baseIPNS_11__hash_nodeINS_17__hash_value_typeINS_12basic_stringIcNS_11char_traitsIcEENS1_IcEEEENS_7variantIJidbcS9_EEEEEPvEEEEEEE8allocateB8ue170006ERSI_m, symObjAddr: 0x9DF8, symBinAddr: 0x10000DAEC, symSize: 0x2C }
  - { offsetInCU: 0x11E77, offset: 0x11E77, size: 0x8, addend: 0x0, symName: __ZNKSt3__110unique_ptrIA_PNS_16__hash_node_baseIPNS_11__hash_nodeINS_17__hash_value_typeINS_12basic_stringIcNS_11char_traitsIcEENS_9allocatorIcEEEENS_7variantIJidbcS9_EEEEEPvEEEENS_25__bucket_list_deallocatorINS7_ISH_EEEEEixB8ue170006Em, symObjAddr: 0x9E24, symBinAddr: 0x10000DB18, symSize: 0x78 }
  - { offsetInCU: 0x11EAC, offset: 0x11EAC, size: 0x8, addend: 0x0, symName: __ZNSt3__116__hash_node_baseIPNS_11__hash_nodeINS_17__hash_value_typeINS_12basic_stringIcNS_11char_traitsIcEENS_9allocatorIcEEEENS_7variantIJidbcS8_EEEEEPvEEE5__ptrB8ue170006Ev, symObjAddr: 0x9E9C, symBinAddr: 0x10000DB90, symSize: 0x24 }
  - { offsetInCU: 0x11ED2, offset: 0x11ED2, size: 0x8, addend: 0x0, symName: __ZNKSt3__116__hash_node_baseIPNS_11__hash_nodeINS_17__hash_value_typeINS_12basic_stringIcNS_11char_traitsIcEENS_9allocatorIcEEEENS_7variantIJidbcS8_EEEEEPvEEE6__hashB8ue170006Ev, symObjAddr: 0x9F58, symBinAddr: 0x10000DC4C, symSize: 0x64 }
  - { offsetInCU: 0x11EF8, offset: 0x11EF8, size: 0x8, addend: 0x0, symName: __ZNSt3__19allocatorIPNS_16__hash_node_baseIPNS_11__hash_nodeINS_17__hash_value_typeINS_12basic_stringIcNS_11char_traitsIcEENS0_IcEEEENS_7variantIJidbcS8_EEEEEPvEEEEE8allocateB8ue170006Em, symObjAddr: 0x9FBC, symBinAddr: 0x10000DCB0, symSize: 0x5C }
  - { offsetInCU: 0x11F2C, offset: 0x11F2C, size: 0x8, addend: 0x0, symName: __ZNSt3__116allocator_traitsINS_9allocatorIPNS_16__hash_node_baseIPNS_11__hash_nodeINS_17__hash_value_typeINS_12basic_stringIcNS_11char_traitsIcEENS1_IcEEEENS_7variantIJidbcS9_EEEEEPvEEEEEEE8max_sizeB8ue170006ISI_vvEEmRKSI_, symObjAddr: 0xA018, symBinAddr: 0x10000DD0C, symSize: 0x28 }
  - { offsetInCU: 0x11F58, offset: 0x11F58, size: 0x8, addend: 0x0, symName: __ZNSt3__114numeric_limitsImE3maxB8ue170006Ev, symObjAddr: 0xA0D8, symBinAddr: 0x10000DDCC, symSize: 0x14 }
  - { offsetInCU: 0x11F6C, offset: 0x11F6C, size: 0x8, addend: 0x0, symName: __ZNSt3__123__libcpp_numeric_limitsImLb1EE3maxB8ue170006Ev, symObjAddr: 0xA0EC, symBinAddr: 0x10000DDE0, symSize: 0x8 }
  - { offsetInCU: 0x11F80, offset: 0x11F80, size: 0x8, addend: 0x0, symName: __ZNKSt3__117__compressed_pairIPPNS_16__hash_node_baseIPNS_11__hash_nodeINS_17__hash_value_typeINS_12basic_stringIcNS_11char_traitsIcEENS_9allocatorIcEEEENS_7variantIJidbcS9_EEEEEPvEEEENS_25__bucket_list_deallocatorINS7_ISH_EEEEE5firstB8ue170006Ev, symObjAddr: 0xA144, symBinAddr: 0x10000DE38, symSize: 0x24 }
  - { offsetInCU: 0x11FA6, offset: 0x11FA6, size: 0x8, addend: 0x0, symName: __ZNKSt3__122__compressed_pair_elemIPPNS_16__hash_node_baseIPNS_11__hash_nodeINS_17__hash_value_typeINS_12basic_stringIcNS_11char_traitsIcEENS_9allocatorIcEEEENS_7variantIJidbcS9_EEEEEPvEEEELi0ELb0EE5__getB8ue170006Ev, symObjAddr: 0xA168, symBinAddr: 0x10000DE5C, symSize: 0x14 }
  - { offsetInCU: 0x11FCC, offset: 0x11FCC, size: 0x8, addend: 0x0, symName: __ZNSt3__117__compressed_pairImNS_22__unordered_map_hasherINS_12basic_stringIcNS_11char_traitsIcEENS_9allocatorIcEEEENS_17__hash_value_typeIS7_NS_7variantIJidbcS7_EEEEENS_4hashIS7_EENS_8equal_toIS7_EELb1EEEE5firstB8ue170006Ev, symObjAddr: 0xA380, symBinAddr: 0x10000E074, symSize: 0x24 }
  - { offsetInCU: 0x11FF2, offset: 0x11FF2, size: 0x8, addend: 0x0, symName: __ZNSt3__117__compressed_pairIfNS_21__unordered_map_equalINS_12basic_stringIcNS_11char_traitsIcEENS_9allocatorIcEEEENS_17__hash_value_typeIS7_NS_7variantIJidbcS7_EEEEENS_8equal_toIS7_EENS_4hashIS7_EELb1EEEE5firstB8ue170006Ev, symObjAddr: 0xA3A4, symBinAddr: 0x10000E098, symSize: 0x24 }
  - { offsetInCU: 0x12018, offset: 0x12018, size: 0x8, addend: 0x0, symName: __ZNSt3__122__compressed_pair_elemIfLi0ELb0EE5__getB8ue170006Ev, symObjAddr: 0xA3C8, symBinAddr: 0x10000E0BC, symSize: 0x14 }
  - { offsetInCU: 0x1203E, offset: 0x1203E, size: 0x8, addend: 0x0, symName: __ZNSt3__112__hash_tableINS_17__hash_value_typeINS_12basic_stringIcNS_11char_traitsIcEENS_9allocatorIcEEEENS_7variantIJidbcS7_EEEEENS_22__unordered_map_hasherIS7_SA_NS_4hashIS7_EENS_8equal_toIS7_EELb1EEENS_21__unordered_map_equalIS7_SA_SF_SD_Lb1EEENS5_ISA_EEE15__insert_uniqueB8ue170006ERKNS_4pairIKS7_S9_EE, symObjAddr: 0xA40C, symBinAddr: 0x10000E100, symSize: 0x238 }
  - { offsetInCU: 0x12075, offset: 0x12075, size: 0x8, addend: 0x0, symName: __ZNKSt3__125__hash_map_const_iteratorINS_21__hash_const_iteratorIPNS_11__hash_nodeINS_17__hash_value_typeINS_12basic_stringIcNS_11char_traitsIcEENS_9allocatorIcEEEENS_7variantIJidbcS9_EEEEEPvEEEEEdeB8ue170006Ev, symObjAddr: 0xA644, symBinAddr: 0x10000E338, symSize: 0x28 }
  - { offsetInCU: 0x1209B, offset: 0x1209B, size: 0x8, addend: 0x0, symName: __ZNSt3__125__hash_map_const_iteratorINS_21__hash_const_iteratorIPNS_11__hash_nodeINS_17__hash_value_typeINS_12basic_stringIcNS_11char_traitsIcEENS_9allocatorIcEEEENS_7variantIJidbcS9_EEEEEPvEEEEEppB8ue170006Ev, symObjAddr: 0xA66C, symBinAddr: 0x10000E360, symSize: 0x2C }
  - { offsetInCU: 0x120C1, offset: 0x120C1, size: 0x8, addend: 0x0, symName: __ZNSt3__112__hash_tableINS_17__hash_value_typeINS_12basic_stringIcNS_11char_traitsIcEENS_9allocatorIcEEEENS_7variantIJidbcS7_EEEEENS_22__unordered_map_hasherIS7_SA_NS_4hashIS7_EENS_8equal_toIS7_EELb1EEENS_21__unordered_map_equalIS7_SA_SF_SD_Lb1EEENS5_ISA_EEE25__emplace_unique_key_argsIS7_JRKNS_4pairIKS7_S9_EEEEENSM_INS_15__hash_iteratorIPNS_11__hash_nodeISA_PvEEEEbEERKT_DpOT0_, symObjAddr: 0xA750, symBinAddr: 0x10000E444, symSize: 0xDD0 }
  - { offsetInCU: 0x121AC, offset: 0x121AC, size: 0x8, addend: 0x0, symName: __ZNSt3__122__hash_key_value_typesINS_17__hash_value_typeINS_12basic_stringIcNS_11char_traitsIcEENS_9allocatorIcEEEENS_7variantIJidbcS7_EEEEEE9__get_keyB8ue170006ERKNS_4pairIKS7_S9_EE, symObjAddr: 0xB520, symBinAddr: 0x10000F214, symSize: 0x14 }
  - { offsetInCU: 0x121CF, offset: 0x121CF, size: 0x8, addend: 0x0, symName: __ZNSt3__112__hash_tableINS_17__hash_value_typeINS_12basic_stringIcNS_11char_traitsIcEENS_9allocatorIcEEEENS_7variantIJidbcS7_EEEEENS_22__unordered_map_hasherIS7_SA_NS_4hashIS7_EENS_8equal_toIS7_EELb1EEENS_21__unordered_map_equalIS7_SA_SF_SD_Lb1EEENS5_ISA_EEE13hash_functionB8ue170006Ev, symObjAddr: 0xB534, symBinAddr: 0x10000F228, symSize: 0x28 }
  - { offsetInCU: 0x121F5, offset: 0x121F5, size: 0x8, addend: 0x0, symName: __ZNKSt3__122__unordered_map_hasherINS_12basic_stringIcNS_11char_traitsIcEENS_9allocatorIcEEEENS_17__hash_value_typeIS6_NS_7variantIJidbcS6_EEEEENS_4hashIS6_EENS_8equal_toIS6_EELb1EEclB8ue170006ERKS6_, symObjAddr: 0xB55C, symBinAddr: 0x10000F250, symSize: 0x2C }
  - { offsetInCU: 0x1222A, offset: 0x1222A, size: 0x8, addend: 0x0, symName: __ZNSt3__112__hash_tableINS_17__hash_value_typeINS_12basic_stringIcNS_11char_traitsIcEENS_9allocatorIcEEEENS_7variantIJidbcS7_EEEEENS_22__unordered_map_hasherIS7_SA_NS_4hashIS7_EENS_8equal_toIS7_EELb1EEENS_21__unordered_map_equalIS7_SA_SF_SD_Lb1EEENS5_ISA_EEE6key_eqB8ue170006Ev, symObjAddr: 0xB588, symBinAddr: 0x10000F27C, symSize: 0x28 }
  - { offsetInCU: 0x12250, offset: 0x12250, size: 0x8, addend: 0x0, symName: __ZNKSt3__121__unordered_map_equalINS_12basic_stringIcNS_11char_traitsIcEENS_9allocatorIcEEEENS_17__hash_value_typeIS6_NS_7variantIJidbcS6_EEEEENS_8equal_toIS6_EENS_4hashIS6_EELb1EEclB8ue170006ERKSA_RKS6_, symObjAddr: 0xB5B0, symBinAddr: 0x10000F2A4, symSize: 0x48 }
  - { offsetInCU: 0x12294, offset: 0x12294, size: 0x8, addend: 0x0, symName: __ZNSt3__112__hash_tableINS_17__hash_value_typeINS_12basic_stringIcNS_11char_traitsIcEENS_9allocatorIcEEEENS_7variantIJidbcS7_EEEEENS_22__unordered_map_hasherIS7_SA_NS_4hashIS7_EENS_8equal_toIS7_EELb1EEENS_21__unordered_map_equalIS7_SA_SF_SD_Lb1EEENS5_ISA_EEE21__construct_node_hashIRKNS_4pairIKS7_S9_EEJEEENS_10unique_ptrINS_11__hash_nodeISA_PvEENS_22__hash_node_destructorINS5_ISU_EEEEEEmOT_DpOT0_, symObjAddr: 0xB5F8, symBinAddr: 0x10000F2EC, symSize: 0x418 }
  - { offsetInCU: 0x1230C, offset: 0x1230C, size: 0x8, addend: 0x0, symName: __ZNKSt3__110unique_ptrINS_11__hash_nodeINS_17__hash_value_typeINS_12basic_stringIcNS_11char_traitsIcEENS_9allocatorIcEEEENS_7variantIJidbcS8_EEEEEPvEENS_22__hash_node_destructorINS6_ISD_EEEEEptB8ue170006Ev, symObjAddr: 0xBA10, symBinAddr: 0x10000F704, symSize: 0x6C }
  - { offsetInCU: 0x12332, offset: 0x12332, size: 0x8, addend: 0x0, symName: __ZNKSt3__110unique_ptrINS_11__hash_nodeINS_17__hash_value_typeINS_12basic_stringIcNS_11char_traitsIcEENS_9allocatorIcEEEENS_7variantIJidbcS8_EEEEEPvEENS_22__hash_node_destructorINS6_ISD_EEEEE3getB8ue170006Ev, symObjAddr: 0xBA7C, symBinAddr: 0x10000F770, symSize: 0x6C }
  - { offsetInCU: 0x12358, offset: 0x12358, size: 0x8, addend: 0x0, symName: __ZNSt3__110unique_ptrINS_11__hash_nodeINS_17__hash_value_typeINS_12basic_stringIcNS_11char_traitsIcEENS_9allocatorIcEEEENS_7variantIJidbcS8_EEEEEPvEENS_22__hash_node_destructorINS6_ISD_EEEEE7releaseB8ue170006Ev, symObjAddr: 0xBAE8, symBinAddr: 0x10000F7DC, symSize: 0xB8 }
  - { offsetInCU: 0x1238D, offset: 0x1238D, size: 0x8, addend: 0x0, symName: __ZNSt3__110unique_ptrINS_11__hash_nodeINS_17__hash_value_typeINS_12basic_stringIcNS_11char_traitsIcEENS_9allocatorIcEEEENS_7variantIJidbcS8_EEEEEPvEENS_22__hash_node_destructorINS6_ISD_EEEEED1B8ue170006Ev, symObjAddr: 0xBBA0, symBinAddr: 0x10000F894, symSize: 0x2C }
  - { offsetInCU: 0x123B7, offset: 0x123B7, size: 0x8, addend: 0x0, symName: __ZNSt3__115__hash_iteratorIPNS_11__hash_nodeINS_17__hash_value_typeINS_12basic_stringIcNS_11char_traitsIcEENS_9allocatorIcEEEENS_7variantIJidbcS8_EEEEEPvEEEC1B8ue170006EPNS_16__hash_node_baseISE_EE, symObjAddr: 0xBBCC, symBinAddr: 0x10000F8C0, symSize: 0x34 }
  - { offsetInCU: 0x123FA, offset: 0x123FA, size: 0x8, addend: 0x0, symName: __ZNSt3__14pairINS_15__hash_iteratorIPNS_11__hash_nodeINS_17__hash_value_typeINS_12basic_stringIcNS_11char_traitsIcEENS_9allocatorIcEEEENS_7variantIJidbcS9_EEEEEPvEEEEbEC1B8ue170006ISG_RbLSD_0EEEOT_OT0_, symObjAddr: 0xBC00, symBinAddr: 0x10000F8F4, symSize: 0x3C }
  - { offsetInCU: 0x12458, offset: 0x12458, size: 0x8, addend: 0x0, symName: __ZNSt3__117__compressed_pairImNS_22__unordered_map_hasherINS_12basic_stringIcNS_11char_traitsIcEENS_9allocatorIcEEEENS_17__hash_value_typeIS7_NS_7variantIJidbcS7_EEEEENS_4hashIS7_EENS_8equal_toIS7_EELb1EEEE6secondB8ue170006Ev, symObjAddr: 0xBC3C, symBinAddr: 0x10000F930, symSize: 0x24 }
  - { offsetInCU: 0x1247E, offset: 0x1247E, size: 0x8, addend: 0x0, symName: __ZNSt3__122__compressed_pair_elemINS_22__unordered_map_hasherINS_12basic_stringIcNS_11char_traitsIcEENS_9allocatorIcEEEENS_17__hash_value_typeIS7_NS_7variantIJidbcS7_EEEEENS_4hashIS7_EENS_8equal_toIS7_EELb1EEELi1ELb1EE5__getB8ue170006Ev, symObjAddr: 0xBC60, symBinAddr: 0x10000F954, symSize: 0x14 }
  - { offsetInCU: 0x124A4, offset: 0x124A4, size: 0x8, addend: 0x0, symName: __ZNKSt3__113__string_hashIcNS_9allocatorIcEEEclB8ue170006ERKNS_12basic_stringIcNS_11char_traitsIcEES2_EE, symObjAddr: 0xBC74, symBinAddr: 0x10000F968, symSize: 0x70 }
  - { offsetInCU: 0x124D9, offset: 0x124D9, size: 0x8, addend: 0x0, symName: __ZNKSt3__121__murmur2_or_cityhashImLm64EEclB8ue170006EPKvm, symObjAddr: 0xBED0, symBinAddr: 0x10000FBC4, symSize: 0xE04 }
  - { offsetInCU: 0x12585, offset: 0x12585, size: 0x8, addend: 0x0, symName: __ZNSt3__121__murmur2_or_cityhashImLm64EE18__hash_len_0_to_16B8ue170006EPKcm, symObjAddr: 0xCCD4, symBinAddr: 0x1000109C8, symSize: 0x2D8 }
  - { offsetInCU: 0x1265E, offset: 0x1265E, size: 0x8, addend: 0x0, symName: __ZNSt3__121__murmur2_or_cityhashImLm64EE19__hash_len_17_to_32B8ue170006EPKcm, symObjAddr: 0xCFAC, symBinAddr: 0x100010CA0, symSize: 0x130 }
  - { offsetInCU: 0x126C7, offset: 0x126C7, size: 0x8, addend: 0x0, symName: __ZNSt3__121__murmur2_or_cityhashImLm64EE19__hash_len_33_to_64B8ue170006EPKcm, symObjAddr: 0xD0DC, symBinAddr: 0x100010DD0, symSize: 0x2B8 }
  - { offsetInCU: 0x1277C, offset: 0x1277C, size: 0x8, addend: 0x0, symName: __ZNSt3__121__murmur2_or_cityhashImLm64EE13__hash_len_16B8ue170006Emm, symObjAddr: 0xD5A8, symBinAddr: 0x10001129C, symSize: 0x80 }
  - { offsetInCU: 0x127D7, offset: 0x127D7, size: 0x8, addend: 0x0, symName: __ZNSt3__121__murmur2_or_cityhashImLm64EE29__weak_hash_len_32_with_seedsB8ue170006EPKcmm, symObjAddr: 0xD628, symBinAddr: 0x10001131C, symSize: 0x270 }
  - { offsetInCU: 0x12819, offset: 0x12819, size: 0x8, addend: 0x0, symName: __ZNSt3__121__murmur2_or_cityhashImLm64EE8__rotateB8ue170006Emi, symObjAddr: 0xD898, symBinAddr: 0x10001158C, symSize: 0x64 }
  - { offsetInCU: 0x1284A, offset: 0x1284A, size: 0x8, addend: 0x0, symName: __ZNSt3__14pairImmEaSB8ue170006EOS1_, symObjAddr: 0xD8FC, symBinAddr: 0x1000115F0, symSize: 0x134 }
  - { offsetInCU: 0x1287F, offset: 0x1287F, size: 0x8, addend: 0x0, symName: __ZNSt3__121__murmur2_or_cityhashImLm64EE11__shift_mixB8ue170006Em, symObjAddr: 0xDB64, symBinAddr: 0x100011858, symSize: 0x1C }
  - { offsetInCU: 0x128A2, offset: 0x128A2, size: 0x8, addend: 0x0, symName: __ZNSt3__121__murmur2_or_cityhashImLm64EE22__rotate_by_at_least_1B8ue170006Emi, symObjAddr: 0xDB80, symBinAddr: 0x100011874, symSize: 0x38 }
  - { offsetInCU: 0x128D3, offset: 0x128D3, size: 0x8, addend: 0x0, symName: __ZNSt3__121__murmur2_or_cityhashImLm64EE29__weak_hash_len_32_with_seedsB8ue170006Emmmmmm, symObjAddr: 0xDDF8, symBinAddr: 0x100011AEC, symSize: 0x398 }
  - { offsetInCU: 0x12956, offset: 0x12956, size: 0x8, addend: 0x0, symName: __ZNSt3__14pairImmEC1B8ue170006ImmLPv0EEEOT_OT0_, symObjAddr: 0xE190, symBinAddr: 0x100011E84, symSize: 0x3C }
  - { offsetInCU: 0x129B4, offset: 0x129B4, size: 0x8, addend: 0x0, symName: __ZNSt3__14pairImmEC2B8ue170006ImmLPv0EEEOT_OT0_, symObjAddr: 0xE1CC, symBinAddr: 0x100011EC0, symSize: 0x138 }
  - { offsetInCU: 0x12A12, offset: 0x12A12, size: 0x8, addend: 0x0, symName: __ZNSt3__117__compressed_pairIfNS_21__unordered_map_equalINS_12basic_stringIcNS_11char_traitsIcEENS_9allocatorIcEEEENS_17__hash_value_typeIS7_NS_7variantIJidbcS7_EEEEENS_8equal_toIS7_EENS_4hashIS7_EELb1EEEE6secondB8ue170006Ev, symObjAddr: 0xE304, symBinAddr: 0x100011FF8, symSize: 0x24 }
  - { offsetInCU: 0x12A38, offset: 0x12A38, size: 0x8, addend: 0x0, symName: __ZNSt3__122__compressed_pair_elemINS_21__unordered_map_equalINS_12basic_stringIcNS_11char_traitsIcEENS_9allocatorIcEEEENS_17__hash_value_typeIS7_NS_7variantIJidbcS7_EEEEENS_8equal_toIS7_EENS_4hashIS7_EELb1EEELi1ELb1EE5__getB8ue170006Ev, symObjAddr: 0xE328, symBinAddr: 0x10001201C, symSize: 0x14 }
  - { offsetInCU: 0x12A5E, offset: 0x12A5E, size: 0x8, addend: 0x0, symName: __ZNKSt3__18equal_toINS_12basic_stringIcNS_11char_traitsIcEENS_9allocatorIcEEEEEclB8ue170006ERKS6_S9_, symObjAddr: 0xE33C, symBinAddr: 0x100012030, symSize: 0x34 }
  - { offsetInCU: 0x12AA2, offset: 0x12AA2, size: 0x8, addend: 0x0, symName: __ZNKSt3__117__hash_value_typeINS_12basic_stringIcNS_11char_traitsIcEENS_9allocatorIcEEEENS_7variantIJidbcS6_EEEE11__get_valueB8ue170006Ev, symObjAddr: 0xE370, symBinAddr: 0x100012064, symSize: 0x24 }
  - { offsetInCU: 0x12AC8, offset: 0x12AC8, size: 0x8, addend: 0x0, symName: __ZNSt3__116allocator_traitsINS_9allocatorINS_11__hash_nodeINS_17__hash_value_typeINS_12basic_stringIcNS_11char_traitsIcEENS1_IcEEEENS_7variantIJidbcS8_EEEEEPvEEEEE8allocateB8ue170006ERSE_m, symObjAddr: 0xE600, symBinAddr: 0x1000122F4, symSize: 0x2C }
  - { offsetInCU: 0x12AFB, offset: 0x12AFB, size: 0x8, addend: 0x0, symName: __ZNSt3__122__hash_node_destructorINS_9allocatorINS_11__hash_nodeINS_17__hash_value_typeINS_12basic_stringIcNS_11char_traitsIcEENS1_IcEEEENS_7variantIJidbcS8_EEEEEPvEEEEEC1B8ue170006ERSE_b, symObjAddr: 0xE62C, symBinAddr: 0x100012320, symSize: 0x48 }
  - { offsetInCU: 0x12B48, offset: 0x12B48, size: 0x8, addend: 0x0, symName: __ZNSt3__110unique_ptrINS_11__hash_nodeINS_17__hash_value_typeINS_12basic_stringIcNS_11char_traitsIcEENS_9allocatorIcEEEENS_7variantIJidbcS8_EEEEEPvEENS_22__hash_node_destructorINS6_ISD_EEEEEC1B8ue170006ILb1EvEEPSD_NS_16__dependent_typeINS_27__unique_ptr_deleter_sfinaeISG_EEXT_EE20__good_rval_ref_typeE, symObjAddr: 0xE674, symBinAddr: 0x100012368, symSize: 0x3C }
  - { offsetInCU: 0x12B99, offset: 0x12B99, size: 0x8, addend: 0x0, symName: __ZNSt3__116allocator_traitsINS_9allocatorINS_11__hash_nodeINS_17__hash_value_typeINS_12basic_stringIcNS_11char_traitsIcEENS1_IcEEEENS_7variantIJidbcS8_EEEEEPvEEEEE9constructB8ue170006INS_4pairIKS8_SA_EEJRKSJ_EvvEEvRSE_PT_DpOT0_, symObjAddr: 0xE6B0, symBinAddr: 0x1000123A4, symSize: 0x30 }
  - { offsetInCU: 0x12BEE, offset: 0x12BEE, size: 0x8, addend: 0x0, symName: __ZNSt3__110unique_ptrINS_11__hash_nodeINS_17__hash_value_typeINS_12basic_stringIcNS_11char_traitsIcEENS_9allocatorIcEEEENS_7variantIJidbcS8_EEEEEPvEENS_22__hash_node_destructorINS6_ISD_EEEEE11get_deleterB8ue170006Ev, symObjAddr: 0xE6E0, symBinAddr: 0x1000123D4, symSize: 0x24 }
  - { offsetInCU: 0x12C14, offset: 0x12C14, size: 0x8, addend: 0x0, symName: __ZNSt3__19allocatorINS_11__hash_nodeINS_17__hash_value_typeINS_12basic_stringIcNS_11char_traitsIcEENS0_IcEEEENS_7variantIJidbcS7_EEEEEPvEEE8allocateB8ue170006Em, symObjAddr: 0xE704, symBinAddr: 0x1000123F8, symSize: 0x60 }
  - { offsetInCU: 0x12C48, offset: 0x12C48, size: 0x8, addend: 0x0, symName: __ZNSt3__116allocator_traitsINS_9allocatorINS_11__hash_nodeINS_17__hash_value_typeINS_12basic_stringIcNS_11char_traitsIcEENS1_IcEEEENS_7variantIJidbcS8_EEEEEPvEEEEE8max_sizeB8ue170006ISE_vvEEmRKSE_, symObjAddr: 0xE764, symBinAddr: 0x100012458, symSize: 0x28 }
  - { offsetInCU: 0x12C74, offset: 0x12C74, size: 0x8, addend: 0x0, symName: __ZNSt3__122__hash_node_destructorINS_9allocatorINS_11__hash_nodeINS_17__hash_value_typeINS_12basic_stringIcNS_11char_traitsIcEENS1_IcEEEENS_7variantIJidbcS8_EEEEEPvEEEEEC2B8ue170006ERSE_b, symObjAddr: 0xE78C, symBinAddr: 0x100012480, symSize: 0xF0 }
  - { offsetInCU: 0x12CBC, offset: 0x12CBC, size: 0x8, addend: 0x0, symName: __ZNSt3__110unique_ptrINS_11__hash_nodeINS_17__hash_value_typeINS_12basic_stringIcNS_11char_traitsIcEENS_9allocatorIcEEEENS_7variantIJidbcS8_EEEEEPvEENS_22__hash_node_destructorINS6_ISD_EEEEEC2B8ue170006ILb1EvEEPSD_NS_16__dependent_typeINS_27__unique_ptr_deleter_sfinaeISG_EEXT_EE20__good_rval_ref_typeE, symObjAddr: 0xE87C, symBinAddr: 0x100012570, symSize: 0x21C }
  - { offsetInCU: 0x12D13, offset: 0x12D13, size: 0x8, addend: 0x0, symName: __ZNSt3__117__compressed_pairIPNS_11__hash_nodeINS_17__hash_value_typeINS_12basic_stringIcNS_11char_traitsIcEENS_9allocatorIcEEEENS_7variantIJidbcS8_EEEEEPvEENS_22__hash_node_destructorINS6_ISD_EEEEEC1B8ue170006IRSE_SH_EEOT_OT0_, symObjAddr: 0xEA98, symBinAddr: 0x10001278C, symSize: 0x3C }
  - { offsetInCU: 0x12D6B, offset: 0x12D6B, size: 0x8, addend: 0x0, symName: __ZNSt3__117__compressed_pairIPNS_11__hash_nodeINS_17__hash_value_typeINS_12basic_stringIcNS_11char_traitsIcEENS_9allocatorIcEEEENS_7variantIJidbcS8_EEEEEPvEENS_22__hash_node_destructorINS6_ISD_EEEEEC2B8ue170006IRSE_SH_EEOT_OT0_, symObjAddr: 0xEAD4, symBinAddr: 0x1000127C8, symSize: 0x48 }
  - { offsetInCU: 0x12DC3, offset: 0x12DC3, size: 0x8, addend: 0x0, symName: __ZNSt3__122__compressed_pair_elemIPNS_11__hash_nodeINS_17__hash_value_typeINS_12basic_stringIcNS_11char_traitsIcEENS_9allocatorIcEEEENS_7variantIJidbcS8_EEEEEPvEELi0ELb0EEC2B8ue170006IRSE_vEEOT_, symObjAddr: 0xEB1C, symBinAddr: 0x100012810, symSize: 0xB0 }
  - { offsetInCU: 0x12E05, offset: 0x12E05, size: 0x8, addend: 0x0, symName: __ZNSt3__122__compressed_pair_elemINS_22__hash_node_destructorINS_9allocatorINS_11__hash_nodeINS_17__hash_value_typeINS_12basic_stringIcNS_11char_traitsIcEENS2_IcEEEENS_7variantIJidbcS9_EEEEEPvEEEEEELi1ELb0EEC2B8ue170006ISG_vEEOT_, symObjAddr: 0xEBCC, symBinAddr: 0x1000128C0, symSize: 0x38 }
  - { offsetInCU: 0x12E47, offset: 0x12E47, size: 0x8, addend: 0x0, symName: __ZNSt3__14pairIKNS_12basic_stringIcNS_11char_traitsIcEENS_9allocatorIcEEEENS_7variantIJidbcS6_EEEEC1B8ue170006ERKSA_, symObjAddr: 0xEC40, symBinAddr: 0x100012934, symSize: 0x34 }
  - { offsetInCU: 0x12E7C, offset: 0x12E7C, size: 0x8, addend: 0x0, symName: __ZNSt3__14pairIKNS_12basic_stringIcNS_11char_traitsIcEENS_9allocatorIcEEEENS_7variantIJidbcS6_EEEEC2B8ue170006ERKSA_, symObjAddr: 0xEC74, symBinAddr: 0x100012968, symSize: 0x70 }
  - { offsetInCU: 0x12EB1, offset: 0x12EB1, size: 0x8, addend: 0x0, symName: __ZNSt3__17variantIJidbcNS_12basic_stringIcNS_11char_traitsIcEENS_9allocatorIcEEEEEEC1B8ue170006ERKS7_, symObjAddr: 0xECE4, symBinAddr: 0x1000129D8, symSize: 0x34 }
  - { offsetInCU: 0x12EE7, offset: 0x12EE7, size: 0x8, addend: 0x0, symName: __ZNSt3__17variantIJidbcNS_12basic_stringIcNS_11char_traitsIcEENS_9allocatorIcEEEEEEC2B8ue170006ERKS7_, symObjAddr: 0xED18, symBinAddr: 0x100012A0C, symSize: 0x34 }
  - { offsetInCU: 0x12F1D, offset: 0x12F1D, size: 0x8, addend: 0x0, symName: __ZNSt3__116__variant_detail6__implIJidbcNS_12basic_stringIcNS_11char_traitsIcEENS_9allocatorIcEEEEEEC1B8ue170006ERKS8_, symObjAddr: 0xED4C, symBinAddr: 0x100012A40, symSize: 0x34 }
  - { offsetInCU: 0x12F53, offset: 0x12F53, size: 0x8, addend: 0x0, symName: __ZNSt3__116__variant_detail6__implIJidbcNS_12basic_stringIcNS_11char_traitsIcEENS_9allocatorIcEEEEEEC2B8ue170006ERKS8_, symObjAddr: 0xED80, symBinAddr: 0x100012A74, symSize: 0x34 }
  - { offsetInCU: 0x12F89, offset: 0x12F89, size: 0x8, addend: 0x0, symName: __ZNSt3__116__variant_detail17__copy_assignmentINS0_8__traitsIJidbcNS_12basic_stringIcNS_11char_traitsIcEENS_9allocatorIcEEEEEEELNS0_6_TraitE1EEC2ERKSB_, symObjAddr: 0xEDB4, symBinAddr: 0x100012AA8, symSize: 0x34 }
  - { offsetInCU: 0x12FBF, offset: 0x12FBF, size: 0x8, addend: 0x0, symName: __ZNSt3__116__variant_detail17__move_assignmentINS0_8__traitsIJidbcNS_12basic_stringIcNS_11char_traitsIcEENS_9allocatorIcEEEEEEELNS0_6_TraitE1EEC2ERKSB_, symObjAddr: 0xEDE8, symBinAddr: 0x100012ADC, symSize: 0x34 }
  - { offsetInCU: 0x12FFF, offset: 0x12FFF, size: 0x8, addend: 0x0, symName: __ZNSt3__116__variant_detail12__assignmentINS0_8__traitsIJidbcNS_12basic_stringIcNS_11char_traitsIcEENS_9allocatorIcEEEEEEEEC2ERKSA_, symObjAddr: 0xEE1C, symBinAddr: 0x100012B10, symSize: 0x34 }
  - { offsetInCU: 0x13035, offset: 0x13035, size: 0x8, addend: 0x0, symName: __ZNSt3__116__variant_detail18__copy_constructorINS0_8__traitsIJidbcNS_12basic_stringIcNS_11char_traitsIcEENS_9allocatorIcEEEEEEELNS0_6_TraitE1EEC2ERKSB_, symObjAddr: 0xEE50, symBinAddr: 0x100012B44, symSize: 0x64 }
  - { offsetInCU: 0x1306E, offset: 0x1306E, size: 0x8, addend: 0x0, symName: __ZNSt3__116__variant_detail18__copy_constructorINS0_8__traitsIJidbcNS_12basic_stringIcNS_11char_traitsIcEENS_9allocatorIcEEEEEEELNS0_6_TraitE1EECI2NS0_6__baseILSA_1EJidbcS8_EEEENS0_13__valueless_tE, symObjAddr: 0xEEB4, symBinAddr: 0x100012BA8, symSize: 0x2C }
  - { offsetInCU: 0x130A9, offset: 0x130A9, size: 0x8, addend: 0x0, symName: __ZNSt3__116__variant_detail6__ctorINS0_8__traitsIJidbcNS_12basic_stringIcNS_11char_traitsIcEENS_9allocatorIcEEEEEEEE19__generic_constructB8ue170006IRKNS0_18__copy_constructorIS9_LNS0_6_TraitE1EEEEEvRSA_OT_, symObjAddr: 0xEEE0, symBinAddr: 0x100012BD4, symSize: 0x280 }
  - { offsetInCU: 0x131C6, offset: 0x131C6, size: 0x8, addend: 0x0, symName: __ZNSt3__116__variant_detail18__move_constructorINS0_8__traitsIJidbcNS_12basic_stringIcNS_11char_traitsIcEENS_9allocatorIcEEEEEEELNS0_6_TraitE1EECI2NS0_6__baseILSA_1EJidbcS8_EEEENS0_13__valueless_tE, symObjAddr: 0xF160, symBinAddr: 0x100012E54, symSize: 0x2C }
  - { offsetInCU: 0x131FC, offset: 0x131FC, size: 0x8, addend: 0x0, symName: __ZNSt3__116__variant_detail6__ctorINS0_8__traitsIJidbcNS_12basic_stringIcNS_11char_traitsIcEENS_9allocatorIcEEEEEEEECI2NS0_6__baseILNS0_6_TraitE1EJidbcS8_EEEENS0_13__valueless_tE, symObjAddr: 0xF18C, symBinAddr: 0x100012E80, symSize: 0x2C }
  - { offsetInCU: 0x13232, offset: 0x13232, size: 0x8, addend: 0x0, symName: __ZNSt3__116__variant_detail6__dtorINS0_8__traitsIJidbcNS_12basic_stringIcNS_11char_traitsIcEENS_9allocatorIcEEEEEEELNS0_6_TraitE1EECI2NS0_6__baseILSA_1EJidbcS8_EEEENS0_13__valueless_tE, symObjAddr: 0xF1B8, symBinAddr: 0x100012EAC, symSize: 0x2C }
  - { offsetInCU: 0x13268, offset: 0x13268, size: 0x8, addend: 0x0, symName: __ZNSt3__116__variant_detail6__baseILNS0_6_TraitE1EJidbcNS_12basic_stringIcNS_11char_traitsIcEENS_9allocatorIcEEEEEEC2B8ue170006ENS0_13__valueless_tE, symObjAddr: 0xF1E4, symBinAddr: 0x100012ED8, symSize: 0xA0 }
  - { offsetInCU: 0x132A1, offset: 0x132A1, size: 0x8, addend: 0x0, symName: __ZNSt3__116__variant_detail7__unionILNS0_6_TraitE1ELm0EJidbcNS_12basic_stringIcNS_11char_traitsIcEENS_9allocatorIcEEEEEEC1B8ue170006ENS0_13__valueless_tE, symObjAddr: 0xF284, symBinAddr: 0x100012F78, symSize: 0x2C }
  - { offsetInCU: 0x132D7, offset: 0x132D7, size: 0x8, addend: 0x0, symName: __ZNSt3__116__variant_detail7__unionILNS0_6_TraitE1ELm0EJidbcNS_12basic_stringIcNS_11char_traitsIcEENS_9allocatorIcEEEEEEC2B8ue170006ENS0_13__valueless_tE, symObjAddr: 0xF2B0, symBinAddr: 0x100012FA4, symSize: 0x84 }
  - { offsetInCU: 0x13312, offset: 0x13312, size: 0x8, addend: 0x0, symName: __ZNSt3__116__variant_detail12__visitation6__base14__visit_alt_atB8ue170006IZNS0_6__ctorINS0_8__traitsIJidbcNS_12basic_stringIcNS_11char_traitsIcEENS_9allocatorIcEEEEEEEE19__generic_constructB8ue170006IRKNS0_18__copy_constructorISC_LNS0_6_TraitE1EEEEEvRSD_OT_EUlRSL_OT0_E_JSK_SJ_EEEDcmSM_DpOT0_, symObjAddr: 0xF334, symBinAddr: 0x100013028, symSize: 0x298 }
  - { offsetInCU: 0x13398, offset: 0x13398, size: 0x8, addend: 0x0, symName: __ZNSt3__116__variant_detail12__visitation6__base12__dispatcherIJLm0ELm0EEE10__dispatchB8ue170006IOZNS0_6__ctorINS0_8__traitsIJidbcNS_12basic_stringIcNS_11char_traitsIcEENS_9allocatorIcEEEEEEEE19__generic_constructB8ue170006IRKNS0_18__copy_constructorISE_LNS0_6_TraitE1EEEEEvRSF_OT_EUlRSN_OT0_E_JRNS0_6__baseILSI_1EJidbcSD_EEERKSV_EEEDcSN_DpT0_, symObjAddr: 0xF5CC, symBinAddr: 0x1000132C0, symSize: 0x50 }
  - { offsetInCU: 0x133F3, offset: 0x133F3, size: 0x8, addend: 0x0, symName: __ZNSt3__116__variant_detail12__visitation6__base12__dispatcherIJLm1ELm1EEE10__dispatchB8ue170006IOZNS0_6__ctorINS0_8__traitsIJidbcNS_12basic_stringIcNS_11char_traitsIcEENS_9allocatorIcEEEEEEEE19__generic_constructB8ue170006IRKNS0_18__copy_constructorISE_LNS0_6_TraitE1EEEEEvRSF_OT_EUlRSN_OT0_E_JRNS0_6__baseILSI_1EJidbcSD_EEERKSV_EEEDcSN_DpT0_, symObjAddr: 0xF61C, symBinAddr: 0x100013310, symSize: 0x50 }
  - { offsetInCU: 0x1344E, offset: 0x1344E, size: 0x8, addend: 0x0, symName: __ZNSt3__116__variant_detail12__visitation6__base12__dispatcherIJLm2ELm2EEE10__dispatchB8ue170006IOZNS0_6__ctorINS0_8__traitsIJidbcNS_12basic_stringIcNS_11char_traitsIcEENS_9allocatorIcEEEEEEEE19__generic_constructB8ue170006IRKNS0_18__copy_constructorISE_LNS0_6_TraitE1EEEEEvRSF_OT_EUlRSN_OT0_E_JRNS0_6__baseILSI_1EJidbcSD_EEERKSV_EEEDcSN_DpT0_, symObjAddr: 0xF66C, symBinAddr: 0x100013360, symSize: 0x50 }
  - { offsetInCU: 0x134A9, offset: 0x134A9, size: 0x8, addend: 0x0, symName: __ZNSt3__116__variant_detail12__visitation6__base12__dispatcherIJLm3ELm3EEE10__dispatchB8ue170006IOZNS0_6__ctorINS0_8__traitsIJidbcNS_12basic_stringIcNS_11char_traitsIcEENS_9allocatorIcEEEEEEEE19__generic_constructB8ue170006IRKNS0_18__copy_constructorISE_LNS0_6_TraitE1EEEEEvRSF_OT_EUlRSN_OT0_E_JRNS0_6__baseILSI_1EJidbcSD_EEERKSV_EEEDcSN_DpT0_, symObjAddr: 0xF6BC, symBinAddr: 0x1000133B0, symSize: 0x50 }
  - { offsetInCU: 0x13504, offset: 0x13504, size: 0x8, addend: 0x0, symName: __ZNSt3__116__variant_detail12__visitation6__base12__dispatcherIJLm4ELm4EEE10__dispatchB8ue170006IOZNS0_6__ctorINS0_8__traitsIJidbcNS_12basic_stringIcNS_11char_traitsIcEENS_9allocatorIcEEEEEEEE19__generic_constructB8ue170006IRKNS0_18__copy_constructorISE_LNS0_6_TraitE1EEEEEvRSF_OT_EUlRSN_OT0_E_JRNS0_6__baseILSI_1EJidbcSD_EEERKSV_EEEDcSN_DpT0_, symObjAddr: 0xF70C, symBinAddr: 0x100013400, symSize: 0x50 }
  - { offsetInCU: 0x13596, offset: 0x13596, size: 0x8, addend: 0x0, symName: __ZNKSt3__18__farrayIPFvOZNS_16__variant_detail6__ctorINS1_8__traitsIJidbcNS_12basic_stringIcNS_11char_traitsIcEENS_9allocatorIcEEEEEEEE19__generic_constructB8ue170006IRKNS1_18__copy_constructorISA_LNS1_6_TraitE1EEEEEvRSB_OT_EUlRSJ_OT0_E_RNS1_6__baseILSE_1EJidbcS9_EEERKSR_ELm5EEixB8ue170006Em, symObjAddr: 0xF75C, symBinAddr: 0x100013450, symSize: 0x20 }
  - { offsetInCU: 0x135CB, offset: 0x135CB, size: 0x8, addend: 0x0, symName: __ZNKRSt3__116__variant_detail6__baseILNS0_6_TraitE1EJidbcNS_12basic_stringIcNS_11char_traitsIcEENS_9allocatorIcEEEEEE9__as_baseB8ue170006Ev, symObjAddr: 0xF77C, symBinAddr: 0x100013470, symSize: 0x14 }
  - { offsetInCU: 0x135FB, offset: 0x135FB, size: 0x8, addend: 0x0, symName: __ZNSt3__116__variant_detail8__access6__base9__get_altB8ue170006ILm0ERKNS0_6__baseILNS0_6_TraitE1EJidbcNS_12basic_stringIcNS_11char_traitsIcEENS_9allocatorIcEEEEEEEEEODaOT0_, symObjAddr: 0xF7C4, symBinAddr: 0x1000134B8, symSize: 0x24 }
  - { offsetInCU: 0x1363C, offset: 0x1363C, size: 0x8, addend: 0x0, symName: __ZZNSt3__116__variant_detail6__ctorINS0_8__traitsIJidbcNS_12basic_stringIcNS_11char_traitsIcEENS_9allocatorIcEEEEEEEE19__generic_constructB8ue170006IRKNS0_18__copy_constructorIS9_LNS0_6_TraitE1EEEEEvRSA_OT_ENKUlRSI_OT0_E_clINS0_5__altILm0EiEERKSQ_EEDaSK_SM_, symObjAddr: 0xF7E8, symBinAddr: 0x1000134DC, symSize: 0x30 }
  - { offsetInCU: 0x136A0, offset: 0x136A0, size: 0x8, addend: 0x0, symName: __ZNSt3__116__variant_detail6__ctorINS0_8__traitsIJidbcNS_12basic_stringIcNS_11char_traitsIcEENS_9allocatorIcEEEEEEEE15__construct_altB8ue170006ILm0EiJRKiEEERT0_RNS0_5__altIXT_ESE_EEDpOT1_, symObjAddr: 0xF818, symBinAddr: 0x10001350C, symSize: 0x30 }
  - { offsetInCU: 0x136F6, offset: 0x136F6, size: 0x8, addend: 0x0, symName: __ZNSt3__116__variant_detail5__altILm0EiEC1B8ue170006IJRKiEEENS_10in_place_tEDpOT_, symObjAddr: 0xF848, symBinAddr: 0x10001353C, symSize: 0x34 }
  - { offsetInCU: 0x13746, offset: 0x13746, size: 0x8, addend: 0x0, symName: __ZNSt3__116__variant_detail5__altILm0EiEC2B8ue170006IJRKiEEENS_10in_place_tEDpOT_, symObjAddr: 0xF87C, symBinAddr: 0x100013570, symSize: 0x100 }
  - { offsetInCU: 0x13796, offset: 0x13796, size: 0x8, addend: 0x0, symName: __ZNSt3__116__variant_detail8__access7__union9__get_altB8ue170006IRKNS0_7__unionILNS0_6_TraitE1ELm0EJidbcNS_12basic_stringIcNS_11char_traitsIcEENS_9allocatorIcEEEEEEEEEODaOT_NS_16in_place_index_tILm0EEE, symObjAddr: 0xF97C, symBinAddr: 0x100013670, symSize: 0x14 }
  - { offsetInCU: 0x137D9, offset: 0x137D9, size: 0x8, addend: 0x0, symName: __ZNSt3__116__variant_detail8__access6__base9__get_altB8ue170006ILm1ERKNS0_6__baseILNS0_6_TraitE1EJidbcNS_12basic_stringIcNS_11char_traitsIcEENS_9allocatorIcEEEEEEEEEODaOT0_, symObjAddr: 0xF9C4, symBinAddr: 0x1000136B8, symSize: 0x24 }
  - { offsetInCU: 0x13810, offset: 0x13810, size: 0x8, addend: 0x0, symName: __ZZNSt3__116__variant_detail6__ctorINS0_8__traitsIJidbcNS_12basic_stringIcNS_11char_traitsIcEENS_9allocatorIcEEEEEEEE19__generic_constructB8ue170006IRKNS0_18__copy_constructorIS9_LNS0_6_TraitE1EEEEEvRSA_OT_ENKUlRSI_OT0_E_clINS0_5__altILm1EdEERKSQ_EEDaSK_SM_, symObjAddr: 0xF9E8, symBinAddr: 0x1000136DC, symSize: 0x30 }
  - { offsetInCU: 0x13879, offset: 0x13879, size: 0x8, addend: 0x0, symName: __ZNSt3__116__variant_detail6__ctorINS0_8__traitsIJidbcNS_12basic_stringIcNS_11char_traitsIcEENS_9allocatorIcEEEEEEEE15__construct_altB8ue170006ILm1EdJRKdEEERT0_RNS0_5__altIXT_ESE_EEDpOT1_, symObjAddr: 0xFA18, symBinAddr: 0x10001370C, symSize: 0x30 }
  - { offsetInCU: 0x138CF, offset: 0x138CF, size: 0x8, addend: 0x0, symName: __ZNSt3__116__variant_detail5__altILm1EdEC1B8ue170006IJRKdEEENS_10in_place_tEDpOT_, symObjAddr: 0xFA48, symBinAddr: 0x10001373C, symSize: 0x34 }
  - { offsetInCU: 0x1391F, offset: 0x1391F, size: 0x8, addend: 0x0, symName: __ZNSt3__116__variant_detail5__altILm1EdEC2B8ue170006IJRKdEEENS_10in_place_tEDpOT_, symObjAddr: 0xFA7C, symBinAddr: 0x100013770, symSize: 0xB0 }
  - { offsetInCU: 0x1396F, offset: 0x1396F, size: 0x8, addend: 0x0, symName: __ZNSt3__116__variant_detail8__access7__union9__get_altB8ue170006IRKNS0_7__unionILNS0_6_TraitE1ELm0EJidbcNS_12basic_stringIcNS_11char_traitsIcEENS_9allocatorIcEEEEEEELm1EEEODaOT_NS_16in_place_index_tIXT0_EEE, symObjAddr: 0xFB2C, symBinAddr: 0x100013820, symSize: 0x24 }
  - { offsetInCU: 0x139B2, offset: 0x139B2, size: 0x8, addend: 0x0, symName: __ZNSt3__116__variant_detail8__access7__union9__get_altB8ue170006IRKNS0_7__unionILNS0_6_TraitE1ELm1EJdbcNS_12basic_stringIcNS_11char_traitsIcEENS_9allocatorIcEEEEEEEEEODaOT_NS_16in_place_index_tILm0EEE, symObjAddr: 0xFB50, symBinAddr: 0x100013844, symSize: 0x14 }
  - { offsetInCU: 0x139F5, offset: 0x139F5, size: 0x8, addend: 0x0, symName: __ZNSt3__116__variant_detail8__access6__base9__get_altB8ue170006ILm2ERKNS0_6__baseILNS0_6_TraitE1EJidbcNS_12basic_stringIcNS_11char_traitsIcEENS_9allocatorIcEEEEEEEEEODaOT0_, symObjAddr: 0xFB98, symBinAddr: 0x10001388C, symSize: 0x24 }
  - { offsetInCU: 0x13A2C, offset: 0x13A2C, size: 0x8, addend: 0x0, symName: __ZZNSt3__116__variant_detail6__ctorINS0_8__traitsIJidbcNS_12basic_stringIcNS_11char_traitsIcEENS_9allocatorIcEEEEEEEE19__generic_constructB8ue170006IRKNS0_18__copy_constructorIS9_LNS0_6_TraitE1EEEEEvRSA_OT_ENKUlRSI_OT0_E_clINS0_5__altILm2EbEERKSQ_EEDaSK_SM_, symObjAddr: 0xFBBC, symBinAddr: 0x1000138B0, symSize: 0x30 }
  - { offsetInCU: 0x13A8B, offset: 0x13A8B, size: 0x8, addend: 0x0, symName: __ZNSt3__116__variant_detail6__ctorINS0_8__traitsIJidbcNS_12basic_stringIcNS_11char_traitsIcEENS_9allocatorIcEEEEEEEE15__construct_altB8ue170006ILm2EbJRKbEEERT0_RNS0_5__altIXT_ESE_EEDpOT1_, symObjAddr: 0xFBEC, symBinAddr: 0x1000138E0, symSize: 0x30 }
  - { offsetInCU: 0x13AE1, offset: 0x13AE1, size: 0x8, addend: 0x0, symName: __ZNSt3__116__variant_detail5__altILm2EbEC1B8ue170006IJRKbEEENS_10in_place_tEDpOT_, symObjAddr: 0xFC1C, symBinAddr: 0x100013910, symSize: 0x34 }
  - { offsetInCU: 0x13B31, offset: 0x13B31, size: 0x8, addend: 0x0, symName: __ZNSt3__116__variant_detail5__altILm2EbEC2B8ue170006IJRKbEEENS_10in_place_tEDpOT_, symObjAddr: 0xFC50, symBinAddr: 0x100013944, symSize: 0x100 }
  - { offsetInCU: 0x13B81, offset: 0x13B81, size: 0x8, addend: 0x0, symName: __ZNSt3__116__variant_detail8__access7__union9__get_altB8ue170006IRKNS0_7__unionILNS0_6_TraitE1ELm0EJidbcNS_12basic_stringIcNS_11char_traitsIcEENS_9allocatorIcEEEEEEELm2EEEODaOT_NS_16in_place_index_tIXT0_EEE, symObjAddr: 0xFD50, symBinAddr: 0x100013A44, symSize: 0x24 }
  - { offsetInCU: 0x13BC4, offset: 0x13BC4, size: 0x8, addend: 0x0, symName: __ZNSt3__116__variant_detail8__access7__union9__get_altB8ue170006IRKNS0_7__unionILNS0_6_TraitE1ELm1EJdbcNS_12basic_stringIcNS_11char_traitsIcEENS_9allocatorIcEEEEEEELm1EEEODaOT_NS_16in_place_index_tIXT0_EEE, symObjAddr: 0xFD74, symBinAddr: 0x100013A68, symSize: 0x24 }
  - { offsetInCU: 0x13C07, offset: 0x13C07, size: 0x8, addend: 0x0, symName: __ZNSt3__116__variant_detail8__access7__union9__get_altB8ue170006IRKNS0_7__unionILNS0_6_TraitE1ELm2EJbcNS_12basic_stringIcNS_11char_traitsIcEENS_9allocatorIcEEEEEEEEEODaOT_NS_16in_place_index_tILm0EEE, symObjAddr: 0xFD98, symBinAddr: 0x100013A8C, symSize: 0x14 }
  - { offsetInCU: 0x13C4A, offset: 0x13C4A, size: 0x8, addend: 0x0, symName: __ZNSt3__116__variant_detail8__access6__base9__get_altB8ue170006ILm3ERKNS0_6__baseILNS0_6_TraitE1EJidbcNS_12basic_stringIcNS_11char_traitsIcEENS_9allocatorIcEEEEEEEEEODaOT0_, symObjAddr: 0xFDE0, symBinAddr: 0x100013AD4, symSize: 0x24 }
  - { offsetInCU: 0x13C81, offset: 0x13C81, size: 0x8, addend: 0x0, symName: __ZZNSt3__116__variant_detail6__ctorINS0_8__traitsIJidbcNS_12basic_stringIcNS_11char_traitsIcEENS_9allocatorIcEEEEEEEE19__generic_constructB8ue170006IRKNS0_18__copy_constructorIS9_LNS0_6_TraitE1EEEEEvRSA_OT_ENKUlRSI_OT0_E_clINS0_5__altILm3EcEERKSQ_EEDaSK_SM_, symObjAddr: 0xFE04, symBinAddr: 0x100013AF8, symSize: 0x30 }
  - { offsetInCU: 0x13CDB, offset: 0x13CDB, size: 0x8, addend: 0x0, symName: __ZNSt3__116__variant_detail6__ctorINS0_8__traitsIJidbcNS_12basic_stringIcNS_11char_traitsIcEENS_9allocatorIcEEEEEEEE15__construct_altB8ue170006ILm3EcJRKcEEERT0_RNS0_5__altIXT_ESE_EEDpOT1_, symObjAddr: 0xFE34, symBinAddr: 0x100013B28, symSize: 0x30 }
  - { offsetInCU: 0x13D31, offset: 0x13D31, size: 0x8, addend: 0x0, symName: __ZNSt3__116__variant_detail5__altILm3EcEC1B8ue170006IJRKcEEENS_10in_place_tEDpOT_, symObjAddr: 0xFE64, symBinAddr: 0x100013B58, symSize: 0x34 }
  - { offsetInCU: 0x13D81, offset: 0x13D81, size: 0x8, addend: 0x0, symName: __ZNSt3__116__variant_detail5__altILm3EcEC2B8ue170006IJRKcEEENS_10in_place_tEDpOT_, symObjAddr: 0xFE98, symBinAddr: 0x100013B8C, symSize: 0xF8 }
  - { offsetInCU: 0x13DD1, offset: 0x13DD1, size: 0x8, addend: 0x0, symName: __ZNSt3__116__variant_detail8__access7__union9__get_altB8ue170006IRKNS0_7__unionILNS0_6_TraitE1ELm0EJidbcNS_12basic_stringIcNS_11char_traitsIcEENS_9allocatorIcEEEEEEELm3EEEODaOT_NS_16in_place_index_tIXT0_EEE, symObjAddr: 0xFF90, symBinAddr: 0x100013C84, symSize: 0x24 }
  - { offsetInCU: 0x13E14, offset: 0x13E14, size: 0x8, addend: 0x0, symName: __ZNSt3__116__variant_detail8__access7__union9__get_altB8ue170006IRKNS0_7__unionILNS0_6_TraitE1ELm1EJdbcNS_12basic_stringIcNS_11char_traitsIcEENS_9allocatorIcEEEEEEELm2EEEODaOT_NS_16in_place_index_tIXT0_EEE, symObjAddr: 0xFFB4, symBinAddr: 0x100013CA8, symSize: 0x24 }
  - { offsetInCU: 0x13E57, offset: 0x13E57, size: 0x8, addend: 0x0, symName: __ZNSt3__116__variant_detail8__access7__union9__get_altB8ue170006IRKNS0_7__unionILNS0_6_TraitE1ELm2EJbcNS_12basic_stringIcNS_11char_traitsIcEENS_9allocatorIcEEEEEEELm1EEEODaOT_NS_16in_place_index_tIXT0_EEE, symObjAddr: 0xFFD8, symBinAddr: 0x100013CCC, symSize: 0x24 }
  - { offsetInCU: 0x13E9A, offset: 0x13E9A, size: 0x8, addend: 0x0, symName: __ZNSt3__116__variant_detail8__access7__union9__get_altB8ue170006IRKNS0_7__unionILNS0_6_TraitE1ELm3EJcNS_12basic_stringIcNS_11char_traitsIcEENS_9allocatorIcEEEEEEEEEODaOT_NS_16in_place_index_tILm0EEE, symObjAddr: 0xFFFC, symBinAddr: 0x100013CF0, symSize: 0x14 }
  - { offsetInCU: 0x13EDD, offset: 0x13EDD, size: 0x8, addend: 0x0, symName: __ZNSt3__116__variant_detail8__access6__base9__get_altB8ue170006ILm4ERKNS0_6__baseILNS0_6_TraitE1EJidbcNS_12basic_stringIcNS_11char_traitsIcEENS_9allocatorIcEEEEEEEEEODaOT0_, symObjAddr: 0x10044, symBinAddr: 0x100013D38, symSize: 0x24 }
  - { offsetInCU: 0x13F14, offset: 0x13F14, size: 0x8, addend: 0x0, symName: __ZZNSt3__116__variant_detail6__ctorINS0_8__traitsIJidbcNS_12basic_stringIcNS_11char_traitsIcEENS_9allocatorIcEEEEEEEE19__generic_constructB8ue170006IRKNS0_18__copy_constructorIS9_LNS0_6_TraitE1EEEEEvRSA_OT_ENKUlRSI_OT0_E_clINS0_5__altILm4ES8_EERKSQ_EEDaSK_SM_, symObjAddr: 0x10068, symBinAddr: 0x100013D5C, symSize: 0x30 }
  - { offsetInCU: 0x13F6E, offset: 0x13F6E, size: 0x8, addend: 0x0, symName: __ZNSt3__116__variant_detail6__ctorINS0_8__traitsIJidbcNS_12basic_stringIcNS_11char_traitsIcEENS_9allocatorIcEEEEEEEE15__construct_altB8ue170006ILm4ES8_JRKS8_EEERT0_RNS0_5__altIXT_ESE_EEDpOT1_, symObjAddr: 0x10098, symBinAddr: 0x100013D8C, symSize: 0x30 }
  - { offsetInCU: 0x13FBF, offset: 0x13FBF, size: 0x8, addend: 0x0, symName: __ZNSt3__116__variant_detail5__altILm4ENS_12basic_stringIcNS_11char_traitsIcEENS_9allocatorIcEEEEEC1B8ue170006IJRKS7_EEENS_10in_place_tEDpOT_, symObjAddr: 0x100C8, symBinAddr: 0x100013DBC, symSize: 0x34 }
  - { offsetInCU: 0x1400F, offset: 0x1400F, size: 0x8, addend: 0x0, symName: __ZNSt3__116__variant_detail5__altILm4ENS_12basic_stringIcNS_11char_traitsIcEENS_9allocatorIcEEEEEC2B8ue170006IJRKS7_EEENS_10in_place_tEDpOT_, symObjAddr: 0x100FC, symBinAddr: 0x100013DF0, symSize: 0x34 }
  - { offsetInCU: 0x1405F, offset: 0x1405F, size: 0x8, addend: 0x0, symName: __ZNSt3__116__variant_detail8__access7__union9__get_altB8ue170006IRKNS0_7__unionILNS0_6_TraitE1ELm0EJidbcNS_12basic_stringIcNS_11char_traitsIcEENS_9allocatorIcEEEEEEELm4EEEODaOT_NS_16in_place_index_tIXT0_EEE, symObjAddr: 0x10130, symBinAddr: 0x100013E24, symSize: 0x24 }
  - { offsetInCU: 0x140A2, offset: 0x140A2, size: 0x8, addend: 0x0, symName: __ZNSt3__116__variant_detail8__access7__union9__get_altB8ue170006IRKNS0_7__unionILNS0_6_TraitE1ELm1EJdbcNS_12basic_stringIcNS_11char_traitsIcEENS_9allocatorIcEEEEEEELm3EEEODaOT_NS_16in_place_index_tIXT0_EEE, symObjAddr: 0x10154, symBinAddr: 0x100013E48, symSize: 0x24 }
  - { offsetInCU: 0x140E5, offset: 0x140E5, size: 0x8, addend: 0x0, symName: __ZNSt3__116__variant_detail8__access7__union9__get_altB8ue170006IRKNS0_7__unionILNS0_6_TraitE1ELm2EJbcNS_12basic_stringIcNS_11char_traitsIcEENS_9allocatorIcEEEEEEELm2EEEODaOT_NS_16in_place_index_tIXT0_EEE, symObjAddr: 0x10178, symBinAddr: 0x100013E6C, symSize: 0x24 }
  - { offsetInCU: 0x14128, offset: 0x14128, size: 0x8, addend: 0x0, symName: __ZNSt3__116__variant_detail8__access7__union9__get_altB8ue170006IRKNS0_7__unionILNS0_6_TraitE1ELm3EJcNS_12basic_stringIcNS_11char_traitsIcEENS_9allocatorIcEEEEEEELm1EEEODaOT_NS_16in_place_index_tIXT0_EEE, symObjAddr: 0x1019C, symBinAddr: 0x100013E90, symSize: 0x24 }
  - { offsetInCU: 0x1416B, offset: 0x1416B, size: 0x8, addend: 0x0, symName: __ZNSt3__116__variant_detail8__access7__union9__get_altB8ue170006IRKNS0_7__unionILNS0_6_TraitE1ELm4EJNS_12basic_stringIcNS_11char_traitsIcEENS_9allocatorIcEEEEEEEEEODaOT_NS_16in_place_index_tILm0EEE, symObjAddr: 0x101C0, symBinAddr: 0x100013EB4, symSize: 0x14 }
  - { offsetInCU: 0x141A4, offset: 0x141A4, size: 0x8, addend: 0x0, symName: __ZNSt3__117__compressed_pairIPNS_11__hash_nodeINS_17__hash_value_typeINS_12basic_stringIcNS_11char_traitsIcEENS_9allocatorIcEEEENS_7variantIJidbcS8_EEEEEPvEENS_22__hash_node_destructorINS6_ISD_EEEEE6secondB8ue170006Ev, symObjAddr: 0x101D4, symBinAddr: 0x100013EC8, symSize: 0x28 }
  - { offsetInCU: 0x141CA, offset: 0x141CA, size: 0x8, addend: 0x0, symName: __ZNSt3__122__compressed_pair_elemINS_22__hash_node_destructorINS_9allocatorINS_11__hash_nodeINS_17__hash_value_typeINS_12basic_stringIcNS_11char_traitsIcEENS2_IcEEEENS_7variantIJidbcS9_EEEEEPvEEEEEELi1ELb0EE5__getB8ue170006Ev, symObjAddr: 0x101FC, symBinAddr: 0x100013EF0, symSize: 0x14 }
  - { offsetInCU: 0x141F0, offset: 0x141F0, size: 0x8, addend: 0x0, symName: __ZNKSt3__117__compressed_pairIPNS_11__hash_nodeINS_17__hash_value_typeINS_12basic_stringIcNS_11char_traitsIcEENS_9allocatorIcEEEENS_7variantIJidbcS8_EEEEEPvEENS_22__hash_node_destructorINS6_ISD_EEEEE5firstB8ue170006Ev, symObjAddr: 0x10210, symBinAddr: 0x100013F04, symSize: 0x24 }
  - { offsetInCU: 0x14216, offset: 0x14216, size: 0x8, addend: 0x0, symName: __ZNKSt3__122__compressed_pair_elemIPNS_11__hash_nodeINS_17__hash_value_typeINS_12basic_stringIcNS_11char_traitsIcEENS_9allocatorIcEEEENS_7variantIJidbcS8_EEEEEPvEELi0ELb0EE5__getB8ue170006Ev, symObjAddr: 0x10234, symBinAddr: 0x100013F28, symSize: 0x14 }
  - { offsetInCU: 0x1423C, offset: 0x1423C, size: 0x8, addend: 0x0, symName: __ZNSt3__117__compressed_pairIPNS_11__hash_nodeINS_17__hash_value_typeINS_12basic_stringIcNS_11char_traitsIcEENS_9allocatorIcEEEENS_7variantIJidbcS8_EEEEEPvEENS_22__hash_node_destructorINS6_ISD_EEEEE5firstB8ue170006Ev, symObjAddr: 0x10248, symBinAddr: 0x100013F3C, symSize: 0x24 }
  - { offsetInCU: 0x14262, offset: 0x14262, size: 0x8, addend: 0x0, symName: __ZNSt3__122__compressed_pair_elemIPNS_11__hash_nodeINS_17__hash_value_typeINS_12basic_stringIcNS_11char_traitsIcEENS_9allocatorIcEEEENS_7variantIJidbcS8_EEEEEPvEELi0ELb0EE5__getB8ue170006Ev, symObjAddr: 0x1026C, symBinAddr: 0x100013F60, symSize: 0x14 }
  - { offsetInCU: 0x14288, offset: 0x14288, size: 0x8, addend: 0x0, symName: __ZNSt3__110unique_ptrINS_11__hash_nodeINS_17__hash_value_typeINS_12basic_stringIcNS_11char_traitsIcEENS_9allocatorIcEEEENS_7variantIJidbcS8_EEEEEPvEENS_22__hash_node_destructorINS6_ISD_EEEEED2B8ue170006Ev, symObjAddr: 0x10280, symBinAddr: 0x100013F74, symSize: 0x30 }
  - { offsetInCU: 0x142B2, offset: 0x142B2, size: 0x8, addend: 0x0, symName: __ZNSt3__110unique_ptrINS_11__hash_nodeINS_17__hash_value_typeINS_12basic_stringIcNS_11char_traitsIcEENS_9allocatorIcEEEENS_7variantIJidbcS8_EEEEEPvEENS_22__hash_node_destructorINS6_ISD_EEEEE5resetB8ue170006EPSD_, symObjAddr: 0x102B0, symBinAddr: 0x100013FA4, symSize: 0xEC }
  - { offsetInCU: 0x142F6, offset: 0x142F6, size: 0x8, addend: 0x0, symName: __ZNSt3__122__hash_node_destructorINS_9allocatorINS_11__hash_nodeINS_17__hash_value_typeINS_12basic_stringIcNS_11char_traitsIcEENS1_IcEEEENS_7variantIJidbcS8_EEEEEPvEEEEEclB8ue170006EPSD_, symObjAddr: 0x1039C, symBinAddr: 0x100014090, symSize: 0x168 }
  - { offsetInCU: 0x1432B, offset: 0x1432B, size: 0x8, addend: 0x0, symName: __ZNSt3__115__hash_iteratorIPNS_11__hash_nodeINS_17__hash_value_typeINS_12basic_stringIcNS_11char_traitsIcEENS_9allocatorIcEEEENS_7variantIJidbcS8_EEEEEPvEEEC2B8ue170006EPNS_16__hash_node_baseISE_EE, symObjAddr: 0x10504, symBinAddr: 0x1000141F8, symSize: 0x70 }
  - { offsetInCU: 0x14364, offset: 0x14364, size: 0x8, addend: 0x0, symName: __ZNSt3__14pairINS_15__hash_iteratorIPNS_11__hash_nodeINS_17__hash_value_typeINS_12basic_stringIcNS_11char_traitsIcEENS_9allocatorIcEEEENS_7variantIJidbcS9_EEEEEPvEEEEbEC2B8ue170006ISG_RbLSD_0EEEOT_OT0_, symObjAddr: 0x10574, symBinAddr: 0x100014268, symSize: 0x120 }
  - { offsetInCU: 0x143C2, offset: 0x143C2, size: 0x8, addend: 0x0, symName: __ZNKSt3__121__hash_const_iteratorIPNS_11__hash_nodeINS_17__hash_value_typeINS_12basic_stringIcNS_11char_traitsIcEENS_9allocatorIcEEEENS_7variantIJidbcS8_EEEEEPvEEEptB8ue170006Ev, symObjAddr: 0x10694, symBinAddr: 0x100014388, symSize: 0x6C }
  - { offsetInCU: 0x143E8, offset: 0x143E8, size: 0x8, addend: 0x0, symName: __ZNSt3__114pointer_traitsIPKNS_17__hash_value_typeINS_12basic_stringIcNS_11char_traitsIcEENS_9allocatorIcEEEENS_7variantIJidbcS7_EEEEEE10pointer_toB8ue170006ERSB_, symObjAddr: 0x10700, symBinAddr: 0x1000143F4, symSize: 0x14 }
  - { offsetInCU: 0x1440B, offset: 0x1440B, size: 0x8, addend: 0x0, symName: __ZNSt3__121__hash_const_iteratorIPNS_11__hash_nodeINS_17__hash_value_typeINS_12basic_stringIcNS_11char_traitsIcEENS_9allocatorIcEEEENS_7variantIJidbcS8_EEEEEPvEEEppB8ue170006Ev, symObjAddr: 0x10714, symBinAddr: 0x100014408, symSize: 0xDC }
  - { offsetInCU: 0x14431, offset: 0x14431, size: 0x8, addend: 0x0, symName: __ZNKSt3__112__hash_tableINS_17__hash_value_typeINS_12basic_stringIcNS_11char_traitsIcEENS_9allocatorIcEEEENS_7variantIJidbcS7_EEEEENS_22__unordered_map_hasherIS7_SA_NS_4hashIS7_EENS_8equal_toIS7_EELb1EEENS_21__unordered_map_equalIS7_SA_SF_SD_Lb1EEENS5_ISA_EEE5beginEv, symObjAddr: 0x107F0, symBinAddr: 0x1000144E4, symSize: 0x23C }
  - { offsetInCU: 0x1445A, offset: 0x1445A, size: 0x8, addend: 0x0, symName: __ZNSt3__125__hash_map_const_iteratorINS_21__hash_const_iteratorIPNS_11__hash_nodeINS_17__hash_value_typeINS_12basic_stringIcNS_11char_traitsIcEENS_9allocatorIcEEEENS_7variantIJidbcS9_EEEEEPvEEEEEC1B8ue170006ESG_, symObjAddr: 0x10A2C, symBinAddr: 0x100014720, symSize: 0x238 }
  - { offsetInCU: 0x14498, offset: 0x14498, size: 0x8, addend: 0x0, symName: __ZNKSt3__117__compressed_pairINS_16__hash_node_baseIPNS_11__hash_nodeINS_17__hash_value_typeINS_12basic_stringIcNS_11char_traitsIcEENS_9allocatorIcEEEENS_7variantIJidbcS9_EEEEEPvEEEENS7_ISE_EEE5firstB8ue170006Ev, symObjAddr: 0x10C64, symBinAddr: 0x100014958, symSize: 0x24 }
  - { offsetInCU: 0x144BE, offset: 0x144BE, size: 0x8, addend: 0x0, symName: __ZNSt3__121__hash_const_iteratorIPNS_11__hash_nodeINS_17__hash_value_typeINS_12basic_stringIcNS_11char_traitsIcEENS_9allocatorIcEEEENS_7variantIJidbcS8_EEEEEPvEEEC1B8ue170006EPNS_16__hash_node_baseISE_EE, symObjAddr: 0x10C88, symBinAddr: 0x10001497C, symSize: 0x34 }
  - { offsetInCU: 0x144F7, offset: 0x144F7, size: 0x8, addend: 0x0, symName: __ZNKSt3__122__compressed_pair_elemINS_16__hash_node_baseIPNS_11__hash_nodeINS_17__hash_value_typeINS_12basic_stringIcNS_11char_traitsIcEENS_9allocatorIcEEEENS_7variantIJidbcS9_EEEEEPvEEEELi0ELb0EE5__getB8ue170006Ev, symObjAddr: 0x10CBC, symBinAddr: 0x1000149B0, symSize: 0x14 }
  - { offsetInCU: 0x1451D, offset: 0x1451D, size: 0x8, addend: 0x0, symName: __ZNSt3__121__hash_const_iteratorIPNS_11__hash_nodeINS_17__hash_value_typeINS_12basic_stringIcNS_11char_traitsIcEENS_9allocatorIcEEEENS_7variantIJidbcS8_EEEEEPvEEEC2B8ue170006EPNS_16__hash_node_baseISE_EE, symObjAddr: 0x10CD0, symBinAddr: 0x1000149C4, symSize: 0x70 }
  - { offsetInCU: 0x14556, offset: 0x14556, size: 0x8, addend: 0x0, symName: __ZNSt3__125__hash_map_const_iteratorINS_21__hash_const_iteratorIPNS_11__hash_nodeINS_17__hash_value_typeINS_12basic_stringIcNS_11char_traitsIcEENS_9allocatorIcEEEENS_7variantIJidbcS9_EEEEEPvEEEEEC2B8ue170006ESG_, symObjAddr: 0x10D40, symBinAddr: 0x100014A34, symSize: 0x204 }
  - { offsetInCU: 0x14594, offset: 0x14594, size: 0x8, addend: 0x0, symName: __ZNKSt3__112__hash_tableINS_17__hash_value_typeINS_12basic_stringIcNS_11char_traitsIcEENS_9allocatorIcEEEENS_7variantIJidbcS7_EEEEENS_22__unordered_map_hasherIS7_SA_NS_4hashIS7_EENS_8equal_toIS7_EELb1EEENS_21__unordered_map_equalIS7_SA_SF_SD_Lb1EEENS5_ISA_EEE3endEv, symObjAddr: 0x10F44, symBinAddr: 0x100014C38, symSize: 0x1F8 }
  - { offsetInCU: 0x3B, offset: 0x147D1, size: 0x8, addend: 0x0, symName: _.str, symObjAddr: 0x10000, symBinAddr: 0x100141180, symSize: 0x0 }
  - { offsetInCU: 0x6B, offset: 0x14801, size: 0x8, addend: 0x0, symName: _.str.1, symObjAddr: 0x100A0, symBinAddr: 0x10014AA20, symSize: 0x0 }
  - { offsetInCU: 0x88, offset: 0x1481E, size: 0x8, addend: 0x0, symName: _.str.2, symObjAddr: 0x10020, symBinAddr: 0x1001411A0, symSize: 0x0 }
  - { offsetInCU: 0x9A, offset: 0x14830, size: 0x8, addend: 0x0, symName: _.str.3, symObjAddr: 0x10040, symBinAddr: 0x1001411C0, symSize: 0x0 }
  - { offsetInCU: 0xB8, offset: 0x1484E, size: 0x8, addend: 0x0, symName: _.str.4, symObjAddr: 0x10060, symBinAddr: 0x1001411E0, symSize: 0x0 }
  - { offsetInCU: 0xDB65, offset: 0x222FB, size: 0x8, addend: 0x0, symName: __ZNSt3__17advanceB8ue170006IPNS_12basic_stringIcNS_11char_traitsIcEENS_9allocatorIcEEEEllvEEvRT_T0_, symObjAddr: 0x94E0, symBinAddr: 0x10001CCF4, symSize: 0x38 }
  - { offsetInCU: 0xDDE5, offset: 0x2257B, size: 0x8, addend: 0x0, symName: __ZNSt3__17advanceB8ue170006INS_16reverse_iteratorIPNS_12basic_stringIcNS_11char_traitsIcEENS_9allocatorIcEEEEEEllvEEvRT_T0_, symObjAddr: 0xA7DC, symBinAddr: 0x10001DF80, symSize: 0x38 }
  - { offsetInCU: 0xDE50, offset: 0x225E6, size: 0x8, addend: 0x0, symName: __ZNSt3__124__put_character_sequenceB8ue170006IcNS_11char_traitsIcEEEERNS_13basic_ostreamIT_T0_EES7_PKS4_m, symObjAddr: 0xDF30, symBinAddr: 0x10001FC94, symSize: 0x744 }
  - { offsetInCU: 0x1079D, offset: 0x24F33, size: 0x8, addend: 0x0, symName: __ZNSt3__1neB8ue170006IPcEEbRKNS_11__wrap_iterIT_EES6_, symObjAddr: 0x1C3C, symBinAddr: 0x100016A1C, symSize: 0x34 }
  - { offsetInCU: 0x107E0, offset: 0x24F76, size: 0x8, addend: 0x0, symName: __ZNSt3__1lsB8ue170006INS_11char_traitsIcEEEERNS_13basic_ostreamIcT_EES6_c, symObjAddr: 0x1F24, symBinAddr: 0x100016D04, symSize: 0x220 }
  - { offsetInCU: 0x1082B, offset: 0x24FC1, size: 0x8, addend: 0x0, symName: __ZNSt3__14endlB8ue170006IcNS_11char_traitsIcEEEERNS_13basic_ostreamIT_T0_EES7_, symObjAddr: 0x21A0, symBinAddr: 0x100016F80, symSize: 0xD4 }
  - { offsetInCU: 0x1086B, offset: 0x25001, size: 0x8, addend: 0x0, symName: __ZNSt3__110__str_findB8ue170006IcmNS_11char_traitsIcEELm18446744073709551615EEET0_PKT_S3_S6_S3_S3_, symObjAddr: 0x3F40, symBinAddr: 0x100018BE4, symSize: 0xF8 }
  - { offsetInCU: 0x10912, offset: 0x250A8, size: 0x8, addend: 0x0, symName: __ZNSt3__118__search_substringB8ue170006IcNS_11char_traitsIcEEEEPKT_S5_S5_S5_S5_, symObjAddr: 0x4060, symBinAddr: 0x100018CDC, symSize: 0x3F8 }
  - { offsetInCU: 0x109B6, offset: 0x2514C, size: 0x8, addend: 0x0, symName: __ZNSt3__118__constexpr_memchrB8ue170006IKccEEPT_S3_T0_m, symObjAddr: 0x4578, symBinAddr: 0x1000191C0, symSize: 0x2C4 }
  - { offsetInCU: 0x10A54, offset: 0x251EA, size: 0x8, addend: 0x0, symName: __ZNSt3__112construct_atB8ue170006INS_12basic_stringIcNS_11char_traitsIcEENS_9allocatorIcEEEEJRKS6_EPS6_EEPT_SB_DpOT0_, symObjAddr: 0x6088, symBinAddr: 0x100019FA4, symSize: 0x3C }
  - { offsetInCU: 0x10CAE, offset: 0x25444, size: 0x8, addend: 0x0, symName: __ZNSt3__120__throw_length_errorB8ue170006EPKc, symObjAddr: 0x7490, symBinAddr: 0x10001B05C, symSize: 0x68 }
  - { offsetInCU: 0x10CD8, offset: 0x2546E, size: 0x8, addend: 0x0, symName: __ZNSt3__119__allocate_at_leastB8ue170006INS_9allocatorINS_12basic_stringIcNS_11char_traitsIcEENS1_IcEEEEEEEENS_19__allocation_resultINS_16allocator_traitsIT_E7pointerEEERSA_m, symObjAddr: 0x7D0C, symBinAddr: 0x10001B6F0, symSize: 0x28C }
  - { offsetInCU: 0x10D1D, offset: 0x254B3, size: 0x8, addend: 0x0, symName: __ZNSt3__142__uninitialized_allocator_move_if_noexceptB8ue170006INS_9allocatorINS_12basic_stringIcNS_11char_traitsIcEENS1_IcEEEEEENS_16reverse_iteratorIPS6_EESA_SA_EET2_RT_T0_T1_SB_, symObjAddr: 0x837C, symBinAddr: 0x10001BB90, symSize: 0x544 }
  - { offsetInCU: 0x10DD2, offset: 0x25568, size: 0x8, addend: 0x0, symName: __ZNSt3__14swapB8ue170006IPNS_12basic_stringIcNS_11char_traitsIcEENS_9allocatorIcEEEEEENS_9enable_ifIXaasr21is_move_constructibleIT_EE5valuesr18is_move_assignableIS9_EE5valueEvE4typeERS9_SC_, symObjAddr: 0x8958, symBinAddr: 0x10001C16C, symSize: 0x134 }
  - { offsetInCU: 0x10E23, offset: 0x255B9, size: 0x8, addend: 0x0, symName: __ZNSt3__122__make_exception_guardB8ue170006INS_29_AllocatorDestroyRangeReverseINS_9allocatorINS_12basic_stringIcNS_11char_traitsIcEENS2_IcEEEEEENS_16reverse_iteratorIPS7_EEEEEENS_28__exception_guard_exceptionsIT_EESE_, symObjAddr: 0x8B68, symBinAddr: 0x10001C37C, symSize: 0x1F8 }
  - { offsetInCU: 0x10E5A, offset: 0x255F0, size: 0x8, addend: 0x0, symName: __ZNSt3__1neB8ue170006IPNS_12basic_stringIcNS_11char_traitsIcEENS_9allocatorIcEEEES7_EEbRKNS_16reverse_iteratorIT_EERKNS8_IT0_EE, symObjAddr: 0x8DA4, symBinAddr: 0x10001C5B8, symSize: 0x48 }
  - { offsetInCU: 0x10EA6, offset: 0x2563C, size: 0x8, addend: 0x0, symName: __ZNSt3__112__to_addressB8ue170006INS_16reverse_iteratorIPNS_12basic_stringIcNS_11char_traitsIcEENS_9allocatorIcEEEEEEvEEu7__decayIDTclsr19__to_address_helperIT_EE6__callclsr3stdE7declvalIRKSA_EEEEESC_, symObjAddr: 0x8E1C, symBinAddr: 0x10001C630, symSize: 0x24 }
  - { offsetInCU: 0x10EDC, offset: 0x25672, size: 0x8, addend: 0x0, symName: __ZNSt3__112construct_atB8ue170006INS_12basic_stringIcNS_11char_traitsIcEENS_9allocatorIcEEEEJS6_EPS6_EEPT_S9_DpOT0_, symObjAddr: 0x91B4, symBinAddr: 0x10001C9C8, symSize: 0x3C }
  - { offsetInCU: 0x10F76, offset: 0x2570C, size: 0x8, addend: 0x0, symName: __ZNSt3__14prevB8ue170006IPNS_12basic_stringIcNS_11char_traitsIcEENS_9allocatorIcEEEEEENS_9enable_ifIXsr29__has_input_iterator_categoryIT_EE5valueES9_E4typeES9_NS_15iterator_traitsIS9_E15difference_typeE, symObjAddr: 0x92A0, symBinAddr: 0x10001CAB4, symSize: 0x240 }
  - { offsetInCU: 0x10FBE, offset: 0x25754, size: 0x8, addend: 0x0, symName: __ZNSt3__121__convert_to_integralB8ue170006El, symObjAddr: 0x9518, symBinAddr: 0x10001CD2C, symSize: 0x14 }
  - { offsetInCU: 0x10FEA, offset: 0x25780, size: 0x8, addend: 0x0, symName: __ZNSt3__19__advanceB8ue170006IPNS_12basic_stringIcNS_11char_traitsIcEENS_9allocatorIcEEEEEEvRT_NS_15iterator_traitsIS8_E15difference_typeENS_26random_access_iterator_tagE, symObjAddr: 0x952C, symBinAddr: 0x10001CD40, symSize: 0x80 }
  - { offsetInCU: 0x11034, offset: 0x257CA, size: 0x8, addend: 0x0, symName: __ZNSt3__119__allocator_destroyB8ue170006INS_9allocatorINS_12basic_stringIcNS_11char_traitsIcEENS1_IcEEEEEENS_16reverse_iteratorINS8_IPS6_EEEESB_EEvRT_T0_T1_, symObjAddr: 0x9A10, symBinAddr: 0x10001D224, symSize: 0x70 }
  - { offsetInCU: 0x11099, offset: 0x2582F, size: 0x8, addend: 0x0, symName: __ZNSt3__1neB8ue170006INS_16reverse_iteratorIPNS_12basic_stringIcNS_11char_traitsIcEENS_9allocatorIcEEEEEES9_EEbRKNS1_IT_EERKNS1_IT0_EE, symObjAddr: 0x9CC8, symBinAddr: 0x10001D4DC, symSize: 0x2CC }
  - { offsetInCU: 0x110E7, offset: 0x2587D, size: 0x8, addend: 0x0, symName: __ZNSt3__112__to_addressB8ue170006INS_16reverse_iteratorINS1_IPNS_12basic_stringIcNS_11char_traitsIcEENS_9allocatorIcEEEEEEEEvEEu7__decayIDTclsr19__to_address_helperIT_EE6__callclsr3stdE7declvalIRKSB_EEEEESD_, symObjAddr: 0x9FBC, symBinAddr: 0x10001D7A8, symSize: 0x24 }
  - { offsetInCU: 0x11147, offset: 0x258DD, size: 0x8, addend: 0x0, symName: __ZNSt3__14prevB8ue170006INS_16reverse_iteratorIPNS_12basic_stringIcNS_11char_traitsIcEENS_9allocatorIcEEEEEEEENS_9enable_ifIXsr29__has_input_iterator_categoryIT_EE5valueESB_E4typeESB_NS_15iterator_traitsISB_E15difference_typeE, symObjAddr: 0xA548, symBinAddr: 0x10001DCEC, symSize: 0x294 }
  - { offsetInCU: 0x1118F, offset: 0x25925, size: 0x8, addend: 0x0, symName: __ZNSt3__19__advanceB8ue170006INS_16reverse_iteratorIPNS_12basic_stringIcNS_11char_traitsIcEENS_9allocatorIcEEEEEEEEvRT_NS_15iterator_traitsISA_E15difference_typeENS_26random_access_iterator_tagE, symObjAddr: 0xA814, symBinAddr: 0x10001DFB8, symSize: 0x2C }
  - { offsetInCU: 0x111D9, offset: 0x2596F, size: 0x8, addend: 0x0, symName: __ZNSt3__119__str_find_first_ofB8ue170006IcmNS_11char_traitsIcEELm18446744073709551615EEET0_PKT_S3_S6_S3_S3_, symObjAddr: 0xB790, symBinAddr: 0x10001E764, symSize: 0x110 }
  - { offsetInCU: 0x11280, offset: 0x25A16, size: 0x8, addend: 0x0, symName: __ZNSt3__118__find_first_of_ceB8ue170006IPKcS2_RDoFbccEEET_S5_S5_T0_S6_OT1_, symObjAddr: 0xB8E0, symBinAddr: 0x10001E874, symSize: 0x1C8 }
  - { offsetInCU: 0x1131B, offset: 0x25AB1, size: 0x8, addend: 0x0, symName: __ZNSt3__118__str_find_last_ofB8ue170006IcmNS_11char_traitsIcEELm18446744073709551615EEET0_PKT_S3_S6_S3_S3_, symObjAddr: 0xBAF4, symBinAddr: 0x10001EA64, symSize: 0x140 }
  - { offsetInCU: 0x113ED, offset: 0x25B83, size: 0x8, addend: 0x0, symName: __ZNSt3__1eqB8ue170006IPcEEbRKNS_11__wrap_iterIT_EES6_, symObjAddr: 0xC138, symBinAddr: 0x10001EE98, symSize: 0x48 }
  - { offsetInCU: 0x11430, offset: 0x25BC6, size: 0x8, addend: 0x0, symName: __ZNSt3__116__pad_and_outputB8ue170006IcNS_11char_traitsIcEEEENS_19ostreambuf_iteratorIT_T0_EES6_PKS4_S8_S8_RNS_8ios_baseES4_, symObjAddr: 0xE6FC, symBinAddr: 0x100020460, symSize: 0x760 }
  - { offsetInCU: 0x1150E, offset: 0x25CA4, size: 0x8, addend: 0x0, symName: __ZNSt3__112__to_addressB8ue170006IcEEPT_S2_, symObjAddr: 0xF56C, symBinAddr: 0x1000212D0, symSize: 0x14 }
  - { offsetInCU: 0x11543, offset: 0x25CD9, size: 0x8, addend: 0x0, symName: __ZNSt3__19use_facetB8ue170006INS_5ctypeIcEEEERKT_RKNS_6localeE, symObjAddr: 0xF9E0, symBinAddr: 0x100021744, symSize: 0x2C }
  - { offsetInCU: 0x126BD, offset: 0x26E53, size: 0x8, addend: 0x0, symName: __ZNSt3__16vectorINS_12basic_stringIcNS_11char_traitsIcEENS_9allocatorIcEEEENS4_IS6_EEE26__swap_out_circular_bufferERNS_14__split_bufferIS6_RS7_EE, symObjAddr: 0x6820, symBinAddr: 0x10001A704, symSize: 0x56C }
  - { offsetInCU: 0x12EC6, offset: 0x2765C, size: 0x8, addend: 0x0, symName: __Z7isspacei, symObjAddr: 0x3328, symBinAddr: 0x100018108, symSize: 0x28 }
  - { offsetInCU: 0x146FB, offset: 0x28E91, size: 0x8, addend: 0x0, symName: __Z8readFileNSt3__112basic_stringIcNS_11char_traitsIcEENS_9allocatorIcEEEE, symObjAddr: 0x0, symBinAddr: 0x100014EC8, symSize: 0x3D0 }
  - { offsetInCU: 0x1487E, offset: 0x29014, size: 0x8, addend: 0x0, symName: __ZNSt3__114basic_ifstreamIcNS_11char_traitsIcEEEC1ERKNS_12basic_stringIcS2_NS_9allocatorIcEEEEj, symObjAddr: 0x3D0, symBinAddr: 0x100015298, symSize: 0x2AC }
  - { offsetInCU: 0x148C8, offset: 0x2905E, size: 0x8, addend: 0x0, symName: __ZNSt3__112basic_stringIcNS_11char_traitsIcEENS_9allocatorIcEEEC1B8ue170006Ev, symObjAddr: 0x67C, symBinAddr: 0x100015544, symSize: 0x2C }
  - { offsetInCU: 0x148F2, offset: 0x29088, size: 0x8, addend: 0x0, symName: __ZNKSt3__19basic_iosIcNS_11char_traitsIcEEEcvbB8ue170006Ev, symObjAddr: 0x6A8, symBinAddr: 0x100015570, symSize: 0x2C }
  - { offsetInCU: 0x14918, offset: 0x290AE, size: 0x8, addend: 0x0, symName: __ZNSt3__112basic_stringIcNS_11char_traitsIcEENS_9allocatorIcEEEpLB8ue170006Ec, symObjAddr: 0x6D4, symBinAddr: 0x10001559C, symSize: 0x34 }
  - { offsetInCU: 0x1494D, offset: 0x290E3, size: 0x8, addend: 0x0, symName: __ZNSt3__114basic_ifstreamIcNS_11char_traitsIcEEE5closeEv, symObjAddr: 0x708, symBinAddr: 0x1000155D0, symSize: 0xD4 }
  - { offsetInCU: 0x1497A, offset: 0x29110, size: 0x8, addend: 0x0, symName: __ZNSt3__114basic_ifstreamIcNS_11char_traitsIcEEED1Ev, symObjAddr: 0x7DC, symBinAddr: 0x1000156A4, symSize: 0x40 }
  - { offsetInCU: 0x149A6, offset: 0x2913C, size: 0x8, addend: 0x0, symName: __Z5splitNSt3__112basic_stringIcNS_11char_traitsIcEENS_9allocatorIcEEEES5_, symObjAddr: 0x81C, symBinAddr: 0x1000156E4, symSize: 0x488 }
  - { offsetInCU: 0x14A16, offset: 0x291AC, size: 0x8, addend: 0x0, symName: __ZNSt3__16vectorINS_12basic_stringIcNS_11char_traitsIcEENS_9allocatorIcEEEENS4_IS6_EEEC1B8ue170006Ev, symObjAddr: 0xCA4, symBinAddr: 0x100015B6C, symSize: 0x2C }
  - { offsetInCU: 0x14A40, offset: 0x291D6, size: 0x8, addend: 0x0, symName: __ZNKSt3__112basic_stringIcNS_11char_traitsIcEENS_9allocatorIcEEE4findB8ue170006ERKS5_m, symObjAddr: 0xCD0, symBinAddr: 0x100015B98, symSize: 0x78 }
  - { offsetInCU: 0x14A86, offset: 0x2921C, size: 0x8, addend: 0x0, symName: __ZNKSt3__112basic_stringIcNS_11char_traitsIcEENS_9allocatorIcEEE6substrB8ue170006Emm, symObjAddr: 0xD48, symBinAddr: 0x100015C10, symSize: 0x210 }
  - { offsetInCU: 0x14ACD, offset: 0x29263, size: 0x8, addend: 0x0, symName: __ZNSt3__16vectorINS_12basic_stringIcNS_11char_traitsIcEENS_9allocatorIcEEEENS4_IS6_EEE9push_backB8ue170006ERKS6_, symObjAddr: 0xF8C, symBinAddr: 0x100015E20, symSize: 0xE0 }
  - { offsetInCU: 0x14B03, offset: 0x29299, size: 0x8, addend: 0x0, symName: __Z22containsEmbeddedStringNSt3__112basic_stringIcNS_11char_traitsIcEENS_9allocatorIcEEEE, symObjAddr: 0x10EC, symBinAddr: 0x100015F00, symSize: 0x90 }
  - { offsetInCU: 0x14B4D, offset: 0x292E3, size: 0x8, addend: 0x0, symName: __ZNKSt3__112basic_stringIcNS_11char_traitsIcEENS_9allocatorIcEEE13find_first_ofB8ue170006EPKcm, symObjAddr: 0x117C, symBinAddr: 0x100015F90, symSize: 0x74 }
  - { offsetInCU: 0x14B93, offset: 0x29329, size: 0x8, addend: 0x0, symName: __ZNKSt3__112basic_stringIcNS_11char_traitsIcEENS_9allocatorIcEEE12find_last_ofB8ue170006EPKcm, symObjAddr: 0x11F0, symBinAddr: 0x100016004, symSize: 0x74 }
  - { offsetInCU: 0x14BD8, offset: 0x2936E, size: 0x8, addend: 0x0, symName: __Z8containsNSt3__112basic_stringIcNS_11char_traitsIcEENS_9allocatorIcEEEES5_, symObjAddr: 0x1264, symBinAddr: 0x100016078, symSize: 0x3C }
  - { offsetInCU: 0x14C14, offset: 0x293AA, size: 0x8, addend: 0x0, symName: __Z6lstripNSt3__112basic_stringIcNS_11char_traitsIcEENS_9allocatorIcEEEE, symObjAddr: 0x12A0, symBinAddr: 0x1000160B4, symSize: 0x4B4 }
  - { offsetInCU: 0x14CAC, offset: 0x29442, size: 0x8, addend: 0x0, symName: __ZNSt3__112basic_stringIcNS_11char_traitsIcEENS_9allocatorIcEEE5beginB8ue170006Ev, symObjAddr: 0x1788, symBinAddr: 0x100016568, symSize: 0x258 }
  - { offsetInCU: 0x14CD3, offset: 0x29469, size: 0x8, addend: 0x0, symName: __ZNSt3__112basic_stringIcNS_11char_traitsIcEENS_9allocatorIcEEE3endB8ue170006Ev, symObjAddr: 0x19E0, symBinAddr: 0x1000167C0, symSize: 0x25C }
  - { offsetInCU: 0x14CFA, offset: 0x29490, size: 0x8, addend: 0x0, symName: __ZNKSt3__111__wrap_iterIPcEdeB8ue170006Ev, symObjAddr: 0x1C70, symBinAddr: 0x100016A50, symSize: 0x60 }
  - { offsetInCU: 0x14D20, offset: 0x294B6, size: 0x8, addend: 0x0, symName: __ZNSt3__111__wrap_iterIPcEppB8ue170006Ev, symObjAddr: 0x1CD0, symBinAddr: 0x100016AB0, symSize: 0x68 }
  - { offsetInCU: 0x14D45, offset: 0x294DB, size: 0x8, addend: 0x0, symName: __Z7reverseNSt3__112basic_stringIcNS_11char_traitsIcEENS_9allocatorIcEEEE, symObjAddr: 0x1D38, symBinAddr: 0x100016B18, symSize: 0x1EC }
  - { offsetInCU: 0x14D9E, offset: 0x29534, size: 0x8, addend: 0x0, symName: __ZNSt3__112basic_stringIcNS_11char_traitsIcEENS_9allocatorIcEEEixB8ue170006Em, symObjAddr: 0x2144, symBinAddr: 0x100016F24, symSize: 0x30 }
  - { offsetInCU: 0x14DD3, offset: 0x29569, size: 0x8, addend: 0x0, symName: __ZNSt3__113basic_ostreamIcNS_11char_traitsIcEEElsB8ue170006EPFRS3_S4_E, symObjAddr: 0x2174, symBinAddr: 0x100016F54, symSize: 0x2C }
  - { offsetInCU: 0x14E06, offset: 0x2959C, size: 0x8, addend: 0x0, symName: __Z6rstripNSt3__112basic_stringIcNS_11char_traitsIcEENS_9allocatorIcEEEE, symObjAddr: 0x2274, symBinAddr: 0x100017054, symSize: 0x5D8 }
  - { offsetInCU: 0x14E6F, offset: 0x29605, size: 0x8, addend: 0x0, symName: __ZNKSt3__112basic_stringIcNS_11char_traitsIcEENS_9allocatorIcEEE9ends_withB8ue170006EPKc, symObjAddr: 0x284C, symBinAddr: 0x10001762C, symSize: 0x228 }
  - { offsetInCU: 0x14EA6, offset: 0x2963C, size: 0x8, addend: 0x0, symName: __ZNSt3__112basic_stringIcNS_11char_traitsIcEENS_9allocatorIcEEEC1B8ue170006EOS5_, symObjAddr: 0x2A74, symBinAddr: 0x100017854, symSize: 0x34 }
  - { offsetInCU: 0x14EDE, offset: 0x29674, size: 0x8, addend: 0x0, symName: __Z5stripNSt3__112basic_stringIcNS_11char_traitsIcEENS_9allocatorIcEEEE, symObjAddr: 0x2AA8, symBinAddr: 0x100017888, symSize: 0x40C }
  - { offsetInCU: 0x14F1C, offset: 0x296B2, size: 0x8, addend: 0x0, symName: __Z21removeInnerWhitespaceNSt3__112basic_stringIcNS_11char_traitsIcEENS_9allocatorIcEEEE, symObjAddr: 0x2EB4, symBinAddr: 0x100017C94, symSize: 0x474 }
  - { offsetInCU: 0x14FAF, offset: 0x29745, size: 0x8, addend: 0x0, symName: __ZNSt3__112basic_stringIcNS_11char_traitsIcEENS_9allocatorIcEEEC2B8ue170006Ev, symObjAddr: 0x3350, symBinAddr: 0x100018130, symSize: 0x20C }
  - { offsetInCU: 0x14FDF, offset: 0x29775, size: 0x8, addend: 0x0, symName: __ZNSt3__112basic_stringIcNS_11char_traitsIcEENS_9allocatorIcEEE14__default_initB8ue170006Ev, symObjAddr: 0x35A4, symBinAddr: 0x10001833C, symSize: 0x22C }
  - { offsetInCU: 0x15006, offset: 0x2979C, size: 0x8, addend: 0x0, symName: __ZNSt3__114basic_ifstreamIcNS_11char_traitsIcEEED2Ev, symObjAddr: 0x38C4, symBinAddr: 0x100018568, symSize: 0x198 }
  - { offsetInCU: 0x15040, offset: 0x297D6, size: 0x8, addend: 0x0, symName: __ZTv0_n24_NSt3__114basic_ifstreamIcNS_11char_traitsIcEEED1Ev, symObjAddr: 0x3A5C, symBinAddr: 0x100018700, symSize: 0xB0 }
  - { offsetInCU: 0x15057, offset: 0x297ED, size: 0x8, addend: 0x0, symName: __ZNSt3__16vectorINS_12basic_stringIcNS_11char_traitsIcEENS_9allocatorIcEEEENS4_IS6_EEEC2B8ue170006Ev, symObjAddr: 0x3B0C, symBinAddr: 0x1000187B0, symSize: 0x2E8 }
  - { offsetInCU: 0x15087, offset: 0x2981D, size: 0x8, addend: 0x0, symName: __ZNSt3__117__compressed_pairIPNS_12basic_stringIcNS_11char_traitsIcEENS_9allocatorIcEEEENS4_IS6_EEEC1B8ue170006IDnNS_18__default_init_tagEEEOT_OT0_, symObjAddr: 0x3DF4, symBinAddr: 0x100018A98, symSize: 0x3C }
  - { offsetInCU: 0x150DF, offset: 0x29875, size: 0x8, addend: 0x0, symName: __ZNSt3__117__compressed_pairIPNS_12basic_stringIcNS_11char_traitsIcEENS_9allocatorIcEEEENS4_IS6_EEEC2B8ue170006IDnNS_18__default_init_tagEEEOT_OT0_, symObjAddr: 0x3E30, symBinAddr: 0x100018AD4, symSize: 0x40 }
  - { offsetInCU: 0x15137, offset: 0x298CD, size: 0x8, addend: 0x0, symName: __ZNSt3__122__compressed_pair_elemIPNS_12basic_stringIcNS_11char_traitsIcEENS_9allocatorIcEEEELi0ELb0EEC2B8ue170006IDnvEEOT_, symObjAddr: 0x3E70, symBinAddr: 0x100018B14, symSize: 0x64 }
  - { offsetInCU: 0x15179, offset: 0x2990F, size: 0x8, addend: 0x0, symName: __ZNSt3__122__compressed_pair_elemINS_9allocatorINS_12basic_stringIcNS_11char_traitsIcEENS1_IcEEEEEELi1ELb1EEC2B8ue170006ENS_18__default_init_tagE, symObjAddr: 0x3ED4, symBinAddr: 0x100018B78, symSize: 0x2C }
  - { offsetInCU: 0x151AE, offset: 0x29944, size: 0x8, addend: 0x0, symName: __ZNSt3__19allocatorINS_12basic_stringIcNS_11char_traitsIcEENS0_IcEEEEEC2B8ue170006Ev, symObjAddr: 0x3F00, symBinAddr: 0x100018BA4, symSize: 0x2C }
  - { offsetInCU: 0x151D8, offset: 0x2996E, size: 0x8, addend: 0x0, symName: __ZNSt3__116__non_trivial_ifILb1ENS_9allocatorINS_12basic_stringIcNS_11char_traitsIcEENS1_IcEEEEEEEC2B8ue170006Ev, symObjAddr: 0x3F2C, symBinAddr: 0x100018BD0, symSize: 0x14 }
  - { offsetInCU: 0x15202, offset: 0x29998, size: 0x8, addend: 0x0, symName: __ZNSt3__111char_traitsIcE4findB8ue170006EPKcmRS2_, symObjAddr: 0x4458, symBinAddr: 0x1000190D4, symSize: 0xEC }
  - { offsetInCU: 0x15241, offset: 0x299D7, size: 0x8, addend: 0x0, symName: __ZNSt3__19allocatorIcEC1B8ue170006Ev, symObjAddr: 0x4A28, symBinAddr: 0x100019484, symSize: 0x2C }
  - { offsetInCU: 0x1526B, offset: 0x29A01, size: 0x8, addend: 0x0, symName: __ZNSt3__16vectorINS_12basic_stringIcNS_11char_traitsIcEENS_9allocatorIcEEEENS4_IS6_EEE9__end_capB8ue170006Ev, symObjAddr: 0x52D0, symBinAddr: 0x1000194B0, symSize: 0x28 }
  - { offsetInCU: 0x15291, offset: 0x29A27, size: 0x8, addend: 0x0, symName: __ZNSt3__16vectorINS_12basic_stringIcNS_11char_traitsIcEENS_9allocatorIcEEEENS4_IS6_EEE22__construct_one_at_endB8ue170006IJRKS6_EEEvDpOT_, symObjAddr: 0x52F8, symBinAddr: 0x1000194D8, symSize: 0x36C }
  - { offsetInCU: 0x152E6, offset: 0x29A7C, size: 0x8, addend: 0x0, symName: __ZNSt3__16vectorINS_12basic_stringIcNS_11char_traitsIcEENS_9allocatorIcEEEENS4_IS6_EEE21__push_back_slow_pathIRKS6_EEvOT_, symObjAddr: 0x5664, symBinAddr: 0x100019844, symSize: 0x3C0 }
  - { offsetInCU: 0x1534B, offset: 0x29AE1, size: 0x8, addend: 0x0, symName: __ZNSt3__117__compressed_pairIPNS_12basic_stringIcNS_11char_traitsIcEENS_9allocatorIcEEEENS4_IS6_EEE5firstB8ue170006Ev, symObjAddr: 0x5A24, symBinAddr: 0x100019C04, symSize: 0x24 }
  - { offsetInCU: 0x15371, offset: 0x29B07, size: 0x8, addend: 0x0, symName: __ZNSt3__122__compressed_pair_elemIPNS_12basic_stringIcNS_11char_traitsIcEENS_9allocatorIcEEEELi0ELb0EE5__getB8ue170006Ev, symObjAddr: 0x5A48, symBinAddr: 0x100019C28, symSize: 0x14 }
  - { offsetInCU: 0x153B0, offset: 0x29B46, size: 0x8, addend: 0x0, symName: __ZNSt3__16vectorINS_12basic_stringIcNS_11char_traitsIcEENS_9allocatorIcEEEENS4_IS6_EEE21_ConstructTransactionC1B8ue170006ERS8_m, symObjAddr: 0x5A5C, symBinAddr: 0x100019C3C, symSize: 0x3C }
  - { offsetInCU: 0x153F8, offset: 0x29B8E, size: 0x8, addend: 0x0, symName: __ZNSt3__116allocator_traitsINS_9allocatorINS_12basic_stringIcNS_11char_traitsIcEENS1_IcEEEEEEE9constructB8ue170006IS6_JRKS6_EvvEEvRS7_PT_DpOT0_, symObjAddr: 0x5A98, symBinAddr: 0x100019C78, symSize: 0x30 }
  - { offsetInCU: 0x1544D, offset: 0x29BE3, size: 0x8, addend: 0x0, symName: __ZNSt3__16vectorINS_12basic_stringIcNS_11char_traitsIcEENS_9allocatorIcEEEENS4_IS6_EEE21_ConstructTransactionD1B8ue170006Ev, symObjAddr: 0x5B04, symBinAddr: 0x100019CA8, symSize: 0x2C }
  - { offsetInCU: 0x15477, offset: 0x29C0D, size: 0x8, addend: 0x0, symName: __ZNSt3__16vectorINS_12basic_stringIcNS_11char_traitsIcEENS_9allocatorIcEEEENS4_IS6_EEE21_ConstructTransactionC2B8ue170006ERS8_m, symObjAddr: 0x5B30, symBinAddr: 0x100019CD4, symSize: 0x1D8 }
  - { offsetInCU: 0x154BF, offset: 0x29C55, size: 0x8, addend: 0x0, symName: __ZNKSt3__16vectorINS_12basic_stringIcNS_11char_traitsIcEENS_9allocatorIcEEEENS4_IS6_EEE19__annotate_increaseB8ue170006Em, symObjAddr: 0x5D08, symBinAddr: 0x100019EAC, symSize: 0xF8 }
  - { offsetInCU: 0x154F4, offset: 0x29C8A, size: 0x8, addend: 0x0, symName: __ZNSt3__16vectorINS_12basic_stringIcNS_11char_traitsIcEENS_9allocatorIcEEEENS4_IS6_EEE21_ConstructTransactionD2B8ue170006Ev, symObjAddr: 0x60FC, symBinAddr: 0x100019FE0, symSize: 0x278 }
  - { offsetInCU: 0x1551E, offset: 0x29CB4, size: 0x8, addend: 0x0, symName: __ZNKSt3__16vectorINS_12basic_stringIcNS_11char_traitsIcEENS_9allocatorIcEEEENS4_IS6_EEE17__annotate_shrinkB8ue170006Em, symObjAddr: 0x6374, symBinAddr: 0x10001A258, symSize: 0xE4 }
  - { offsetInCU: 0x15553, offset: 0x29CE9, size: 0x8, addend: 0x0, symName: __ZNKSt3__16vectorINS_12basic_stringIcNS_11char_traitsIcEENS_9allocatorIcEEEENS4_IS6_EEE11__recommendB8ue170006Em, symObjAddr: 0x6458, symBinAddr: 0x10001A33C, symSize: 0x384 }
  - { offsetInCU: 0x155AF, offset: 0x29D45, size: 0x8, addend: 0x0, symName: __ZNSt3__114__split_bufferINS_12basic_stringIcNS_11char_traitsIcEENS_9allocatorIcEEEERNS4_IS6_EEEC1EmmS8_, symObjAddr: 0x67DC, symBinAddr: 0x10001A6C0, symSize: 0x44 }
  - { offsetInCU: 0x15605, offset: 0x29D9B, size: 0x8, addend: 0x0, symName: __ZNSt3__114__split_bufferINS_12basic_stringIcNS_11char_traitsIcEENS_9allocatorIcEEEERNS4_IS6_EEED1Ev, symObjAddr: 0x6D8C, symBinAddr: 0x10001AC70, symSize: 0x2C }
  - { offsetInCU: 0x15631, offset: 0x29DC7, size: 0x8, addend: 0x0, symName: __ZNKSt3__16vectorINS_12basic_stringIcNS_11char_traitsIcEENS_9allocatorIcEEEENS4_IS6_EEE8max_sizeEv, symObjAddr: 0x6DB8, symBinAddr: 0x10001AC9C, symSize: 0x2FC }
  - { offsetInCU: 0x1565A, offset: 0x29DF0, size: 0x8, addend: 0x0, symName: __ZNKSt3__16vectorINS_12basic_stringIcNS_11char_traitsIcEENS_9allocatorIcEEEENS4_IS6_EEE20__throw_length_errorB8ue170006Ev, symObjAddr: 0x70B4, symBinAddr: 0x10001AF98, symSize: 0x20 }
  - { offsetInCU: 0x1568A, offset: 0x29E20, size: 0x8, addend: 0x0, symName: __ZNSt3__116allocator_traitsINS_9allocatorINS_12basic_stringIcNS_11char_traitsIcEENS1_IcEEEEEEE8max_sizeB8ue170006IS7_vvEEmRKS7_, symObjAddr: 0x712C, symBinAddr: 0x10001AFB8, symSize: 0x28 }
  - { offsetInCU: 0x156B6, offset: 0x29E4C, size: 0x8, addend: 0x0, symName: __ZNKSt3__16vectorINS_12basic_stringIcNS_11char_traitsIcEENS_9allocatorIcEEEENS4_IS6_EEE7__allocB8ue170006Ev, symObjAddr: 0x7154, symBinAddr: 0x10001AFE0, symSize: 0x28 }
  - { offsetInCU: 0x156DC, offset: 0x29E72, size: 0x8, addend: 0x0, symName: __ZNSt3__114numeric_limitsIlE3maxB8ue170006Ev, symObjAddr: 0x717C, symBinAddr: 0x10001B008, symSize: 0x14 }
  - { offsetInCU: 0x156F0, offset: 0x29E86, size: 0x8, addend: 0x0, symName: __ZNKSt3__117__compressed_pairIPNS_12basic_stringIcNS_11char_traitsIcEENS_9allocatorIcEEEENS4_IS6_EEE6secondB8ue170006Ev, symObjAddr: 0x7450, symBinAddr: 0x10001B01C, symSize: 0x24 }
  - { offsetInCU: 0x15716, offset: 0x29EAC, size: 0x8, addend: 0x0, symName: __ZNKSt3__122__compressed_pair_elemINS_9allocatorINS_12basic_stringIcNS_11char_traitsIcEENS1_IcEEEEEELi1ELb1EE5__getB8ue170006Ev, symObjAddr: 0x7474, symBinAddr: 0x10001B040, symSize: 0x14 }
  - { offsetInCU: 0x1573C, offset: 0x29ED2, size: 0x8, addend: 0x0, symName: __ZNSt3__123__libcpp_numeric_limitsIlLb1EE3maxB8ue170006Ev, symObjAddr: 0x7488, symBinAddr: 0x10001B054, symSize: 0x8 }
  - { offsetInCU: 0x15750, offset: 0x29EE6, size: 0x8, addend: 0x0, symName: __ZNSt12length_errorC1B8ue170006EPKc, symObjAddr: 0x74F8, symBinAddr: 0x10001B0C4, symSize: 0x34 }
  - { offsetInCU: 0x15788, offset: 0x29F1E, size: 0x8, addend: 0x0, symName: __ZNSt12length_errorC2B8ue170006EPKc, symObjAddr: 0x752C, symBinAddr: 0x10001B0F8, symSize: 0x8C }
  - { offsetInCU: 0x157C0, offset: 0x29F56, size: 0x8, addend: 0x0, symName: __ZNSt3__114__split_bufferINS_12basic_stringIcNS_11char_traitsIcEENS_9allocatorIcEEEERNS4_IS6_EEEC2EmmS8_, symObjAddr: 0x77A0, symBinAddr: 0x10001B184, symSize: 0x530 }
  - { offsetInCU: 0x1583B, offset: 0x29FD1, size: 0x8, addend: 0x0, symName: __ZNSt3__117__compressed_pairIPNS_12basic_stringIcNS_11char_traitsIcEENS_9allocatorIcEEEERNS4_IS6_EEEC1B8ue170006IDnS9_EEOT_OT0_, symObjAddr: 0x7CD0, symBinAddr: 0x10001B6B4, symSize: 0x3C }
  - { offsetInCU: 0x15893, offset: 0x2A029, size: 0x8, addend: 0x0, symName: __ZNSt3__114__split_bufferINS_12basic_stringIcNS_11char_traitsIcEENS_9allocatorIcEEEERNS4_IS6_EEE7__allocB8ue170006Ev, symObjAddr: 0x7F98, symBinAddr: 0x10001B97C, symSize: 0x28 }
  - { offsetInCU: 0x158B9, offset: 0x2A04F, size: 0x8, addend: 0x0, symName: __ZNSt3__114__split_bufferINS_12basic_stringIcNS_11char_traitsIcEENS_9allocatorIcEEEERNS4_IS6_EEE9__end_capB8ue170006Ev, symObjAddr: 0x7FC0, symBinAddr: 0x10001B9A4, symSize: 0x28 }
  - { offsetInCU: 0x158DF, offset: 0x2A075, size: 0x8, addend: 0x0, symName: __ZNSt3__117__compressed_pairIPNS_12basic_stringIcNS_11char_traitsIcEENS_9allocatorIcEEEERNS4_IS6_EEEC2B8ue170006IDnS9_EEOT_OT0_, symObjAddr: 0x7FE8, symBinAddr: 0x10001B9CC, symSize: 0x48 }
  - { offsetInCU: 0x15937, offset: 0x2A0CD, size: 0x8, addend: 0x0, symName: __ZNSt3__122__compressed_pair_elemIRNS_9allocatorINS_12basic_stringIcNS_11char_traitsIcEENS1_IcEEEEEELi1ELb0EEC2B8ue170006IS8_vEEOT_, symObjAddr: 0x8030, symBinAddr: 0x10001BA14, symSize: 0x70 }
  - { offsetInCU: 0x15979, offset: 0x2A10F, size: 0x8, addend: 0x0, symName: __ZNSt3__19allocatorINS_12basic_stringIcNS_11char_traitsIcEENS0_IcEEEEE8allocateB8ue170006Em, symObjAddr: 0x80A0, symBinAddr: 0x10001BA84, symSize: 0x60 }
  - { offsetInCU: 0x159AD, offset: 0x2A143, size: 0x8, addend: 0x0, symName: __ZNSt3__117__compressed_pairIPNS_12basic_stringIcNS_11char_traitsIcEENS_9allocatorIcEEEERNS4_IS6_EEE6secondB8ue170006Ev, symObjAddr: 0x81E8, symBinAddr: 0x10001BAE4, symSize: 0x28 }
  - { offsetInCU: 0x159D3, offset: 0x2A169, size: 0x8, addend: 0x0, symName: __ZNSt3__122__compressed_pair_elemIRNS_9allocatorINS_12basic_stringIcNS_11char_traitsIcEENS1_IcEEEEEELi1ELb0EE5__getB8ue170006Ev, symObjAddr: 0x8210, symBinAddr: 0x10001BB0C, symSize: 0x60 }
  - { offsetInCU: 0x159F9, offset: 0x2A18F, size: 0x8, addend: 0x0, symName: __ZNSt3__117__compressed_pairIPNS_12basic_stringIcNS_11char_traitsIcEENS_9allocatorIcEEEERNS4_IS6_EEE5firstB8ue170006Ev, symObjAddr: 0x8270, symBinAddr: 0x10001BB6C, symSize: 0x24 }
  - { offsetInCU: 0x15A1F, offset: 0x2A1B5, size: 0x8, addend: 0x0, symName: __ZNSt3__116reverse_iteratorIPNS_12basic_stringIcNS_11char_traitsIcEENS_9allocatorIcEEEEEC1B8ue170006ES7_, symObjAddr: 0x88C0, symBinAddr: 0x10001C0D4, symSize: 0x34 }
  - { offsetInCU: 0x15A57, offset: 0x2A1ED, size: 0x8, addend: 0x0, symName: __ZNKSt3__116reverse_iteratorIPNS_12basic_stringIcNS_11char_traitsIcEENS_9allocatorIcEEEEE4baseB8ue170006Ev, symObjAddr: 0x88F4, symBinAddr: 0x10001C108, symSize: 0x64 }
  - { offsetInCU: 0x15A7D, offset: 0x2A213, size: 0x8, addend: 0x0, symName: __ZNKSt3__16vectorINS_12basic_stringIcNS_11char_traitsIcEENS_9allocatorIcEEEENS4_IS6_EEE14__annotate_newB8ue170006Em, symObjAddr: 0x8A8C, symBinAddr: 0x10001C2A0, symSize: 0xDC }
  - { offsetInCU: 0x15AB2, offset: 0x2A248, size: 0x8, addend: 0x0, symName: __ZNSt3__129_AllocatorDestroyRangeReverseINS_9allocatorINS_12basic_stringIcNS_11char_traitsIcEENS1_IcEEEEEENS_16reverse_iteratorIPS6_EEEC1B8ue170006ERS7_RSA_SD_, symObjAddr: 0x8D60, symBinAddr: 0x10001C574, symSize: 0x44 }
  - { offsetInCU: 0x15B0E, offset: 0x2A2A4, size: 0x8, addend: 0x0, symName: __ZNSt3__116allocator_traitsINS_9allocatorINS_12basic_stringIcNS_11char_traitsIcEENS1_IcEEEEEEE9constructB8ue170006IS6_JS6_EvvEEvRS7_PT_DpOT0_, symObjAddr: 0x8DEC, symBinAddr: 0x10001C600, symSize: 0x30 }
  - { offsetInCU: 0x15B63, offset: 0x2A2F9, size: 0x8, addend: 0x0, symName: __ZNKSt3__116reverse_iteratorIPNS_12basic_stringIcNS_11char_traitsIcEENS_9allocatorIcEEEEEdeB8ue170006Ev, symObjAddr: 0x8E40, symBinAddr: 0x10001C654, symSize: 0x74 }
  - { offsetInCU: 0x15B97, offset: 0x2A32D, size: 0x8, addend: 0x0, symName: __ZNSt3__116reverse_iteratorIPNS_12basic_stringIcNS_11char_traitsIcEENS_9allocatorIcEEEEEppB8ue170006Ev, symObjAddr: 0x8EB4, symBinAddr: 0x10001C6C8, symSize: 0x6C }
  - { offsetInCU: 0x15BBD, offset: 0x2A353, size: 0x8, addend: 0x0, symName: __ZNSt3__128__exception_guard_exceptionsINS_29_AllocatorDestroyRangeReverseINS_9allocatorINS_12basic_stringIcNS_11char_traitsIcEENS2_IcEEEEEENS_16reverse_iteratorIPS7_EEEEE10__completeB8ue170006Ev, symObjAddr: 0x8F20, symBinAddr: 0x10001C734, symSize: 0x8C }
  - { offsetInCU: 0x15BE3, offset: 0x2A379, size: 0x8, addend: 0x0, symName: __ZNSt3__128__exception_guard_exceptionsINS_29_AllocatorDestroyRangeReverseINS_9allocatorINS_12basic_stringIcNS_11char_traitsIcEENS2_IcEEEEEENS_16reverse_iteratorIPS7_EEEEED1B8ue170006Ev, symObjAddr: 0x8FAC, symBinAddr: 0x10001C7C0, symSize: 0x2C }
  - { offsetInCU: 0x15C0D, offset: 0x2A3A3, size: 0x8, addend: 0x0, symName: __ZNSt3__128__exception_guard_exceptionsINS_29_AllocatorDestroyRangeReverseINS_9allocatorINS_12basic_stringIcNS_11char_traitsIcEENS2_IcEEEEEENS_16reverse_iteratorIPS7_EEEEEC1B8ue170006ESC_, symObjAddr: 0x8FD8, symBinAddr: 0x10001C7EC, symSize: 0x34 }
  - { offsetInCU: 0x15C46, offset: 0x2A3DC, size: 0x8, addend: 0x0, symName: __ZNSt3__128__exception_guard_exceptionsINS_29_AllocatorDestroyRangeReverseINS_9allocatorINS_12basic_stringIcNS_11char_traitsIcEENS2_IcEEEEEENS_16reverse_iteratorIPS7_EEEEEC2B8ue170006ESC_, symObjAddr: 0x900C, symBinAddr: 0x10001C820, symSize: 0xA4 }
  - { offsetInCU: 0x15C7F, offset: 0x2A415, size: 0x8, addend: 0x0, symName: __ZNSt3__129_AllocatorDestroyRangeReverseINS_9allocatorINS_12basic_stringIcNS_11char_traitsIcEENS1_IcEEEEEENS_16reverse_iteratorIPS6_EEEC2B8ue170006ERS7_RSA_SD_, symObjAddr: 0x90B0, symBinAddr: 0x10001C8C4, symSize: 0x104 }
  - { offsetInCU: 0x15CDB, offset: 0x2A471, size: 0x8, addend: 0x0, symName: __ZNSt3__119__to_address_helperINS_16reverse_iteratorIPNS_12basic_stringIcNS_11char_traitsIcEENS_9allocatorIcEEEEEEvE6__callB8ue170006ERKS9_, symObjAddr: 0x91F0, symBinAddr: 0x10001CA04, symSize: 0x44 }
  - { offsetInCU: 0x15CFE, offset: 0x2A494, size: 0x8, addend: 0x0, symName: __ZNKSt3__116reverse_iteratorIPNS_12basic_stringIcNS_11char_traitsIcEENS_9allocatorIcEEEEEptB8ue170006Ev, symObjAddr: 0x9234, symBinAddr: 0x10001CA48, symSize: 0x6C }
  - { offsetInCU: 0x15D24, offset: 0x2A4BA, size: 0x8, addend: 0x0, symName: __ZNSt3__128__exception_guard_exceptionsINS_29_AllocatorDestroyRangeReverseINS_9allocatorINS_12basic_stringIcNS_11char_traitsIcEENS2_IcEEEEEENS_16reverse_iteratorIPS7_EEEEED2B8ue170006Ev, symObjAddr: 0x95AC, symBinAddr: 0x10001CDC0, symSize: 0xBC }
  - { offsetInCU: 0x15D4E, offset: 0x2A4E4, size: 0x8, addend: 0x0, symName: __ZNKSt3__129_AllocatorDestroyRangeReverseINS_9allocatorINS_12basic_stringIcNS_11char_traitsIcEENS1_IcEEEEEENS_16reverse_iteratorIPS6_EEEclB8ue170006Ev, symObjAddr: 0x9668, symBinAddr: 0x10001CE7C, symSize: 0x3A8 }
  - { offsetInCU: 0x15D75, offset: 0x2A50B, size: 0x8, addend: 0x0, symName: __ZNSt3__116reverse_iteratorINS0_IPNS_12basic_stringIcNS_11char_traitsIcEENS_9allocatorIcEEEEEEEC1B8ue170006ES8_, symObjAddr: 0x9A80, symBinAddr: 0x10001D294, symSize: 0x248 }
  - { offsetInCU: 0x15DB2, offset: 0x2A548, size: 0x8, addend: 0x0, symName: __ZNSt3__116reverse_iteratorINS0_IPNS_12basic_stringIcNS_11char_traitsIcEENS_9allocatorIcEEEEEEEppB8ue170006Ev, symObjAddr: 0x9FE0, symBinAddr: 0x10001D7CC, symSize: 0x30 }
  - { offsetInCU: 0x15DD8, offset: 0x2A56E, size: 0x8, addend: 0x0, symName: __ZNKSt3__116reverse_iteratorINS0_IPNS_12basic_stringIcNS_11char_traitsIcEENS_9allocatorIcEEEEEEE4baseB8ue170006Ev, symObjAddr: 0xA010, symBinAddr: 0x10001D7FC, symSize: 0x20C }
  - { offsetInCU: 0x15E04, offset: 0x2A59A, size: 0x8, addend: 0x0, symName: __ZNSt3__119__to_address_helperINS_16reverse_iteratorINS1_IPNS_12basic_stringIcNS_11char_traitsIcEENS_9allocatorIcEEEEEEEEvE6__callB8ue170006ERKSA_, symObjAddr: 0xA264, symBinAddr: 0x10001DA08, symSize: 0x44 }
  - { offsetInCU: 0x15E27, offset: 0x2A5BD, size: 0x8, addend: 0x0, symName: __ZNKSt3__116reverse_iteratorINS0_IPNS_12basic_stringIcNS_11char_traitsIcEENS_9allocatorIcEEEEEEEptB8ue170006Ev, symObjAddr: 0xA2A8, symBinAddr: 0x10001DA4C, symSize: 0x2A0 }
  - { offsetInCU: 0x15E4E, offset: 0x2A5E4, size: 0x8, addend: 0x0, symName: __ZNSt3__116reverse_iteratorIPNS_12basic_stringIcNS_11char_traitsIcEENS_9allocatorIcEEEEEpLB8ue170006El, symObjAddr: 0xA840, symBinAddr: 0x10001DFE4, symSize: 0x84 }
  - { offsetInCU: 0x15E82, offset: 0x2A618, size: 0x8, addend: 0x0, symName: __ZNSt3__116reverse_iteratorIPNS_12basic_stringIcNS_11char_traitsIcEENS_9allocatorIcEEEEEmmB8ue170006Ev, symObjAddr: 0xA8C4, symBinAddr: 0x10001E068, symSize: 0x6C }
  - { offsetInCU: 0x15EA8, offset: 0x2A63E, size: 0x8, addend: 0x0, symName: __ZNSt3__116reverse_iteratorINS0_IPNS_12basic_stringIcNS_11char_traitsIcEENS_9allocatorIcEEEEEEEC2B8ue170006ES8_, symObjAddr: 0xA930, symBinAddr: 0x10001E0D4, symSize: 0x22C }
  - { offsetInCU: 0x15EE5, offset: 0x2A67B, size: 0x8, addend: 0x0, symName: __ZNSt3__116reverse_iteratorIPNS_12basic_stringIcNS_11char_traitsIcEENS_9allocatorIcEEEEEC2B8ue170006ES7_, symObjAddr: 0xAB5C, symBinAddr: 0x10001E300, symSize: 0xB8 }
  - { offsetInCU: 0x15F1D, offset: 0x2A6B3, size: 0x8, addend: 0x0, symName: __ZNSt3__114__split_bufferINS_12basic_stringIcNS_11char_traitsIcEENS_9allocatorIcEEEERNS4_IS6_EEED2Ev, symObjAddr: 0xAC14, symBinAddr: 0x10001E3B8, symSize: 0x104 }
  - { offsetInCU: 0x15F49, offset: 0x2A6DF, size: 0x8, addend: 0x0, symName: __ZNSt3__114__split_bufferINS_12basic_stringIcNS_11char_traitsIcEENS_9allocatorIcEEEERNS4_IS6_EEE5clearB8ue170006Ev, symObjAddr: 0xAD18, symBinAddr: 0x10001E4BC, symSize: 0x68 }
  - { offsetInCU: 0x15F6F, offset: 0x2A705, size: 0x8, addend: 0x0, symName: __ZNKSt3__114__split_bufferINS_12basic_stringIcNS_11char_traitsIcEENS_9allocatorIcEEEERNS4_IS6_EEE8capacityB8ue170006Ev, symObjAddr: 0xADB4, symBinAddr: 0x10001E524, symSize: 0xBC }
  - { offsetInCU: 0x15F95, offset: 0x2A72B, size: 0x8, addend: 0x0, symName: __ZNSt3__114__split_bufferINS_12basic_stringIcNS_11char_traitsIcEENS_9allocatorIcEEEERNS4_IS6_EEE17__destruct_at_endB8ue170006EPS6_, symObjAddr: 0xAE70, symBinAddr: 0x10001E5E0, symSize: 0x2C }
  - { offsetInCU: 0x15FC9, offset: 0x2A75F, size: 0x8, addend: 0x0, symName: __ZNSt3__114__split_bufferINS_12basic_stringIcNS_11char_traitsIcEENS_9allocatorIcEEEERNS4_IS6_EEE17__destruct_at_endB8ue170006EPS6_NS_17integral_constantIbLb0EEE, symObjAddr: 0xAE9C, symBinAddr: 0x10001E60C, symSize: 0x10C }
  - { offsetInCU: 0x1600A, offset: 0x2A7A0, size: 0x8, addend: 0x0, symName: __ZNKSt3__114__split_bufferINS_12basic_stringIcNS_11char_traitsIcEENS_9allocatorIcEEEERNS4_IS6_EEE9__end_capB8ue170006Ev, symObjAddr: 0xAFF8, symBinAddr: 0x10001E718, symSize: 0x28 }
  - { offsetInCU: 0x16030, offset: 0x2A7C6, size: 0x8, addend: 0x0, symName: __ZNKSt3__117__compressed_pairIPNS_12basic_stringIcNS_11char_traitsIcEENS_9allocatorIcEEEERNS4_IS6_EEE5firstB8ue170006Ev, symObjAddr: 0xB020, symBinAddr: 0x10001E740, symSize: 0x24 }
  - { offsetInCU: 0x16056, offset: 0x2A7EC, size: 0x8, addend: 0x0, symName: __ZNSt3__111char_traitsIcE2eqEcc, symObjAddr: 0xBAA8, symBinAddr: 0x10001EA3C, symSize: 0x28 }
  - { offsetInCU: 0x16087, offset: 0x2A81D, size: 0x8, addend: 0x0, symName: __ZNSt3__112basic_stringIcNS_11char_traitsIcEENS_9allocatorIcEEE15__make_iteratorB8ue170006EPc, symObjAddr: 0xBE44, symBinAddr: 0x10001EBA4, symSize: 0x1FC }
  - { offsetInCU: 0x160BE, offset: 0x2A854, size: 0x8, addend: 0x0, symName: __ZNSt3__112basic_stringIcNS_11char_traitsIcEENS_9allocatorIcEEE13__get_pointerB8ue170006Ev, symObjAddr: 0xC040, symBinAddr: 0x10001EDA0, symSize: 0x54 }
  - { offsetInCU: 0x160E4, offset: 0x2A87A, size: 0x8, addend: 0x0, symName: __ZNSt3__111__wrap_iterIPcEC1B8ue170006ES1_, symObjAddr: 0xC094, symBinAddr: 0x10001EDF4, symSize: 0x34 }
  - { offsetInCU: 0x1611C, offset: 0x2A8B2, size: 0x8, addend: 0x0, symName: __ZNSt3__111__wrap_iterIPcEC2B8ue170006ES1_, symObjAddr: 0xC0C8, symBinAddr: 0x10001EE28, symSize: 0x70 }
  - { offsetInCU: 0x16154, offset: 0x2A8EA, size: 0x8, addend: 0x0, symName: __ZNKSt3__111__wrap_iterIPcE4baseB8ue170006Ev, symObjAddr: 0xC180, symBinAddr: 0x10001EEE0, symSize: 0x60 }
  - { offsetInCU: 0x1617A, offset: 0x2A910, size: 0x8, addend: 0x0, symName: __ZNKSt3__112basic_stringIcNS_11char_traitsIcEENS_9allocatorIcEEE9ends_withB8ue170006ENS_17basic_string_viewIcS2_EE, symObjAddr: 0xC1E0, symBinAddr: 0x10001EF40, symSize: 0x2E4 }
  - { offsetInCU: 0x161B4, offset: 0x2A94A, size: 0x8, addend: 0x0, symName: __ZNKSt3__117basic_string_viewIcNS_11char_traitsIcEEE9ends_withB8ue170006ES3_, symObjAddr: 0xC534, symBinAddr: 0x10001F224, symSize: 0x324 }
  - { offsetInCU: 0x161EE, offset: 0x2A984, size: 0x8, addend: 0x0, symName: __ZNSt3__112basic_stringIcNS_11char_traitsIcEENS_9allocatorIcEEEC2B8ue170006EOS5_, symObjAddr: 0xD7E4, symBinAddr: 0x10001F548, symSize: 0x40 }
  - { offsetInCU: 0x16226, offset: 0x2A9BC, size: 0x8, addend: 0x0, symName: __Z8__istypeim, symObjAddr: 0xD824, symBinAddr: 0x10001F588, symSize: 0xFC }
  - { offsetInCU: 0x16260, offset: 0x2A9F6, size: 0x8, addend: 0x0, symName: __Z7isasciii, symObjAddr: 0xD920, symBinAddr: 0x10001F684, symSize: 0x24 }
  - { offsetInCU: 0x1628D, offset: 0x2AA23, size: 0x8, addend: 0x0, symName: __ZNSt3__19basic_iosIcNS_11char_traitsIcEEEC2B8ue170006Ev, symObjAddr: 0xD944, symBinAddr: 0x10001F6A8, symSize: 0x84 }
  - { offsetInCU: 0x162B7, offset: 0x2AA4D, size: 0x8, addend: 0x0, symName: __ZNSt3__113basic_istreamIcNS_11char_traitsIcEEEC2B8ue170006EPNS_15basic_streambufIcS2_EE, symObjAddr: 0xD9C8, symBinAddr: 0x10001F72C, symSize: 0x20C }
  - { offsetInCU: 0x162FC, offset: 0x2AA92, size: 0x8, addend: 0x0, symName: __ZNSt3__113basic_filebufIcNS_11char_traitsIcEEE4openERKNS_12basic_stringIcS2_NS_9allocatorIcEEEEj, symObjAddr: 0xDBD4, symBinAddr: 0x10001F938, symSize: 0x44 }
  - { offsetInCU: 0x16340, offset: 0x2AAD6, size: 0x8, addend: 0x0, symName: __ZNSt3__19basic_iosIcNS_11char_traitsIcEEE8setstateB8ue170006Ej, symObjAddr: 0xDC18, symBinAddr: 0x10001F97C, symSize: 0x2C }
  - { offsetInCU: 0x16375, offset: 0x2AB0B, size: 0x8, addend: 0x0, symName: __ZNSt3__18ios_baseC2B8ue170006Ev, symObjAddr: 0xDC44, symBinAddr: 0x10001F9A8, symSize: 0x74 }
  - { offsetInCU: 0x1639F, offset: 0x2AB35, size: 0x8, addend: 0x0, symName: __ZNSt3__19basic_iosIcNS_11char_traitsIcEEE4initB8ue170006EPNS_15basic_streambufIcS2_EE, symObjAddr: 0xDCB8, symBinAddr: 0x10001FA1C, symSize: 0xEC }
  - { offsetInCU: 0x163D6, offset: 0x2AB6C, size: 0x8, addend: 0x0, symName: __ZNSt3__111char_traitsIcE3eofB8ue170006Ev, symObjAddr: 0xDDA4, symBinAddr: 0x10001FB08, symSize: 0x8 }
  - { offsetInCU: 0x163EA, offset: 0x2AB80, size: 0x8, addend: 0x0, symName: __ZNKSt3__112basic_stringIcNS_11char_traitsIcEENS_9allocatorIcEEE5c_strB8ue170006Ev, symObjAddr: 0xDDAC, symBinAddr: 0x10001FB10, symSize: 0x24 }
  - { offsetInCU: 0x16410, offset: 0x2ABA6, size: 0x8, addend: 0x0, symName: __ZNSt3__18ios_base8setstateB8ue170006Ej, symObjAddr: 0xDDD0, symBinAddr: 0x10001FB34, symSize: 0x9C }
  - { offsetInCU: 0x16447, offset: 0x2ABDD, size: 0x8, addend: 0x0, symName: __ZNKSt3__19basic_iosIcNS_11char_traitsIcEEE4failB8ue170006Ev, symObjAddr: 0xDE6C, symBinAddr: 0x10001FBD0, symSize: 0x28 }
  - { offsetInCU: 0x1646D, offset: 0x2AC03, size: 0x8, addend: 0x0, symName: __ZNKSt3__18ios_base4failB8ue170006Ev, symObjAddr: 0xDE94, symBinAddr: 0x10001FBF8, symSize: 0x9C }
  - { offsetInCU: 0x164B3, offset: 0x2AC49, size: 0x8, addend: 0x0, symName: __ZNKSt3__113basic_ostreamIcNS_11char_traitsIcEEE6sentrycvbB8ue170006Ev, symObjAddr: 0xE674, symBinAddr: 0x1000203D8, symSize: 0x88 }
  - { offsetInCU: 0x164D9, offset: 0x2AC6F, size: 0x8, addend: 0x0, symName: __ZNSt3__119ostreambuf_iteratorIcNS_11char_traitsIcEEEC1B8ue170006ERNS_13basic_ostreamIcS2_EE, symObjAddr: 0xEE5C, symBinAddr: 0x100020BC0, symSize: 0x34 }
  - { offsetInCU: 0x16511, offset: 0x2ACA7, size: 0x8, addend: 0x0, symName: __ZNKSt3__18ios_base5flagsB8ue170006Ev, symObjAddr: 0xEE90, symBinAddr: 0x100020BF4, symSize: 0x8C }
  - { offsetInCU: 0x16539, offset: 0x2ACCF, size: 0x8, addend: 0x0, symName: __ZNKSt3__19basic_iosIcNS_11char_traitsIcEEE4fillB8ue170006Ev, symObjAddr: 0xEF1C, symBinAddr: 0x100020C80, symSize: 0x198 }
  - { offsetInCU: 0x16561, offset: 0x2ACF7, size: 0x8, addend: 0x0, symName: __ZNKSt3__119ostreambuf_iteratorIcNS_11char_traitsIcEEE6failedB8ue170006Ev, symObjAddr: 0xF0B4, symBinAddr: 0x100020E18, symSize: 0x6C }
  - { offsetInCU: 0x16587, offset: 0x2AD1D, size: 0x8, addend: 0x0, symName: __ZNKSt3__18ios_base5widthB8ue170006Ev, symObjAddr: 0xF120, symBinAddr: 0x100020E84, symSize: 0x64 }
  - { offsetInCU: 0x165AF, offset: 0x2AD45, size: 0x8, addend: 0x0, symName: __ZNSt3__115basic_streambufIcNS_11char_traitsIcEEE5sputnB8ue170006EPKcl, symObjAddr: 0xF184, symBinAddr: 0x100020EE8, symSize: 0xC8 }
  - { offsetInCU: 0x165F1, offset: 0x2AD87, size: 0x8, addend: 0x0, symName: __ZNSt3__112basic_stringIcNS_11char_traitsIcEENS_9allocatorIcEEEC1B8ue170006Emc, symObjAddr: 0xF24C, symBinAddr: 0x100020FB0, symSize: 0x3C }
  - { offsetInCU: 0x16639, offset: 0x2ADCF, size: 0x8, addend: 0x0, symName: __ZNSt3__112basic_stringIcNS_11char_traitsIcEENS_9allocatorIcEEE4dataB8ue170006Ev, symObjAddr: 0xF288, symBinAddr: 0x100020FEC, symSize: 0x28 }
  - { offsetInCU: 0x1665F, offset: 0x2ADF5, size: 0x8, addend: 0x0, symName: __ZNSt3__18ios_base5widthB8ue170006El, symObjAddr: 0xF2B0, symBinAddr: 0x100021014, symSize: 0xB8 }
  - { offsetInCU: 0x166A5, offset: 0x2AE3B, size: 0x8, addend: 0x0, symName: __ZNSt3__112basic_stringIcNS_11char_traitsIcEENS_9allocatorIcEEEC2B8ue170006Emc, symObjAddr: 0xF368, symBinAddr: 0x1000210CC, symSize: 0x204 }
  - { offsetInCU: 0x166F0, offset: 0x2AE86, size: 0x8, addend: 0x0, symName: __ZNSt3__119ostreambuf_iteratorIcNS_11char_traitsIcEEEC2B8ue170006ERNS_13basic_ostreamIcS2_EE, symObjAddr: 0xF580, symBinAddr: 0x1000212E4, symSize: 0x10C }
  - { offsetInCU: 0x16728, offset: 0x2AEBE, size: 0x8, addend: 0x0, symName: __ZNKSt3__19basic_iosIcNS_11char_traitsIcEEE5rdbufB8ue170006Ev, symObjAddr: 0xF68C, symBinAddr: 0x1000213F0, symSize: 0x24 }
  - { offsetInCU: 0x16750, offset: 0x2AEE6, size: 0x8, addend: 0x0, symName: __ZNKSt3__18ios_base5rdbufB8ue170006Ev, symObjAddr: 0xF6B0, symBinAddr: 0x100021414, symSize: 0x64 }
  - { offsetInCU: 0x16776, offset: 0x2AF0C, size: 0x8, addend: 0x0, symName: __ZNSt3__111char_traitsIcE11eq_int_typeB8ue170006Eii, symObjAddr: 0xF714, symBinAddr: 0x100021478, symSize: 0x28 }
  - { offsetInCU: 0x167A9, offset: 0x2AF3F, size: 0x8, addend: 0x0, symName: __ZNKSt3__19basic_iosIcNS_11char_traitsIcEEE5widenB8ue170006Ec, symObjAddr: 0xF73C, symBinAddr: 0x1000214A0, symSize: 0x2A4 }
  - { offsetInCU: 0x16819, offset: 0x2AFAF, size: 0x8, addend: 0x0, symName: __ZNKSt3__15ctypeIcE5widenB8ue170006Ec, symObjAddr: 0xFA0C, symBinAddr: 0x100021770, symSize: 0xBC }
  - { offsetInCU: 0x3B, offset: 0x2B0FD, size: 0x8, addend: 0x0, symName: _.str, symObjAddr: 0x10C0C0, symBinAddr: 0x10014AA60, symSize: 0x0 }
  - { offsetInCU: 0x6B, offset: 0x2B12D, size: 0x8, addend: 0x0, symName: _.str.1, symObjAddr: 0x10CA20, symBinAddr: 0x100141220, symSize: 0x0 }
  - { offsetInCU: 0x88, offset: 0x2B14A, size: 0x8, addend: 0x0, symName: _.str.2, symObjAddr: 0x10CA40, symBinAddr: 0x100141240, symSize: 0x0 }
  - { offsetInCU: 0x99, offset: 0x2B15B, size: 0x8, addend: 0x0, symName: _.str.3, symObjAddr: 0x10CA60, symBinAddr: 0x100141260, symSize: 0x0 }
  - { offsetInCU: 0xAA, offset: 0x2B16C, size: 0x8, addend: 0x0, symName: _.str.4, symObjAddr: 0x10CA80, symBinAddr: 0x100141280, symSize: 0x0 }
  - { offsetInCU: 0xC7, offset: 0x2B189, size: 0x8, addend: 0x0, symName: _.str.5, symObjAddr: 0x10CB60, symBinAddr: 0x100141360, symSize: 0x0 }
  - { offsetInCU: 0xD8, offset: 0x2B19A, size: 0x8, addend: 0x0, symName: _.str.6, symObjAddr: 0x10CB80, symBinAddr: 0x100141380, symSize: 0x0 }
  - { offsetInCU: 0xF5, offset: 0x2B1B7, size: 0x8, addend: 0x0, symName: _.str.7, symObjAddr: 0x10CBA0, symBinAddr: 0x1001413A0, symSize: 0x0 }
  - { offsetInCU: 0x106, offset: 0x2B1C8, size: 0x8, addend: 0x0, symName: _.str.8, symObjAddr: 0x10CBC0, symBinAddr: 0x1001413C0, symSize: 0x0 }
  - { offsetInCU: 0x123, offset: 0x2B1E5, size: 0x8, addend: 0x0, symName: _.str.9, symObjAddr: 0x10CBE0, symBinAddr: 0x1001413E0, symSize: 0x0 }
  - { offsetInCU: 0x140, offset: 0x2B202, size: 0x8, addend: 0x0, symName: _.str.10, symObjAddr: 0x10CC00, symBinAddr: 0x100141400, symSize: 0x0 }
  - { offsetInCU: 0x15D, offset: 0x2B21F, size: 0x8, addend: 0x0, symName: _.str.11, symObjAddr: 0x10CC20, symBinAddr: 0x100141420, symSize: 0x0 }
  - { offsetInCU: 0x16E, offset: 0x2B230, size: 0x8, addend: 0x0, symName: _.str.12, symObjAddr: 0x10CC40, symBinAddr: 0x100141440, symSize: 0x0 }
  - { offsetInCU: 0x17F, offset: 0x2B241, size: 0x8, addend: 0x0, symName: _.str.13, symObjAddr: 0x10CC60, symBinAddr: 0x100141460, symSize: 0x0 }
  - { offsetInCU: 0x19C, offset: 0x2B25E, size: 0x8, addend: 0x0, symName: _.str.14, symObjAddr: 0x10CC80, symBinAddr: 0x100141480, symSize: 0x0 }
  - { offsetInCU: 0x1B9, offset: 0x2B27B, size: 0x8, addend: 0x0, symName: _.str.15, symObjAddr: 0x10CCA0, symBinAddr: 0x1001414A0, symSize: 0x0 }
  - { offsetInCU: 0x1D6, offset: 0x2B298, size: 0x8, addend: 0x0, symName: _.str.16, symObjAddr: 0x10CCC0, symBinAddr: 0x1001414C0, symSize: 0x0 }
  - { offsetInCU: 0x1E7, offset: 0x2B2A9, size: 0x8, addend: 0x0, symName: _.str.17, symObjAddr: 0x10CCE0, symBinAddr: 0x1001414E0, symSize: 0x0 }
  - { offsetInCU: 0x1F8, offset: 0x2B2BA, size: 0x8, addend: 0x0, symName: _.str.18, symObjAddr: 0x10CD00, symBinAddr: 0x100141500, symSize: 0x0 }
  - { offsetInCU: 0x215, offset: 0x2B2D7, size: 0x8, addend: 0x0, symName: _.str.19, symObjAddr: 0x10CD40, symBinAddr: 0x100141540, symSize: 0x0 }
  - { offsetInCU: 0x233, offset: 0x2B2F5, size: 0x8, addend: 0x0, symName: _.str.20, symObjAddr: 0x10CD80, symBinAddr: 0x100141580, symSize: 0x0 }
  - { offsetInCU: 0x25E, offset: 0x2B320, size: 0x8, addend: 0x0, symName: __ZNSt3__114in_place_indexILm4EEE, symObjAddr: 0x10C0E0, symBinAddr: 0x10014AA80, symSize: 0x0 }
  - { offsetInCU: 0x282, offset: 0x2B344, size: 0x8, addend: 0x0, symName: __ZNSt3__114in_place_indexILm2EEE, symObjAddr: 0x10C0E2, symBinAddr: 0x10014AA82, symSize: 0x0 }
  - { offsetInCU: 0x2A6, offset: 0x2B368, size: 0x8, addend: 0x0, symName: __ZNSt3__114in_place_indexILm0EEE, symObjAddr: 0x10C0E4, symBinAddr: 0x10014AA84, symSize: 0x0 }
  - { offsetInCU: 0x1DAE9, offset: 0x48BAB, size: 0x8, addend: 0x0, symName: __ZNSt3__16copy_nB8ue170006IPKcmPcEENS_9enable_ifIXsr37__has_random_access_iterator_categoryIT_EE5valueET1_E4typeES5_T0_S6_, symObjAddr: 0x6EF0, symBinAddr: 0x100026558, symSize: 0x44 }
  - { offsetInCU: 0x1F0A6, offset: 0x4A168, size: 0x8, addend: 0x0, symName: __ZNSt3__17advanceB8ue170006IPKN5boost13re_detail_50023character_pointer_rangeIcEEllvEEvRT_T0_, symObjAddr: 0x3F8D4, symBinAddr: 0x100059634, symSize: 0x38 }
  - { offsetInCU: 0x1F67F, offset: 0x4A741, size: 0x8, addend: 0x0, symName: __ZNSt3__17advanceB8ue170006IPNS_4pairImmEEllvEEvRT_T0_, symObjAddr: 0x728D0, symBinAddr: 0x10008C118, symSize: 0x38 }
  - { offsetInCU: 0x1F8FF, offset: 0x4A9C1, size: 0x8, addend: 0x0, symName: __ZNSt3__17advanceB8ue170006INS_16reverse_iteratorIPNS_4pairImmEEEEllvEEvRT_T0_, symObjAddr: 0x73B40, symBinAddr: 0x10008D388, symSize: 0x38 }
  - { offsetInCU: 0x1F96A, offset: 0x4AA2C, size: 0x8, addend: 0x0, symName: __ZNSt3__17advanceB8ue170006INS_11__wrap_iterIPKN5boost13re_detail_50020named_subexpressions4nameEEEllvEEvRT_T0_, symObjAddr: 0x905C4, symBinAddr: 0x1000A9A14, symSize: 0x38 }
  - { offsetInCU: 0x1FF6B, offset: 0x4B02D, size: 0x8, addend: 0x0, symName: __ZNSt3__17advanceB8ue170006IPN5boost13re_detail_5007digraphIcEEllvEEvRT_T0_, symObjAddr: 0xA0CB4, symBinAddr: 0x1000BA104, symSize: 0x38 }
  - { offsetInCU: 0x201EB, offset: 0x4B2AD, size: 0x8, addend: 0x0, symName: __ZNSt3__17advanceB8ue170006INS_16reverse_iteratorIPN5boost13re_detail_5007digraphIcEEEEllvEEvRT_T0_, symObjAddr: 0xA1F24, symBinAddr: 0x1000BB374, symSize: 0x38 }
  - { offsetInCU: 0x21BF5, offset: 0x4CCB7, size: 0x8, addend: 0x0, symName: __ZNSt3__17advanceB8ue170006IPNS_4pairIbPN5boost13re_detail_50014re_syntax_baseEEEllvEEvRT_T0_, symObjAddr: 0xB63C4, symBinAddr: 0x1000CF814, symSize: 0x38 }
  - { offsetInCU: 0x21E75, offset: 0x4CF37, size: 0x8, addend: 0x0, symName: __ZNSt3__17advanceB8ue170006INS_16reverse_iteratorIPNS_4pairIbPN5boost13re_detail_50014re_syntax_baseEEEEEllvEEvRT_T0_, symObjAddr: 0xB7690, symBinAddr: 0x1000D0AE0, symSize: 0x38 }
  - { offsetInCU: 0x21FAD, offset: 0x4D06F, size: 0x8, addend: 0x0, symName: __ZNSt3__117__cxx_atomic_loadB8ue170006IPvEET_PKNS_22__cxx_atomic_base_implIS2_EENS_12memory_orderE, symObjAddr: 0xCAAE8, symBinAddr: 0x1000E3F38, symSize: 0x3A0 }
  - { offsetInCU: 0x2233E, offset: 0x4D400, size: 0x8, addend: 0x0, symName: __ZNSt3__17advanceB8ue170006IPN5boost9sub_matchINS_11__wrap_iterIPKcEEEEllvEEvRT_T0_, symObjAddr: 0xD66B8, symBinAddr: 0x1000EFB08, symSize: 0x38 }
  - { offsetInCU: 0x225BE, offset: 0x4D680, size: 0x8, addend: 0x0, symName: __ZNSt3__17advanceB8ue170006INS_16reverse_iteratorIPN5boost9sub_matchINS_11__wrap_iterIPKcEEEEEEllvEEvRT_T0_, symObjAddr: 0xD7930, symBinAddr: 0x1000F0D80, symSize: 0x38 }
  - { offsetInCU: 0x22838, offset: 0x4D8FA, size: 0x8, addend: 0x0, symName: __ZNSt3__17advanceB8ue170006INS_11__wrap_iterIPKcEEmmvEEvRT_T0_, symObjAddr: 0xF808C, symBinAddr: 0x1001114DC, symSize: 0x38 }
  - { offsetInCU: 0x228A3, offset: 0x4D965, size: 0x8, addend: 0x0, symName: __ZNSt3__17advanceB8ue170006INS_11__wrap_iterIPKcEEiivEEvRT_T0_, symObjAddr: 0xF8AC0, symBinAddr: 0x100111F10, symSize: 0x40 }
  - { offsetInCU: 0x2290E, offset: 0x4D9D0, size: 0x8, addend: 0x0, symName: __ZNSt3__17advanceB8ue170006INS_11__wrap_iterIPN5boost13re_detail_50014recursion_infoINS2_13match_resultsINS1_IPKcEENS_9allocatorINS2_9sub_matchIS8_EEEEEEEEEEllvEEvRT_T0_, symObjAddr: 0xFB04C, symBinAddr: 0x10011449C, symSize: 0x38 }
  - { offsetInCU: 0x22C74, offset: 0x4DD36, size: 0x8, addend: 0x0, symName: __ZNSt3__17advanceB8ue170006IPN5boost13re_detail_50014recursion_infoINS1_13match_resultsINS_11__wrap_iterIPKcEENS_9allocatorINS1_9sub_matchIS8_EEEEEEEEllvEEvRT_T0_, symObjAddr: 0xFD760, symBinAddr: 0x100116BB0, symSize: 0x38 }
  - { offsetInCU: 0x22EF4, offset: 0x4DFB6, size: 0x8, addend: 0x0, symName: __ZNSt3__17advanceB8ue170006INS_16reverse_iteratorIPN5boost13re_detail_50014recursion_infoINS2_13match_resultsINS_11__wrap_iterIPKcEENS_9allocatorINS2_9sub_matchIS9_EEEEEEEEEEllvEEvRT_T0_, symObjAddr: 0xFE9D8, symBinAddr: 0x100117E28, symSize: 0x38 }
  - { offsetInCU: 0x2402C, offset: 0x4F0EE, size: 0x8, addend: 0x0, symName: __ZNSt3__1plB8ue170006IcNS_11char_traitsIcEENS_9allocatorIcEEEENS_12basic_stringIT_T0_T1_EERKS9_PKS6_, symObjAddr: 0x2424, symBinAddr: 0x1000236E4, symSize: 0x2E8 }
  - { offsetInCU: 0x240D3, offset: 0x4F195, size: 0x8, addend: 0x0, symName: __ZNSt3__1eqB8ue170006IcNS_11char_traitsIcEENS_9allocatorIcEEEEbRKNS_12basic_stringIT_T0_T1_EEPKS6_, symObjAddr: 0x3894, symBinAddr: 0x100024718, symSize: 0x2EC }
  - { offsetInCU: 0x24274, offset: 0x4F336, size: 0x8, addend: 0x0, symName: __ZNSt3__1lsB8ue170006INS_11char_traitsIcEEEERNS_13basic_ostreamIcT_EES6_PKc, symObjAddr: 0x4AEC, symBinAddr: 0x100025944, symSize: 0x48 }
  - { offsetInCU: 0x242BA, offset: 0x4F37C, size: 0x8, addend: 0x0, symName: __ZNSt3__1lsB8ue170006IcNS_11char_traitsIcEENS_9allocatorIcEEEERNS_13basic_ostreamIT_T0_EES9_RKNS_12basic_stringIS6_S7_T1_EE, symObjAddr: 0x4B34, symBinAddr: 0x10002598C, symSize: 0x4C }
  - { offsetInCU: 0x24312, offset: 0x4F3D4, size: 0x8, addend: 0x0, symName: __ZNSt3__14copyB8ue170006IPKcPcEET0_T_S5_S4_, symObjAddr: 0x6F34, symBinAddr: 0x10002659C, symSize: 0x26C }
  - { offsetInCU: 0x2436F, offset: 0x4F431, size: 0x8, addend: 0x0, symName: __ZNSt3__16__copyB8ue170006INS_17_ClassicAlgPolicyEPKcS3_PcEENS_4pairIT0_T2_EES6_T1_S7_, symObjAddr: 0x71A0, symBinAddr: 0x100026808, symSize: 0x22C }
  - { offsetInCU: 0x243DE, offset: 0x4F4A0, size: 0x8, addend: 0x0, symName: __ZNSt3__123__dispatch_copy_or_moveB8ue170006INS_17_ClassicAlgPolicyENS_11__copy_loopIS1_EENS_14__copy_trivialEPKcS6_PcEENS_4pairIT2_T4_EES9_T3_SA_, symObjAddr: 0x73CC, symBinAddr: 0x100026A34, symSize: 0x22C }
  - { offsetInCU: 0x2445F, offset: 0x4F521, size: 0x8, addend: 0x0, symName: __ZNSt3__121__unwrap_and_dispatchB8ue170006INS_10__overloadINS_11__copy_loopINS_17_ClassicAlgPolicyEEENS_14__copy_trivialEEEPKcS8_PcLi0EEENS_4pairIT0_T2_EESB_T1_SC_, symObjAddr: 0x75F8, symBinAddr: 0x100026C60, symSize: 0x5A4 }
  - { offsetInCU: 0x244F8, offset: 0x4F5BA, size: 0x8, addend: 0x0, symName: __ZNSt3__114__unwrap_rangeB8ue170006IPKcS2_EEDaT_T0_, symObjAddr: 0x7B9C, symBinAddr: 0x100027204, symSize: 0x224 }
  - { offsetInCU: 0x24707, offset: 0x4F7C9, size: 0x8, addend: 0x0, symName: __ZNSt3__113__unwrap_iterB8ue170006IPcNS_18__unwrap_iter_implIS1_Lb1EEELi0EEEDTclsrT0_8__unwrapclsr3stdE7declvalIT_EEEES5_, symObjAddr: 0x7FF0, symBinAddr: 0x100027658, symSize: 0x24 }
  - { offsetInCU: 0x2474B, offset: 0x4F80D, size: 0x8, addend: 0x0, symName: __ZNSt3__19make_pairB8ue170006IPKcPcEENS_4pairINS_18__unwrap_ref_decayIT_E4typeENS5_IT0_E4typeEEEOS6_OS9_, symObjAddr: 0x8014, symBinAddr: 0x10002767C, symSize: 0x20C }
  - { offsetInCU: 0x2479C, offset: 0x4F85E, size: 0x8, addend: 0x0, symName: __ZNSt3__114__rewrap_rangeB8ue170006IPKcS2_S2_EET0_S3_T1_, symObjAddr: 0x8220, symBinAddr: 0x100027888, symSize: 0x2C }
  - { offsetInCU: 0x247F1, offset: 0x4F8B3, size: 0x8, addend: 0x0, symName: __ZNSt3__113__rewrap_iterB8ue170006IPcS1_NS_18__unwrap_iter_implIS1_Lb1EEEEET_S4_T0_, symObjAddr: 0x824C, symBinAddr: 0x1000278B4, symSize: 0x48 }
  - { offsetInCU: 0x24896, offset: 0x4F958, size: 0x8, addend: 0x0, symName: __ZNSt3__113__unwrap_iterB8ue170006IPKcNS_18__unwrap_iter_implIS2_Lb1EEELi0EEEDTclsrT0_8__unwrapclsr3stdE7declvalIT_EEEES6_, symObjAddr: 0x85A0, symBinAddr: 0x100027C08, symSize: 0x24 }
  - { offsetInCU: 0x2492D, offset: 0x4F9EF, size: 0x8, addend: 0x0, symName: __ZNSt3__119__copy_trivial_implB8ue170006IKccEENS_4pairIPT_PT0_EES4_S4_S6_, symObjAddr: 0x8770, symBinAddr: 0x100027DC4, symSize: 0x3AC }
  - { offsetInCU: 0x2499C, offset: 0x4FA5E, size: 0x8, addend: 0x0, symName: __ZNSt3__119__constexpr_memmoveB8ue170006IcKcLi0EEEPT_S3_PT0_NS_15__element_countE, symObjAddr: 0x8B1C, symBinAddr: 0x100028170, symSize: 0x64 }
  - { offsetInCU: 0x24A0A, offset: 0x4FACC, size: 0x8, addend: 0x0, symName: __ZNSt3__19make_pairB8ue170006IRPKcPcEENS_4pairINS_18__unwrap_ref_decayIT_E4typeENS6_IT0_E4typeEEEOS7_OSA_, symObjAddr: 0x8B80, symBinAddr: 0x1000281D4, symSize: 0x20C }
  - { offsetInCU: 0x24AAE, offset: 0x4FB70, size: 0x8, addend: 0x0, symName: __ZNSt3__113__rewrap_iterB8ue170006IPKcS2_NS_18__unwrap_iter_implIS2_Lb1EEEEET_S5_T0_, symObjAddr: 0x90C4, symBinAddr: 0x100028718, symSize: 0x48 }
  - { offsetInCU: 0x24B03, offset: 0x4FBC5, size: 0x8, addend: 0x0, symName: __ZNSt3__16fill_nB8ue170006IPcmcEET_S2_T0_RKT1_, symObjAddr: 0x9298, symBinAddr: 0x1000287F0, symSize: 0x44 }
  - { offsetInCU: 0x24B66, offset: 0x4FC28, size: 0x8, addend: 0x0, symName: __ZNSt3__18__fill_nB8ue170006IPcmcEET_S2_T0_RKT1_, symObjAddr: 0x92DC, symBinAddr: 0x100028834, symSize: 0x138 }
  - { offsetInCU: 0x24BCA, offset: 0x4FC8C, size: 0x8, addend: 0x0, symName: __ZNSt3__121__convert_to_integralB8ue170006Em, symObjAddr: 0x9414, symBinAddr: 0x10002896C, symSize: 0x14 }
  - { offsetInCU: 0x24BF5, offset: 0x4FCB7, size: 0x8, addend: 0x0, symName: __ZNSt3__1eqB8ue170006IcNS_11char_traitsIcEEEEbNS_17basic_string_viewIT_T0_EES6_, symObjAddr: 0xAC18, symBinAddr: 0x1000289CC, symSize: 0x348 }
  - { offsetInCU: 0x24D55, offset: 0x4FE17, size: 0x8, addend: 0x0, symName: __ZNSt3__19has_facetB8ue170006INS_8messagesIcEEEEbRKNS_6localeE, symObjAddr: 0x11390, symBinAddr: 0x10002BCD4, symSize: 0x4C }
  - { offsetInCU: 0x24D8A, offset: 0x4FE4C, size: 0x8, addend: 0x0, symName: __ZNSt3__19use_facetB8ue170006INS_8messagesIcEEEERKT_RKNS_6localeE, symObjAddr: 0x113DC, symBinAddr: 0x10002BD20, symSize: 0x2C }
  - { offsetInCU: 0x24DBF, offset: 0x4FE81, size: 0x8, addend: 0x0, symName: __ZNSt3__19use_facetB8ue170006INS_7collateIcEEEERKT_RKNS_6localeE, symObjAddr: 0x11408, symBinAddr: 0x10002BD4C, symSize: 0x2C }
  - { offsetInCU: 0x24E9B, offset: 0x4FF5D, size: 0x8, addend: 0x0, symName: __ZNSt3__1neB8ue170006ERKNS_14__map_iteratorINS_15__tree_iteratorINS_12__value_typeIN5boost13re_detail_50021cpp_regex_traits_baseIcEENS_15__list_iteratorINS_4pairINS_10shared_ptrIKNS4_31cpp_regex_traits_implementationIcEEEEPKS6_EEPvEEEEPNS_11__tree_nodeISJ_SH_EElEEEESQ_, symObjAddr: 0x1331C, symBinAddr: 0x10002DC60, symSize: 0x30 }
  - { offsetInCU: 0x24ED8, offset: 0x4FF9A, size: 0x8, addend: 0x0, symName: __ZNSt3__1neB8ue170006ERKNS_15__list_iteratorINS_4pairINS_10shared_ptrIKN5boost13re_detail_50031cpp_regex_traits_implementationIcEEEEPKNS4_21cpp_regex_traits_baseIcEEEEPvEESH_, symObjAddr: 0x13600, symBinAddr: 0x10002DF44, symSize: 0x34 }
  - { offsetInCU: 0x24FF4, offset: 0x500B6, size: 0x8, addend: 0x0, symName: __ZNSt3__19make_pairB8ue170006IRKN5boost13re_detail_50021cpp_regex_traits_baseIcEERNS_15__list_iteratorINS_4pairINS_10shared_ptrIKNS2_31cpp_regex_traits_implementationIcEEEEPS5_EEPvEEEENS8_INS_18__unwrap_ref_decayIT_E4typeENSJ_IT0_E4typeEEEOSK_OSN_, symObjAddr: 0x14B3C, symBinAddr: 0x10002F480, symSize: 0x40 }
  - { offsetInCU: 0x25076, offset: 0x50138, size: 0x8, addend: 0x0, symName: __ZNSt3__110destroy_atB8ue170006INS_4pairIKN5boost13re_detail_50021cpp_regex_traits_baseIcEENS_15__list_iteratorINS1_INS_10shared_ptrIKNS3_31cpp_regex_traits_implementationIcEEEEPS6_EEPvEEEELi0EEEvPT_, symObjAddr: 0x1619C, symBinAddr: 0x100030A08, symSize: 0x24 }
  - { offsetInCU: 0x250AD, offset: 0x5016F, size: 0x8, addend: 0x0, symName: __ZNSt3__112__destroy_atB8ue170006INS_4pairIKN5boost13re_detail_50021cpp_regex_traits_baseIcEENS_15__list_iteratorINS1_INS_10shared_ptrIKNS3_31cpp_regex_traits_implementationIcEEEEPS6_EEPvEEEELi0EEEvPT_, symObjAddr: 0x161C0, symBinAddr: 0x100030A2C, symSize: 0x24 }
  - { offsetInCU: 0x250E4, offset: 0x501A6, size: 0x8, addend: 0x0, symName: __ZNSt3__17launderB8ue170006INS_4pairIKN5boost13re_detail_50021cpp_regex_traits_baseIcEENS_15__list_iteratorINS1_INS_10shared_ptrIKNS3_31cpp_regex_traits_implementationIcEEEEPS6_EEPvEEEEEEPT_SJ_, symObjAddr: 0x16260, symBinAddr: 0x100030ACC, symSize: 0x24 }
  - { offsetInCU: 0x2511C, offset: 0x501DE, size: 0x8, addend: 0x0, symName: __ZNSt3__19__launderB8ue170006INS_4pairIKN5boost13re_detail_50021cpp_regex_traits_baseIcEENS_15__list_iteratorINS1_INS_10shared_ptrIKNS3_31cpp_regex_traits_implementationIcEEEEPS6_EEPvEEEEEEPT_SJ_, symObjAddr: 0x16284, symBinAddr: 0x100030AF0, symSize: 0x14 }
  - { offsetInCU: 0x25152, offset: 0x50214, size: 0x8, addend: 0x0, symName: __ZNSt3__1neB8ue170006ERKNS_15__tree_iteratorINS_12__value_typeIN5boost13re_detail_50021cpp_regex_traits_baseIcEENS_15__list_iteratorINS_4pairINS_10shared_ptrIKNS3_31cpp_regex_traits_implementationIcEEEEPKS5_EEPvEEEEPNS_11__tree_nodeISI_SG_EElEESO_, symObjAddr: 0x16C60, symBinAddr: 0x1000314CC, symSize: 0x34 }
  - { offsetInCU: 0x2518F, offset: 0x50251, size: 0x8, addend: 0x0, symName: __ZNSt3__17launderB8ue170006IKNS_4pairIKN5boost13re_detail_50021cpp_regex_traits_baseIcEENS_15__list_iteratorINS1_INS_10shared_ptrIKNS3_31cpp_regex_traits_implementationIcEEEEPS6_EEPvEEEEEEPT_SK_, symObjAddr: 0x17340, symBinAddr: 0x100031BAC, symSize: 0x24 }
  - { offsetInCU: 0x251C7, offset: 0x50289, size: 0x8, addend: 0x0, symName: __ZNSt3__19__launderB8ue170006IKNS_4pairIKN5boost13re_detail_50021cpp_regex_traits_baseIcEENS_15__list_iteratorINS1_INS_10shared_ptrIKNS3_31cpp_regex_traits_implementationIcEEEEPS6_EEPvEEEEEEPT_SK_, symObjAddr: 0x17364, symBinAddr: 0x100031BD0, symSize: 0x14 }
  - { offsetInCU: 0x251FD, offset: 0x502BF, size: 0x8, addend: 0x0, symName: __ZNSt3__1eqB8ue170006ERKNS_15__tree_iteratorINS_12__value_typeIN5boost13re_detail_50021cpp_regex_traits_baseIcEENS_15__list_iteratorINS_4pairINS_10shared_ptrIKNS3_31cpp_regex_traits_implementationIcEEEEPKS5_EEPvEEEEPNS_11__tree_nodeISI_SG_EElEESO_, symObjAddr: 0x173E8, symBinAddr: 0x100031C54, symSize: 0xB8 }
  - { offsetInCU: 0x2523A, offset: 0x502FC, size: 0x8, addend: 0x0, symName: __ZNSt3__1eqB8ue170006ERKNS_15__list_iteratorINS_4pairINS_10shared_ptrIKN5boost13re_detail_50031cpp_regex_traits_implementationIcEEEEPKNS4_21cpp_regex_traits_baseIcEEEEPvEESH_, symObjAddr: 0x1773C, symBinAddr: 0x100031FA8, symSize: 0xB8 }
  - { offsetInCU: 0x25343, offset: 0x50405, size: 0x8, addend: 0x0, symName: __ZNSt3__110destroy_atB8ue170006INS_4pairINS_10shared_ptrIKN5boost13re_detail_50031cpp_regex_traits_implementationIcEEEEPKNS4_21cpp_regex_traits_baseIcEEEELi0EEEvPT_, symObjAddr: 0x18AC8, symBinAddr: 0x10003330C, symSize: 0x24 }
  - { offsetInCU: 0x2537A, offset: 0x5043C, size: 0x8, addend: 0x0, symName: __ZNSt3__112__destroy_atB8ue170006INS_4pairINS_10shared_ptrIKN5boost13re_detail_50031cpp_regex_traits_implementationIcEEEEPKNS4_21cpp_regex_traits_baseIcEEEELi0EEEvPT_, symObjAddr: 0x18AEC, symBinAddr: 0x100033330, symSize: 0x24 }
  - { offsetInCU: 0x253B1, offset: 0x50473, size: 0x8, addend: 0x0, symName: __ZNSt3__134__libcpp_atomic_refcount_incrementB8ue170006IlEET_RS1_, symObjAddr: 0x18D78, symBinAddr: 0x1000335BC, symSize: 0x80 }
  - { offsetInCU: 0x253E6, offset: 0x504A8, size: 0x8, addend: 0x0, symName: __ZNSt3__1plB8ue170006IcNS_11char_traitsIcEENS_9allocatorIcEEEENS_12basic_stringIT_T0_T1_EERKS9_SB_, symObjAddr: 0x1B0A4, symBinAddr: 0x1000358E8, symSize: 0x2F8 }
  - { offsetInCU: 0x254C4, offset: 0x50586, size: 0x8, addend: 0x0, symName: __ZNSt3__116forward_as_tupleB8ue170006IJiEEENS_5tupleIJDpOT_EEES4_, symObjAddr: 0x20414, symBinAddr: 0x10003A9D0, symSize: 0x1F8 }
  - { offsetInCU: 0x254FF, offset: 0x505C1, size: 0x8, addend: 0x0, symName: __ZNSt3__116forward_as_tupleB8ue170006IJEEENS_5tupleIJDpOT_EEES4_, symObjAddr: 0x2060C, symBinAddr: 0x10003ABC8, symSize: 0x4 }
  - { offsetInCU: 0x25522, offset: 0x505E4, size: 0x8, addend: 0x0, symName: __ZNSt3__17launderB8ue170006IKNS_4pairIKiNS_12basic_stringIcNS_11char_traitsIcEENS_9allocatorIcEEEEEEEEPT_SC_, symObjAddr: 0x2161C, symBinAddr: 0x10003BBD8, symSize: 0x24 }
  - { offsetInCU: 0x2555A, offset: 0x5061C, size: 0x8, addend: 0x0, symName: __ZNSt3__19__launderB8ue170006IKNS_4pairIKiNS_12basic_stringIcNS_11char_traitsIcEENS_9allocatorIcEEEEEEEEPT_SC_, symObjAddr: 0x21640, symBinAddr: 0x10003BBFC, symSize: 0x14 }
  - { offsetInCU: 0x255D3, offset: 0x50695, size: 0x8, addend: 0x0, symName: __ZNSt3__112construct_atB8ue170006INS_4pairIKiNS_12basic_stringIcNS_11char_traitsIcEENS_9allocatorIcEEEEEEJRKNS_21piecewise_construct_tENS_5tupleIJOiEEENSD_IJEEEEPS9_EEPT_SJ_DpOT0_, symObjAddr: 0x21D54, symBinAddr: 0x10003C310, symSize: 0x21C }
  - { offsetInCU: 0x2567A, offset: 0x5073C, size: 0x8, addend: 0x0, symName: __ZNSt3__13getB8ue170006ILm0EJOiEEERNS_13tuple_elementIXT_ENS_5tupleIJDpT0_EEEE4typeERS6_, symObjAddr: 0x2230C, symBinAddr: 0x10003C8C8, symSize: 0x24 }
  - { offsetInCU: 0x256BE, offset: 0x50780, size: 0x8, addend: 0x0, symName: __ZNSt3__127__tree_balance_after_insertB8ue170006IPNS_16__tree_node_baseIPvEEEEvT_S5_, symObjAddr: 0x22404, symBinAddr: 0x10003C9C0, symSize: 0x960 }
  - { offsetInCU: 0x25732, offset: 0x507F4, size: 0x8, addend: 0x0, symName: __ZNSt3__120__tree_is_left_childB8ue170006IPNS_16__tree_node_baseIPvEEEEbT_, symObjAddr: 0x22DF0, symBinAddr: 0x10003D3AC, symSize: 0xB8 }
  - { offsetInCU: 0x25768, offset: 0x5082A, size: 0x8, addend: 0x0, symName: __ZNSt3__118__tree_left_rotateB8ue170006IPNS_16__tree_node_baseIPvEEEEvT_, symObjAddr: 0x22EA8, symBinAddr: 0x10003D464, symSize: 0x374 }
  - { offsetInCU: 0x257AA, offset: 0x5086C, size: 0x8, addend: 0x0, symName: __ZNSt3__119__tree_right_rotateB8ue170006IPNS_16__tree_node_baseIPvEEEEvT_, symObjAddr: 0x2321C, symBinAddr: 0x10003D7D8, symSize: 0x354 }
  - { offsetInCU: 0x257EB, offset: 0x508AD, size: 0x8, addend: 0x0, symName: __ZNSt3__110destroy_atB8ue170006INS_4pairIKiNS_12basic_stringIcNS_11char_traitsIcEENS_9allocatorIcEEEEEELi0EEEvPT_, symObjAddr: 0x23920, symBinAddr: 0x10003DEDC, symSize: 0x24 }
  - { offsetInCU: 0x25822, offset: 0x508E4, size: 0x8, addend: 0x0, symName: __ZNSt3__112__destroy_atB8ue170006INS_4pairIKiNS_12basic_stringIcNS_11char_traitsIcEENS_9allocatorIcEEEEEELi0EEEvPT_, symObjAddr: 0x23944, symBinAddr: 0x10003DF00, symSize: 0x24 }
  - { offsetInCU: 0x258B0, offset: 0x50972, size: 0x8, addend: 0x0, symName: __ZNSt3__17launderB8ue170006INS_4pairIKiNS_12basic_stringIcNS_11char_traitsIcEENS_9allocatorIcEEEEEEEEPT_SB_, symObjAddr: 0x23D54, symBinAddr: 0x10003E310, symSize: 0x24 }
  - { offsetInCU: 0x258E8, offset: 0x509AA, size: 0x8, addend: 0x0, symName: __ZNSt3__19__launderB8ue170006INS_4pairIKiNS_12basic_stringIcNS_11char_traitsIcEENS_9allocatorIcEEEEEEEEPT_SB_, symObjAddr: 0x23D78, symBinAddr: 0x10003E334, symSize: 0x14 }
  - { offsetInCU: 0x2591E, offset: 0x509E0, size: 0x8, addend: 0x0, symName: __ZNSt3__116forward_as_tupleB8ue170006IJRKNS_12basic_stringIcNS_11char_traitsIcEENS_9allocatorIcEEEEEEENS_5tupleIJDpOT_EEESC_, symObjAddr: 0x242AC, symBinAddr: 0x10003E868, symSize: 0x1F8 }
  - { offsetInCU: 0x25958, offset: 0x50A1A, size: 0x8, addend: 0x0, symName: __ZNSt3__1ltB8ue170006ENS_15strong_orderingENS_20_CmpUnspecifiedParamE, symObjAddr: 0x25650, symBinAddr: 0x10003FC0C, symSize: 0x274 }
  - { offsetInCU: 0x25997, offset: 0x50A59, size: 0x8, addend: 0x0, symName: __ZNSt3__1ssB8ue170006IcNS_11char_traitsIcEENS_9allocatorIcEEEEDaRKNS_12basic_stringIT_T0_T1_EESC_, symObjAddr: 0x258C4, symBinAddr: 0x10003FE80, symSize: 0x3AC }
  - { offsetInCU: 0x25A0D, offset: 0x50ACF, size: 0x8, addend: 0x0, symName: __ZNSt3__1ssB8ue170006IcNS_11char_traitsIcEEEEDaNS_17basic_string_viewIT_T0_EES7_, symObjAddr: 0x25CA4, symBinAddr: 0x100040260, symSize: 0x3E8 }
  - { offsetInCU: 0x25A64, offset: 0x50B26, size: 0x8, addend: 0x0, symName: __ZNSt3__17launderB8ue170006IKNS_4pairIKNS_12basic_stringIcNS_11char_traitsIcEENS_9allocatorIcEEEEjEEEEPT_SC_, symObjAddr: 0x260A4, symBinAddr: 0x100040660, symSize: 0x24 }
  - { offsetInCU: 0x25A9C, offset: 0x50B5E, size: 0x8, addend: 0x0, symName: __ZNSt3__19__launderB8ue170006IKNS_4pairIKNS_12basic_stringIcNS_11char_traitsIcEENS_9allocatorIcEEEEjEEEEPT_SC_, symObjAddr: 0x260C8, symBinAddr: 0x100040684, symSize: 0x14 }
  - { offsetInCU: 0x25B15, offset: 0x50BD7, size: 0x8, addend: 0x0, symName: __ZNSt3__112construct_atB8ue170006INS_4pairIKNS_12basic_stringIcNS_11char_traitsIcEENS_9allocatorIcEEEEjEEJRKNS_21piecewise_construct_tENS_5tupleIJRS8_EEENSD_IJEEEEPS9_EEPT_SJ_DpOT0_, symObjAddr: 0x267DC, symBinAddr: 0x100040D98, symSize: 0x21C }
  - { offsetInCU: 0x25BB0, offset: 0x50C72, size: 0x8, addend: 0x0, symName: __ZNSt3__13getB8ue170006ILm0EJRKNS_12basic_stringIcNS_11char_traitsIcEENS_9allocatorIcEEEEEEERNS_13tuple_elementIXT_ENS_5tupleIJDpT0_EEEE4typeERSD_, symObjAddr: 0x26D1C, symBinAddr: 0x1000412D8, symSize: 0x24 }
  - { offsetInCU: 0x25BF3, offset: 0x50CB5, size: 0x8, addend: 0x0, symName: __ZNSt3__110destroy_atB8ue170006INS_4pairIKNS_12basic_stringIcNS_11char_traitsIcEENS_9allocatorIcEEEEjEELi0EEEvPT_, symObjAddr: 0x27178, symBinAddr: 0x100041734, symSize: 0x24 }
  - { offsetInCU: 0x25C2A, offset: 0x50CEC, size: 0x8, addend: 0x0, symName: __ZNSt3__112__destroy_atB8ue170006INS_4pairIKNS_12basic_stringIcNS_11char_traitsIcEENS_9allocatorIcEEEEjEELi0EEEvPT_, symObjAddr: 0x2719C, symBinAddr: 0x100041758, symSize: 0x24 }
  - { offsetInCU: 0x25CA9, offset: 0x50D6B, size: 0x8, addend: 0x0, symName: __ZNSt3__17launderB8ue170006INS_4pairIKNS_12basic_stringIcNS_11char_traitsIcEENS_9allocatorIcEEEEjEEEEPT_SB_, symObjAddr: 0x275A8, symBinAddr: 0x100041B64, symSize: 0x24 }
  - { offsetInCU: 0x25CE1, offset: 0x50DA3, size: 0x8, addend: 0x0, symName: __ZNSt3__19__launderB8ue170006INS_4pairIKNS_12basic_stringIcNS_11char_traitsIcEENS_9allocatorIcEEEEjEEEEPT_SB_, symObjAddr: 0x275CC, symBinAddr: 0x100041B88, symSize: 0x14 }
  - { offsetInCU: 0x25F02, offset: 0x50FC4, size: 0x8, addend: 0x0, symName: __ZNSt3__14findB8ue170006INS_11__wrap_iterIPcEEcEET_S4_S4_RKT0_, symObjAddr: 0x2886C, symBinAddr: 0x100042DE0, symSize: 0x4AC }
  - { offsetInCU: 0x25F78, offset: 0x5103A, size: 0x8, addend: 0x0, symName: __ZNSt3__113__rewrap_iterB8ue170006INS_11__wrap_iterIPcEES2_NS_18__unwrap_iter_implIS3_Lb1EEEEET_S6_T0_, symObjAddr: 0x29750, symBinAddr: 0x100043750, symSize: 0x338 }
  - { offsetInCU: 0x25FD2, offset: 0x51094, size: 0x8, addend: 0x0, symName: __ZNSt3__111__find_implB8ue170006IccNS_10__identityELi0EEEPT_S3_S3_RKT0_RT1_, symObjAddr: 0x29A88, symBinAddr: 0x100043A88, symSize: 0x108 }
  - { offsetInCU: 0x2605B, offset: 0x5111D, size: 0x8, addend: 0x0, symName: __ZNSt3__113__unwrap_iterB8ue170006INS_11__wrap_iterIPcEENS_18__unwrap_iter_implIS3_Lb1EEELi0EEEDTclsrT0_8__unwrapclsr3stdE7declvalIT_EEEES7_, symObjAddr: 0x29B90, symBinAddr: 0x100043B90, symSize: 0x274 }
  - { offsetInCU: 0x260F6, offset: 0x511B8, size: 0x8, addend: 0x0, symName: __ZNSt3__112__to_addressB8ue170006INS_11__wrap_iterIPcEEvEEu7__decayIDTclsr19__to_address_helperIT_EE6__callclsr3stdE7declvalIRKS4_EEEEES6_, symObjAddr: 0x2A2DC, symBinAddr: 0x1000442DC, symSize: 0x24 }
  - { offsetInCU: 0x26194, offset: 0x51256, size: 0x8, addend: 0x0, symName: __ZNSt3__118__constexpr_memchrB8ue170006IccEEPT_S2_T0_m, symObjAddr: 0x2A76C, symBinAddr: 0x10004476C, symSize: 0x2C4 }
  - { offsetInCU: 0x2629A, offset: 0x5135C, size: 0x8, addend: 0x0, symName: __ZNSt3__110destroy_atB8ue170006INS_4pairIKNS_12basic_stringIcNS_11char_traitsIcEENS_9allocatorIcEEEES7_EELi0EEEvPT_, symObjAddr: 0x2B200, symBinAddr: 0x100044F60, symSize: 0x24 }
  - { offsetInCU: 0x262D1, offset: 0x51393, size: 0x8, addend: 0x0, symName: __ZNSt3__112__destroy_atB8ue170006INS_4pairIKNS_12basic_stringIcNS_11char_traitsIcEENS_9allocatorIcEEEES7_EELi0EEEvPT_, symObjAddr: 0x2B224, symBinAddr: 0x100044F84, symSize: 0x24 }
  - { offsetInCU: 0x26308, offset: 0x513CA, size: 0x8, addend: 0x0, symName: __ZNSt3__17launderB8ue170006INS_4pairIKNS_12basic_stringIcNS_11char_traitsIcEENS_9allocatorIcEEEES7_EEEEPT_SB_, symObjAddr: 0x2B2D0, symBinAddr: 0x100045030, symSize: 0x24 }
  - { offsetInCU: 0x26340, offset: 0x51402, size: 0x8, addend: 0x0, symName: __ZNSt3__19__launderB8ue170006INS_4pairIKNS_12basic_stringIcNS_11char_traitsIcEENS_9allocatorIcEEEES7_EEEEPT_SB_, symObjAddr: 0x2B2F4, symBinAddr: 0x100045054, symSize: 0x14 }
  - { offsetInCU: 0x26DDE, offset: 0x51EA0, size: 0x8, addend: 0x0, symName: __ZNSt3__112construct_atB8ue170006INS_4pairINS_10shared_ptrIKN5boost13re_detail_50031cpp_regex_traits_implementationIcEEEEPKNS4_21cpp_regex_traits_baseIcEEEEJSD_EPSD_EEPT_SG_DpOT0_, symObjAddr: 0x2DC1C, symBinAddr: 0x10004797C, symSize: 0x3C }
  - { offsetInCU: 0x26E9A, offset: 0x51F5C, size: 0x8, addend: 0x0, symName: __ZNSt3__112construct_atB8ue170006INS_4pairIKN5boost13re_detail_50021cpp_regex_traits_baseIcEENS_15__list_iteratorINS1_INS_10shared_ptrIKNS3_31cpp_regex_traits_implementationIcEEEEPS6_EEPvEEEEJNS1_IS5_SG_EEEPSH_EEPT_SL_DpOT0_, symObjAddr: 0x301D8, symBinAddr: 0x100049F38, symSize: 0x3C }
  - { offsetInCU: 0x26F0A, offset: 0x51FCC, size: 0x8, addend: 0x0, symName: __ZNSt3__116forward_as_tupleB8ue170006IJRKN5boost13re_detail_50021cpp_regex_traits_baseIcEEEEENS_5tupleIJDpOT_EEESA_, symObjAddr: 0x3115C, symBinAddr: 0x10004AEBC, symSize: 0x1F8 }
  - { offsetInCU: 0x26F44, offset: 0x52006, size: 0x8, addend: 0x0, symName: __ZNSt3__112construct_atB8ue170006INS_4pairIKN5boost13re_detail_50021cpp_regex_traits_baseIcEENS_15__list_iteratorINS1_INS_10shared_ptrIKNS3_31cpp_regex_traits_implementationIcEEEEPS6_EEPvEEEEJRKNS_21piecewise_construct_tENS_5tupleIJRS6_EEENSL_IJEEEEPSH_EEPT_SR_DpOT0_, symObjAddr: 0x31728, symBinAddr: 0x10004B488, symSize: 0x21C }
  - { offsetInCU: 0x26FDF, offset: 0x520A1, size: 0x8, addend: 0x0, symName: __ZNSt3__13getB8ue170006ILm0EJRKN5boost13re_detail_50021cpp_regex_traits_baseIcEEEEERNS_13tuple_elementIXT_ENS_5tupleIJDpT0_EEEE4typeERSB_, symObjAddr: 0x31C18, symBinAddr: 0x10004B978, symSize: 0x24 }
  - { offsetInCU: 0x27037, offset: 0x520F9, size: 0x8, addend: 0x0, symName: __ZNSt3__121__libcpp_relaxed_loadB8ue170006IlEET_PKS1_, symObjAddr: 0x31ED4, symBinAddr: 0x10004BC34, symSize: 0x68 }
  - { offsetInCU: 0x2706D, offset: 0x5212F, size: 0x8, addend: 0x0, symName: __ZNSt3__113__tree_removeB8ue170006IPNS_16__tree_node_baseIPvEEEEvT_S5_, symObjAddr: 0x32D70, symBinAddr: 0x10004CAD0, symSize: 0x1ED4 }
  - { offsetInCU: 0x270EA, offset: 0x521AC, size: 0x8, addend: 0x0, symName: __ZNSt3__116__tree_next_iterB8ue170006IPNS_15__tree_end_nodeIPNS_16__tree_node_baseIPvEEEES5_EET_T0_, symObjAddr: 0x34C44, symBinAddr: 0x10004E9A4, symSize: 0x134 }
  - { offsetInCU: 0x27128, offset: 0x521EA, size: 0x8, addend: 0x0, symName: __ZNSt3__110__tree_minB8ue170006IPNS_16__tree_node_baseIPvEEEET_S5_, symObjAddr: 0x34D78, symBinAddr: 0x10004EAD8, symSize: 0xC4 }
  - { offsetInCU: 0x2715D, offset: 0x5221F, size: 0x8, addend: 0x0, symName: __ZNSt3__111__tree_nextB8ue170006IPNS_16__tree_node_baseIPvEEEET_S5_, symObjAddr: 0x34E3C, symBinAddr: 0x10004EB9C, symSize: 0xFC }
  - { offsetInCU: 0x27192, offset: 0x52254, size: 0x8, addend: 0x0, symName: __ZNSt3__134__libcpp_atomic_refcount_decrementB8ue170006IlEET_RS1_, symObjAddr: 0x353A4, symBinAddr: 0x10004F104, symSize: 0x80 }
  - { offsetInCU: 0x27BED, offset: 0x52CAF, size: 0x8, addend: 0x0, symName: __ZNSt3__112__to_addressB8ue170006IN5boost13re_detail_50020named_subexpressions4nameEEEPT_S6_, symObjAddr: 0x37948, symBinAddr: 0x1000516A8, symSize: 0x14 }
  - { offsetInCU: 0x27C21, offset: 0x52CE3, size: 0x8, addend: 0x0, symName: __ZNSt3__110destroy_atB8ue170006IN5boost13re_detail_50020named_subexpressions4nameELi0EEEvPT_, symObjAddr: 0x3795C, symBinAddr: 0x1000516BC, symSize: 0x24 }
  - { offsetInCU: 0x27C59, offset: 0x52D1B, size: 0x8, addend: 0x0, symName: __ZNSt3__112__destroy_atB8ue170006IN5boost13re_detail_50020named_subexpressions4nameELi0EEEvPT_, symObjAddr: 0x37980, symBinAddr: 0x1000516E0, symSize: 0x10 }
  - { offsetInCU: 0x285DF, offset: 0x536A1, size: 0x8, addend: 0x0, symName: __ZNSt3__112__to_addressB8ue170006INS_4pairImmEEEEPT_S4_, symObjAddr: 0x397E4, symBinAddr: 0x100053544, symSize: 0x14 }
  - { offsetInCU: 0x28613, offset: 0x536D5, size: 0x8, addend: 0x0, symName: __ZNSt3__110destroy_atB8ue170006INS_4pairImmEELi0EEEvPT_, symObjAddr: 0x397F8, symBinAddr: 0x100053558, symSize: 0x24 }
  - { offsetInCU: 0x2864B, offset: 0x5370D, size: 0x8, addend: 0x0, symName: __ZNSt3__112__destroy_atB8ue170006INS_4pairImmEELi0EEEvPT_, symObjAddr: 0x3981C, symBinAddr: 0x10005357C, symSize: 0x10 }
  - { offsetInCU: 0x28759, offset: 0x5381B, size: 0x8, addend: 0x0, symName: __ZNSt3__1neB8ue170006ERKNS_20__map_const_iteratorINS_21__tree_const_iteratorINS_12__value_typeINS_12basic_stringIcNS_11char_traitsIcEENS_9allocatorIcEEEEjEEPNS_11__tree_nodeIS9_PvEElEEEESH_, symObjAddr: 0x3DAB4, symBinAddr: 0x100057814, symSize: 0x30 }
  - { offsetInCU: 0x28796, offset: 0x53858, size: 0x8, addend: 0x0, symName: __ZNSt3__1neB8ue170006ERKNS_21__tree_const_iteratorINS_12__value_typeINS_12basic_stringIcNS_11char_traitsIcEENS_9allocatorIcEEEEjEEPNS_11__tree_nodeIS8_PvEElEESF_, symObjAddr: 0x3EA18, symBinAddr: 0x100058778, symSize: 0x34 }
  - { offsetInCU: 0x287D3, offset: 0x53895, size: 0x8, addend: 0x0, symName: __ZNSt3__1eqB8ue170006ERKNS_21__tree_const_iteratorINS_12__value_typeINS_12basic_stringIcNS_11char_traitsIcEENS_9allocatorIcEEEEjEEPNS_11__tree_nodeIS8_PvEElEESF_, symObjAddr: 0x3ED44, symBinAddr: 0x100058AA4, symSize: 0xB8 }
  - { offsetInCU: 0x28876, offset: 0x53938, size: 0x8, addend: 0x0, symName: __ZNSt3__111lower_boundB8ue170006IPKN5boost13re_detail_50023character_pointer_rangeIcEES4_EET_S7_S7_RKT0_, symObjAddr: 0x3F0EC, symBinAddr: 0x100058E4C, symSize: 0x34 }
  - { offsetInCU: 0x288D0, offset: 0x53992, size: 0x8, addend: 0x0, symName: __ZNSt3__111lower_boundB8ue170006IPKN5boost13re_detail_50023character_pointer_rangeIcEES4_NS_6__lessIvvEEEET_S9_S9_RKT0_T1_, symObjAddr: 0x3F25C, symBinAddr: 0x100058FBC, symSize: 0x20C }
  - { offsetInCU: 0x2895A, offset: 0x53A1C, size: 0x8, addend: 0x0, symName: __ZNSt3__113__lower_boundB8ue170006INS_17_ClassicAlgPolicyEPKN5boost13re_detail_50023character_pointer_rangeIcEES7_S5_NS_10__identityENS_6__lessIvvEEEET0_SB_T1_RKT2_RT4_RT3_, symObjAddr: 0x3F468, symBinAddr: 0x1000591C8, symSize: 0x340 }
  - { offsetInCU: 0x28BEC, offset: 0x53CAE, size: 0x8, addend: 0x0, symName: __ZNSt3__115__half_positiveB8ue170006IlEENS_9enable_ifIXsr11is_integralIT_EE5valueES2_E4typeES2_, symObjAddr: 0x3F7D4, symBinAddr: 0x100059534, symSize: 0x1C }
  - { offsetInCU: 0x28C20, offset: 0x53CE2, size: 0x8, addend: 0x0, symName: __ZNSt3__18__invokeB8ue170006IRNS_6__lessIvvEEJRKN5boost13re_detail_50023character_pointer_rangeIcEES9_EEEDTclclsr3stdE7declvalIT_EEspclsr3stdE7declvalIT0_EEEEOSA_DpOSB_, symObjAddr: 0x3F81C, symBinAddr: 0x10005957C, symSize: 0x38 }
  - { offsetInCU: 0x28C85, offset: 0x53D47, size: 0x8, addend: 0x0, symName: __ZNSt3__18__invokeB8ue170006IRNS_10__identityEJRKN5boost13re_detail_50023character_pointer_rangeIcEEEEEDTclclsr3stdE7declvalIT_EEspclsr3stdE7declvalIT0_EEEEOS9_DpOSA_, symObjAddr: 0x3F854, symBinAddr: 0x1000595B4, symSize: 0x2C }
  - { offsetInCU: 0x28CD6, offset: 0x53D98, size: 0x8, addend: 0x0, symName: __ZNSt3__18distanceB8ue170006IPKN5boost13re_detail_50023character_pointer_rangeIcEEEENS_15iterator_traitsIT_E15difference_typeES8_S8_, symObjAddr: 0x3F880, symBinAddr: 0x1000595E0, symSize: 0x2C }
  - { offsetInCU: 0x28D1A, offset: 0x53DDC, size: 0x8, addend: 0x0, symName: __ZNSt3__110__distanceB8ue170006IPKN5boost13re_detail_50023character_pointer_rangeIcEEEENS_15iterator_traitsIT_E15difference_typeES8_S8_NS_26random_access_iterator_tagE, symObjAddr: 0x3F8AC, symBinAddr: 0x10005960C, symSize: 0x28 }
  - { offsetInCU: 0x28D67, offset: 0x53E29, size: 0x8, addend: 0x0, symName: __ZNSt3__19__advanceB8ue170006IPKN5boost13re_detail_50023character_pointer_rangeIcEEEEvRT_NS_15iterator_traitsIS7_E15difference_typeENS_26random_access_iterator_tagE, symObjAddr: 0x3F920, symBinAddr: 0x10005966C, symSize: 0x78 }
  - { offsetInCU: 0x28DB1, offset: 0x53E73, size: 0x8, addend: 0x0, symName: __ZNSt3__123lexicographical_compareB8ue170006IPKcS2_EEbT_S3_T0_S4_, symObjAddr: 0x3FB08, symBinAddr: 0x100059854, symSize: 0x40 }
  - { offsetInCU: 0x28E19, offset: 0x53EDB, size: 0x8, addend: 0x0, symName: __ZNSt3__123lexicographical_compareB8ue170006IPKcS2_NS_6__lessIvvEEEEbT_S5_T0_S6_T1_, symObjAddr: 0x3FB48, symBinAddr: 0x100059894, symSize: 0x1D8 }
  - { offsetInCU: 0x28EA0, offset: 0x53F62, size: 0x8, addend: 0x0, symName: __ZNSt3__125__lexicographical_compareB8ue170006IRNS_6__lessIvvEEPKcS5_EEbT0_S6_T1_S7_T_, symObjAddr: 0x3FD20, symBinAddr: 0x100059A6C, symSize: 0xF4 }
  - { offsetInCU: 0x28F6F, offset: 0x54031, size: 0x8, addend: 0x0, symName: __ZNSt3__15equalB8ue170006IPKcS2_EEbT_S3_T0_S4_, symObjAddr: 0x3FF30, symBinAddr: 0x100059C7C, symSize: 0x40 }
  - { offsetInCU: 0x28FD7, offset: 0x54099, size: 0x8, addend: 0x0, symName: __ZNSt3__17__equalB8ue170006INS_10__equal_toEPKcS3_EEbT0_S4_T1_S5_T_NS_26random_access_iterator_tagES7_, symObjAddr: 0x3FF70, symBinAddr: 0x100059CBC, symSize: 0x298 }
  - { offsetInCU: 0x29088, offset: 0x5414A, size: 0x8, addend: 0x0, symName: __ZNSt3__18distanceB8ue170006IPKcEENS_15iterator_traitsIT_E15difference_typeES4_S4_, symObjAddr: 0x40208, symBinAddr: 0x100059F54, symSize: 0x2C }
  - { offsetInCU: 0x290CB, offset: 0x5418D, size: 0x8, addend: 0x0, symName: __ZNSt3__112__equal_implB8ue170006IKcS1_NS_10__equal_toENS_10__identityES3_Li0EEEbPT_S5_PT0_S7_RT1_RT2_RT3_, symObjAddr: 0x40234, symBinAddr: 0x100059F80, symSize: 0x50 }
  - { offsetInCU: 0x29173, offset: 0x54235, size: 0x8, addend: 0x0, symName: __ZNSt3__110__distanceB8ue170006IPKcEENS_15iterator_traitsIT_E15difference_typeES4_S4_NS_26random_access_iterator_tagE, symObjAddr: 0x40284, symBinAddr: 0x100059FD0, symSize: 0x20 }
  - { offsetInCU: 0x291C0, offset: 0x54282, size: 0x8, addend: 0x0, symName: __ZNSt3__124__constexpr_memcmp_equalB8ue170006IccEEbPKT_PKT0_NS_15__element_countE, symObjAddr: 0x402A4, symBinAddr: 0x100059FF0, symSize: 0x4C }
  - { offsetInCU: 0x29228, offset: 0x542EA, size: 0x8, addend: 0x0, symName: __ZNSt3__119__allocate_at_leastB8ue170006INS_9allocatorIcEEEENS_19__allocation_resultINS_16allocator_traitsIT_E7pointerEEERS5_m, symObjAddr: 0x409D4, symBinAddr: 0x10005A720, symSize: 0x28C }
  - { offsetInCU: 0x2926E, offset: 0x54330, size: 0x8, addend: 0x0, symName: __ZNSt3__112__to_addressB8ue170006IhEEPT_S2_, symObjAddr: 0x414A0, symBinAddr: 0x10005B1EC, symSize: 0x14 }
  - { offsetInCU: 0x292A2, offset: 0x54364, size: 0x8, addend: 0x0, symName: __ZNSt3__110destroy_atB8ue170006IhLi0EEEvPT_, symObjAddr: 0x414B4, symBinAddr: 0x10005B200, symSize: 0x24 }
  - { offsetInCU: 0x292DA, offset: 0x5439C, size: 0x8, addend: 0x0, symName: __ZNSt3__112__destroy_atB8ue170006IhLi0EEEvPT_, symObjAddr: 0x414D8, symBinAddr: 0x10005B224, symSize: 0x10 }
  - { offsetInCU: 0x29311, offset: 0x543D3, size: 0x8, addend: 0x0, symName: __ZNSt3__1eqB8ue170006ERKNS_20__map_const_iteratorINS_21__tree_const_iteratorINS_12__value_typeIiNS_12basic_stringIcNS_11char_traitsIcEENS_9allocatorIcEEEEEEPNS_11__tree_nodeIS9_PvEElEEEESH_, symObjAddr: 0x46770, symBinAddr: 0x1000604BC, symSize: 0x30 }
  - { offsetInCU: 0x2934E, offset: 0x54410, size: 0x8, addend: 0x0, symName: __ZNSt3__1neB8ue170006ERKNS_21__tree_const_iteratorINS_12__value_typeIiNS_12basic_stringIcNS_11char_traitsIcEENS_9allocatorIcEEEEEEPNS_11__tree_nodeIS8_PvEElEESF_, symObjAddr: 0x473E0, symBinAddr: 0x10006112C, symSize: 0x34 }
  - { offsetInCU: 0x2938B, offset: 0x5444D, size: 0x8, addend: 0x0, symName: __ZNSt3__1eqB8ue170006ERKNS_21__tree_const_iteratorINS_12__value_typeIiNS_12basic_stringIcNS_11char_traitsIcEENS_9allocatorIcEEEEEEPNS_11__tree_nodeIS8_PvEElEESF_, symObjAddr: 0x4770C, symBinAddr: 0x100061458, symSize: 0xB8 }
  - { offsetInCU: 0x29938, offset: 0x549FA, size: 0x8, addend: 0x0, symName: __ZNSt3__14findB8ue170006IPKccEET_S3_S3_RKT0_, symObjAddr: 0x64CFC, symBinAddr: 0x10007EA34, symSize: 0x218 }
  - { offsetInCU: 0x299A7, offset: 0x54A69, size: 0x8, addend: 0x0, symName: __ZNSt3__19use_facetB8ue170006INS_8numpunctIcEEEERKT_RKNS_6localeE, symObjAddr: 0x64F14, symBinAddr: 0x10007EC4C, symSize: 0x2C }
  - { offsetInCU: 0x29B8C, offset: 0x54C4E, size: 0x8, addend: 0x0, symName: __ZNSt3__13hexB8ue170006ERNS_8ios_baseE, symObjAddr: 0x651A0, symBinAddr: 0x10007EED8, symSize: 0x30 }
  - { offsetInCU: 0x29BBA, offset: 0x54C7C, size: 0x8, addend: 0x0, symName: __ZNSt3__13octB8ue170006ERNS_8ios_baseE, symObjAddr: 0x651D0, symBinAddr: 0x10007EF08, symSize: 0x30 }
  - { offsetInCU: 0x29BE8, offset: 0x54CAA, size: 0x8, addend: 0x0, symName: __ZNSt3__13decB8ue170006ERNS_8ios_baseE, symObjAddr: 0x65200, symBinAddr: 0x10007EF38, symSize: 0x30 }
  - { offsetInCU: 0x29C16, offset: 0x54CD8, size: 0x8, addend: 0x0, symName: __ZNSt3__111__find_implB8ue170006IKccNS_10__identityELi0EEEPT_S4_S4_RKT0_RT1_, symObjAddr: 0x65EB8, symBinAddr: 0x10007F9E0, symSize: 0x108 }
  - { offsetInCU: 0x29EAF, offset: 0x54F71, size: 0x8, addend: 0x0, symName: __ZNSt3__112construct_atB8ue170006IN5boost13re_detail_50020named_subexpressions4nameEJS4_EPS4_EEPT_S7_DpOT0_, symObjAddr: 0x67830, symBinAddr: 0x10008128C, symSize: 0x40 }
  - { offsetInCU: 0x29F1F, offset: 0x54FE1, size: 0x8, addend: 0x0, symName: __ZNSt3__119__allocate_at_leastB8ue170006INS_9allocatorIN5boost13re_detail_50020named_subexpressions4nameEEEEENS_19__allocation_resultINS_16allocator_traitsIT_E7pointerEEERS9_m, symObjAddr: 0x69024, symBinAddr: 0x10008286C, symSize: 0x28C }
  - { offsetInCU: 0x29F64, offset: 0x55026, size: 0x8, addend: 0x0, symName: __ZNSt3__142__uninitialized_allocator_move_if_noexceptB8ue170006INS_9allocatorIN5boost13re_detail_50020named_subexpressions4nameEEENS_16reverse_iteratorIPS5_EES9_S5_vEET1_RT_T0_SD_SA_, symObjAddr: 0x694C0, symBinAddr: 0x100082D08, symSize: 0x4A8 }
  - { offsetInCU: 0x29FEF, offset: 0x550B1, size: 0x8, addend: 0x0, symName: __ZNSt3__14swapB8ue170006IPN5boost13re_detail_50020named_subexpressions4nameEEENS_9enable_ifIXaasr21is_move_constructibleIT_EE5valuesr18is_move_assignableIS7_EE5valueEvE4typeERS7_SA_, symObjAddr: 0x69A00, symBinAddr: 0x100083248, symSize: 0x134 }
  - { offsetInCU: 0x2A040, offset: 0x55102, size: 0x8, addend: 0x0, symName: __ZNSt3__14moveB8ue170006INS_16reverse_iteratorIPN5boost13re_detail_50020named_subexpressions4nameEEES7_EET0_T_S9_S8_, symObjAddr: 0x69BF4, symBinAddr: 0x10008343C, symSize: 0x4B0 }
  - { offsetInCU: 0x2A0A7, offset: 0x55169, size: 0x8, addend: 0x0, symName: __ZNSt3__16__moveB8ue170006INS_17_ClassicAlgPolicyENS_16reverse_iteratorIPN5boost13re_detail_50020named_subexpressions4nameEEES8_S8_EENS_4pairIT0_T2_EESA_T1_SB_, symObjAddr: 0x6A0A4, symBinAddr: 0x1000838EC, symSize: 0x424 }
  - { offsetInCU: 0x2A11F, offset: 0x551E1, size: 0x8, addend: 0x0, symName: __ZNSt3__123__dispatch_copy_or_moveB8ue170006INS_17_ClassicAlgPolicyENS_11__move_loopIS1_EENS_14__move_trivialENS_16reverse_iteratorIPN5boost13re_detail_50020named_subexpressions4nameEEESB_SB_EENS_4pairIT2_T4_EESD_T3_SE_, symObjAddr: 0x6A4C8, symBinAddr: 0x100083D10, symSize: 0x424 }
  - { offsetInCU: 0x2A1A9, offset: 0x5526B, size: 0x8, addend: 0x0, symName: __ZNSt3__121__unwrap_and_dispatchB8ue170006INS_10__overloadINS_11__move_loopINS_17_ClassicAlgPolicyEEENS_14__move_trivialEEENS_16reverse_iteratorIPN5boost13re_detail_50020named_subexpressions4nameEEESD_SD_Li0EEENS_4pairIT0_T2_EESF_T1_SG_, symObjAddr: 0x6A8EC, symBinAddr: 0x100084134, symSize: 0x880 }
  - { offsetInCU: 0x2A24D, offset: 0x5530F, size: 0x8, addend: 0x0, symName: __ZNSt3__114__unwrap_rangeB8ue170006INS_16reverse_iteratorIPN5boost13re_detail_50020named_subexpressions4nameEEES7_EEDaT_T0_, symObjAddr: 0x6B16C, symBinAddr: 0x1000849B4, symSize: 0x35C }
  - { offsetInCU: 0x2A445, offset: 0x55507, size: 0x8, addend: 0x0, symName: __ZNSt3__113__unwrap_iterB8ue170006INS_16reverse_iteratorIPN5boost13re_detail_50020named_subexpressions4nameEEENS_18__unwrap_iter_implIS7_Lb0EEELi0EEEDTclsrT0_8__unwrapclsr3stdE7declvalIT_EEEESB_, symObjAddr: 0x6B80C, symBinAddr: 0x100085054, symSize: 0x2EC }
  - { offsetInCU: 0x2A48D, offset: 0x5554F, size: 0x8, addend: 0x0, symName: __ZNSt3__19make_pairB8ue170006INS_16reverse_iteratorIPN5boost13re_detail_50020named_subexpressions4nameEEES7_EENS_4pairINS_18__unwrap_ref_decayIT_E4typeENS9_IT0_E4typeEEEOSA_OSD_, symObjAddr: 0x6BAF8, symBinAddr: 0x100085340, symSize: 0x38 }
  - { offsetInCU: 0x2A4DC, offset: 0x5559E, size: 0x8, addend: 0x0, symName: __ZNSt3__114__rewrap_rangeB8ue170006INS_16reverse_iteratorIPN5boost13re_detail_50020named_subexpressions4nameEEES7_S7_EET0_S8_T1_, symObjAddr: 0x6BB30, symBinAddr: 0x100085378, symSize: 0x3D4 }
  - { offsetInCU: 0x2A539, offset: 0x555FB, size: 0x8, addend: 0x0, symName: __ZNSt3__113__rewrap_iterB8ue170006INS_16reverse_iteratorIPN5boost13re_detail_50020named_subexpressions4nameEEES7_NS_18__unwrap_iter_implIS7_Lb0EEEEET_SA_T0_, symObjAddr: 0x6BF04, symBinAddr: 0x10008574C, symSize: 0x3E8 }
  - { offsetInCU: 0x2A5E6, offset: 0x556A8, size: 0x8, addend: 0x0, symName: __ZNSt3__1neB8ue170006IPN5boost13re_detail_50020named_subexpressions4nameES5_EEbRKNS_16reverse_iteratorIT_EERKNS6_IT0_EE, symObjAddr: 0x6C7C4, symBinAddr: 0x10008600C, symSize: 0x48 }
  - { offsetInCU: 0x2A69E, offset: 0x55760, size: 0x8, addend: 0x0, symName: __ZNSt3__1neB8ue170006IPN5boost13re_detail_50020named_subexpressions4nameEEEbRKNS_11__wrap_iterIT_EESA_, symObjAddr: 0x6D7C0, symBinAddr: 0x100087008, symSize: 0x34 }
  - { offsetInCU: 0x2A6E1, offset: 0x557A3, size: 0x8, addend: 0x0, symName: __ZNSt3__1eqB8ue170006IPN5boost13re_detail_50020named_subexpressions4nameEEEbRKNS_11__wrap_iterIT_EESA_, symObjAddr: 0x6DCB8, symBinAddr: 0x100087500, symSize: 0x48 }
  - { offsetInCU: 0x2A724, offset: 0x557E6, size: 0x8, addend: 0x0, symName: __ZNSt3__14swapB8ue170006IiEENS_9enable_ifIXaasr21is_move_constructibleIT_EE5valuesr18is_move_assignableIS2_EE5valueEvE4typeERS2_S5_, symObjAddr: 0x6DFE4, symBinAddr: 0x10008782C, symSize: 0x1D4 }
  - { offsetInCU: 0x2A79A, offset: 0x5585C, size: 0x8, addend: 0x0, symName: __ZNSt3__112construct_atB8ue170006INS_4pairImmEEJS2_EPS2_EEPT_S5_DpOT0_, symObjAddr: 0x6FD78, symBinAddr: 0x1000895C0, symSize: 0x40 }
  - { offsetInCU: 0x2A80A, offset: 0x558CC, size: 0x8, addend: 0x0, symName: __ZNSt3__119__allocate_at_leastB8ue170006INS_9allocatorINS_4pairImmEEEEEENS_19__allocation_resultINS_16allocator_traitsIT_E7pointerEEERS7_m, symObjAddr: 0x71358, symBinAddr: 0x10008ABA0, symSize: 0x28C }
  - { offsetInCU: 0x2A84F, offset: 0x55911, size: 0x8, addend: 0x0, symName: __ZNSt3__142__uninitialized_allocator_move_if_noexceptB8ue170006INS_9allocatorINS_4pairImmEEEENS_16reverse_iteratorIPS3_EES7_S7_EET2_RT_T0_T1_S8_, symObjAddr: 0x717F4, symBinAddr: 0x10008B03C, symSize: 0x544 }
  - { offsetInCU: 0x2A904, offset: 0x559C6, size: 0x8, addend: 0x0, symName: __ZNSt3__14swapB8ue170006IPNS_4pairImmEEEENS_9enable_ifIXaasr21is_move_constructibleIT_EE5valuesr18is_move_assignableIS5_EE5valueEvE4typeERS5_S8_, symObjAddr: 0x71DD0, symBinAddr: 0x10008B618, symSize: 0x134 }
  - { offsetInCU: 0x2A955, offset: 0x55A17, size: 0x8, addend: 0x0, symName: __ZNSt3__122__make_exception_guardB8ue170006INS_29_AllocatorDestroyRangeReverseINS_9allocatorINS_4pairImmEEEENS_16reverse_iteratorIPS4_EEEEEENS_28__exception_guard_exceptionsIT_EESB_, symObjAddr: 0x71FC4, symBinAddr: 0x10008B80C, symSize: 0x1F8 }
  - { offsetInCU: 0x2A98C, offset: 0x55A4E, size: 0x8, addend: 0x0, symName: __ZNSt3__1neB8ue170006IPNS_4pairImmEES3_EEbRKNS_16reverse_iteratorIT_EERKNS4_IT0_EE, symObjAddr: 0x72200, symBinAddr: 0x10008BA48, symSize: 0x48 }
  - { offsetInCU: 0x2A9D8, offset: 0x55A9A, size: 0x8, addend: 0x0, symName: __ZNSt3__112__to_addressB8ue170006INS_16reverse_iteratorIPNS_4pairImmEEEEvEEu7__decayIDTclsr19__to_address_helperIT_EE6__callclsr3stdE7declvalIRKS6_EEEEES8_, symObjAddr: 0x72248, symBinAddr: 0x10008BA90, symSize: 0x24 }
  - { offsetInCU: 0x2AA38, offset: 0x55AFA, size: 0x8, addend: 0x0, symName: __ZNSt3__14prevB8ue170006IPNS_4pairImmEEEENS_9enable_ifIXsr29__has_input_iterator_categoryIT_EE5valueES5_E4typeES5_NS_15iterator_traitsIS5_E15difference_typeE, symObjAddr: 0x72690, symBinAddr: 0x10008BED8, symSize: 0x240 }
  - { offsetInCU: 0x2AA80, offset: 0x55B42, size: 0x8, addend: 0x0, symName: __ZNSt3__19__advanceB8ue170006IPNS_4pairImmEEEEvRT_NS_15iterator_traitsIS4_E15difference_typeENS_26random_access_iterator_tagE, symObjAddr: 0x72908, symBinAddr: 0x10008C150, symSize: 0x78 }
  - { offsetInCU: 0x2AACB, offset: 0x55B8D, size: 0x8, addend: 0x0, symName: __ZNSt3__119__allocator_destroyB8ue170006INS_9allocatorINS_4pairImmEEEENS_16reverse_iteratorINS5_IPS3_EEEES8_EEvRT_T0_T1_, symObjAddr: 0x72DE4, symBinAddr: 0x10008C62C, symSize: 0x70 }
  - { offsetInCU: 0x2AB2F, offset: 0x55BF1, size: 0x8, addend: 0x0, symName: __ZNSt3__1neB8ue170006INS_16reverse_iteratorIPNS_4pairImmEEEES5_EEbRKNS1_IT_EERKNS1_IT0_EE, symObjAddr: 0x7309C, symBinAddr: 0x10008C8E4, symSize: 0x2CC }
  - { offsetInCU: 0x2AB7D, offset: 0x55C3F, size: 0x8, addend: 0x0, symName: __ZNSt3__112__to_addressB8ue170006INS_16reverse_iteratorINS1_IPNS_4pairImmEEEEEEvEEu7__decayIDTclsr19__to_address_helperIT_EE6__callclsr3stdE7declvalIRKS7_EEEEES9_, symObjAddr: 0x73368, symBinAddr: 0x10008CBB0, symSize: 0x24 }
  - { offsetInCU: 0x2ABDD, offset: 0x55C9F, size: 0x8, addend: 0x0, symName: __ZNSt3__14prevB8ue170006INS_16reverse_iteratorIPNS_4pairImmEEEEEENS_9enable_ifIXsr29__has_input_iterator_categoryIT_EE5valueES7_E4typeES7_NS_15iterator_traitsIS7_E15difference_typeE, symObjAddr: 0x738AC, symBinAddr: 0x10008D0F4, symSize: 0x294 }
  - { offsetInCU: 0x2AC25, offset: 0x55CE7, size: 0x8, addend: 0x0, symName: __ZNSt3__19__advanceB8ue170006INS_16reverse_iteratorIPNS_4pairImmEEEEEEvRT_NS_15iterator_traitsIS6_E15difference_typeENS_26random_access_iterator_tagE, symObjAddr: 0x73B78, symBinAddr: 0x10008D3C0, symSize: 0x2C }
  - { offsetInCU: 0x2AC6F, offset: 0x55D31, size: 0x8, addend: 0x0, symName: __ZNSt3__18distanceB8ue170006INS_21__tree_const_iteratorIN5boost13re_detail_5007digraphIcEEPNS_11__tree_nodeIS5_PvEElEEEENS_15iterator_traitsIT_E15difference_typeESC_SC_, symObjAddr: 0x81188, symBinAddr: 0x10009A8A8, symSize: 0x350 }
  - { offsetInCU: 0x2ACBA, offset: 0x55D7C, size: 0x8, addend: 0x0, symName: __ZNSt3__18distanceB8ue170006INS_11__wrap_iterIPKN5boost13re_detail_5007digraphIcEEEEEENS_15iterator_traitsIT_E15difference_typeESA_SA_, symObjAddr: 0x81940, symBinAddr: 0x10009B060, symSize: 0x350 }
  - { offsetInCU: 0x2AD05, offset: 0x55DC7, size: 0x8, addend: 0x0, symName: __ZNSt3__1neB8ue170006ERKNS_21__tree_const_iteratorIN5boost13re_detail_5007digraphIcEEPNS_11__tree_nodeIS4_PvEElEESB_, symObjAddr: 0x8276C, symBinAddr: 0x10009BE8C, symSize: 0x34 }
  - { offsetInCU: 0x2AD42, offset: 0x55E04, size: 0x8, addend: 0x0, symName: __ZNSt3__1neB8ue170006IPKN5boost13re_detail_5007digraphIcEEEEbRKNS_11__wrap_iterIT_EESB_, symObjAddr: 0x82B14, symBinAddr: 0x10009C234, symSize: 0x34 }
  - { offsetInCU: 0x2AD85, offset: 0x55E47, size: 0x8, addend: 0x0, symName: __ZNSt3__1gtB8ue170006ENS_15strong_orderingENS_20_CmpUnspecifiedParamE, symObjAddr: 0x82CC4, symBinAddr: 0x10009C3E4, symSize: 0x274 }
  - { offsetInCU: 0x2ADC4, offset: 0x55E86, size: 0x8, addend: 0x0, symName: __ZNSt3__14copyB8ue170006INS_11__wrap_iterIPcEES2_EET0_T_S5_S4_, symObjAddr: 0x82F38, symBinAddr: 0x10009C658, symSize: 0x428 }
  - { offsetInCU: 0x2AE27, offset: 0x55EE9, size: 0x8, addend: 0x0, symName: __ZNSt3__110__distanceB8ue170006INS_21__tree_const_iteratorIN5boost13re_detail_5007digraphIcEEPNS_11__tree_nodeIS5_PvEElEEEENS_15iterator_traitsIT_E15difference_typeESC_SC_NS_18input_iterator_tagE, symObjAddr: 0x833A4, symBinAddr: 0x10009CAC4, symSize: 0x2A8 }
  - { offsetInCU: 0x2AE8D, offset: 0x55F4F, size: 0x8, addend: 0x0, symName: __ZNSt3__110__distanceB8ue170006INS_11__wrap_iterIPKN5boost13re_detail_5007digraphIcEEEEEENS_15iterator_traitsIT_E15difference_typeESA_SA_NS_26random_access_iterator_tagE, symObjAddr: 0x83FF8, symBinAddr: 0x10009D718, symSize: 0x274 }
  - { offsetInCU: 0x2AEE4, offset: 0x55FA6, size: 0x8, addend: 0x0, symName: __ZNSt3__1miB8ue170006IPKN5boost13re_detail_5007digraphIcEES6_EEDTmicldtfp_4baseEcldtfp0_4baseEERKNS_11__wrap_iterIT_EERKNS8_IT0_EE, symObjAddr: 0x8426C, symBinAddr: 0x10009D98C, symSize: 0x48 }
  - { offsetInCU: 0x2AF30, offset: 0x55FF2, size: 0x8, addend: 0x0, symName: __ZNSt3__1eqB8ue170006ERKNS_21__tree_const_iteratorIN5boost13re_detail_5007digraphIcEEPNS_11__tree_nodeIS4_PvEElEESB_, symObjAddr: 0x84B48, symBinAddr: 0x10009E268, symSize: 0xB8 }
  - { offsetInCU: 0x2AFA0, offset: 0x56062, size: 0x8, addend: 0x0, symName: __ZNSt3__1eqB8ue170006IPKN5boost13re_detail_5007digraphIcEEEEbRKNS_11__wrap_iterIT_EESB_, symObjAddr: 0x84D30, symBinAddr: 0x10009E450, symSize: 0x48 }
  - { offsetInCU: 0x2AFE3, offset: 0x560A5, size: 0x8, addend: 0x0, symName: __ZNSt3__16__copyB8ue170006INS_17_ClassicAlgPolicyENS_11__wrap_iterIPcEES4_S3_EENS_4pairIT0_T2_EES6_T1_S7_, symObjAddr: 0x85000, symBinAddr: 0x10009E720, symSize: 0x3E4 }
  - { offsetInCU: 0x2B058, offset: 0x5611A, size: 0x8, addend: 0x0, symName: __ZNSt3__123__dispatch_copy_or_moveB8ue170006INS_17_ClassicAlgPolicyENS_11__copy_loopIS1_EENS_14__copy_trivialENS_11__wrap_iterIPcEES7_S6_EENS_4pairIT2_T4_EES9_T3_SA_, symObjAddr: 0x853E4, symBinAddr: 0x10009EB04, symSize: 0x3E4 }
  - { offsetInCU: 0x2B0DF, offset: 0x561A1, size: 0x8, addend: 0x0, symName: __ZNSt3__121__unwrap_and_dispatchB8ue170006INS_10__overloadINS_11__copy_loopINS_17_ClassicAlgPolicyEEENS_14__copy_trivialEEENS_11__wrap_iterIPcEES9_S8_Li0EEENS_4pairIT0_T2_EESB_T1_SC_, symObjAddr: 0x857C8, symBinAddr: 0x10009EEE8, symSize: 0x768 }
  - { offsetInCU: 0x2B180, offset: 0x56242, size: 0x8, addend: 0x0, symName: __ZNSt3__114__unwrap_rangeB8ue170006INS_11__wrap_iterIPcEES3_EEDaT_T0_, symObjAddr: 0x85F30, symBinAddr: 0x10009F650, symSize: 0x3CC }
  - { offsetInCU: 0x2B2CF, offset: 0x56391, size: 0x8, addend: 0x0, symName: __ZNSt3__19make_pairB8ue170006INS_11__wrap_iterIPcEES2_EENS_4pairINS_18__unwrap_ref_decayIT_E4typeENS5_IT0_E4typeEEEOS6_OS9_, symObjAddr: 0x8652C, symBinAddr: 0x10009FC4C, symSize: 0x20C }
  - { offsetInCU: 0x2B320, offset: 0x563E2, size: 0x8, addend: 0x0, symName: __ZNSt3__114__rewrap_rangeB8ue170006INS_11__wrap_iterIPcEES3_S2_EET0_S4_T1_, symObjAddr: 0x86738, symBinAddr: 0x10009FE58, symSize: 0x324 }
  - { offsetInCU: 0x2B3CA, offset: 0x5648C, size: 0x8, addend: 0x0, symName: __ZNSt3__119__copy_trivial_implB8ue170006IccEENS_4pairIPT_PT0_EES3_S3_S5_, symObjAddr: 0x87060, symBinAddr: 0x1000A0780, symSize: 0x3AC }
  - { offsetInCU: 0x2B439, offset: 0x564FB, size: 0x8, addend: 0x0, symName: __ZNSt3__119__constexpr_memmoveB8ue170006IccLi0EEEPT_S2_PT0_NS_15__element_countE, symObjAddr: 0x8740C, symBinAddr: 0x1000A0B2C, symSize: 0x64 }
  - { offsetInCU: 0x2B4A7, offset: 0x56569, size: 0x8, addend: 0x0, symName: __ZNSt3__19make_pairB8ue170006IRPcS1_EENS_4pairINS_18__unwrap_ref_decayIT_E4typeENS4_IT0_E4typeEEEOS5_OS8_, symObjAddr: 0x87470, symBinAddr: 0x1000A0B90, symSize: 0x20C }
  - { offsetInCU: 0x2B5CC, offset: 0x5668E, size: 0x8, addend: 0x0, symName: __ZNSt3__1leB8ue170006ENS_15strong_orderingENS_20_CmpUnspecifiedParamE, symObjAddr: 0x890B4, symBinAddr: 0x1000A27D4, symSize: 0x274 }
  - { offsetInCU: 0x2B60C, offset: 0x566CE, size: 0x8, addend: 0x0, symName: __ZNSt3__112__to_addressB8ue170006IKN5boost13re_detail_5007digraphIcEEEEPT_S7_, symObjAddr: 0x8982C, symBinAddr: 0x1000A2D18, symSize: 0x14 }
  - { offsetInCU: 0x2B640, offset: 0x56702, size: 0x8, addend: 0x0, symName: __ZNSt3__110destroy_atB8ue170006IN5boost13re_detail_5007digraphIcEELi0EEEvPT_, symObjAddr: 0x89BF4, symBinAddr: 0x1000A30E0, symSize: 0x24 }
  - { offsetInCU: 0x2B678, offset: 0x5673A, size: 0x8, addend: 0x0, symName: __ZNSt3__112__destroy_atB8ue170006IN5boost13re_detail_5007digraphIcEELi0EEEvPT_, symObjAddr: 0x89C18, symBinAddr: 0x1000A3104, symSize: 0x10 }
  - { offsetInCU: 0x2B6B0, offset: 0x56772, size: 0x8, addend: 0x0, symName: __ZNSt3__112__to_addressB8ue170006IN5boost13re_detail_5007digraphIcEEEEPT_S6_, symObjAddr: 0x8A4BC, symBinAddr: 0x1000A39A8, symSize: 0x14 }
  - { offsetInCU: 0x2B8CF, offset: 0x56991, size: 0x8, addend: 0x0, symName: __ZNSt3__13minB8ue170006IlEERKT_S3_S3_, symObjAddr: 0x8A738, symBinAddr: 0x1000A3C24, symSize: 0x2C }
  - { offsetInCU: 0x2B912, offset: 0x569D4, size: 0x8, addend: 0x0, symName: __ZNSt3__13minB8ue170006IlNS_6__lessIvvEEEERKT_S5_S5_T0_, symObjAddr: 0x8A994, symBinAddr: 0x1000A3E80, symSize: 0x1E8 }
  - { offsetInCU: 0x2B972, offset: 0x56A34, size: 0x8, addend: 0x0, symName: __ZNSt3__1neB8ue170006ERKNS_20__map_const_iteratorINS_21__tree_const_iteratorINS_12__value_typeINS_12basic_stringIcNS_11char_traitsIcEENS_9allocatorIcEEEES8_EEPNS_11__tree_nodeIS9_PvEElEEEESH_, symObjAddr: 0x8B770, symBinAddr: 0x1000A4C5C, symSize: 0x30 }
  - { offsetInCU: 0x2B9AF, offset: 0x56A71, size: 0x8, addend: 0x0, symName: __ZNSt3__1neB8ue170006ERKNS_21__tree_const_iteratorINS_12__value_typeINS_12basic_stringIcNS_11char_traitsIcEENS_9allocatorIcEEEES7_EEPNS_11__tree_nodeIS8_PvEElEESF_, symObjAddr: 0x8CA00, symBinAddr: 0x1000A5EEC, symSize: 0x34 }
  - { offsetInCU: 0x2B9EC, offset: 0x56AAE, size: 0x8, addend: 0x0, symName: __ZNSt3__17launderB8ue170006IKNS_4pairIKNS_12basic_stringIcNS_11char_traitsIcEENS_9allocatorIcEEEES7_EEEEPT_SC_, symObjAddr: 0x8CD78, symBinAddr: 0x1000A6264, symSize: 0x24 }
  - { offsetInCU: 0x2BA24, offset: 0x56AE6, size: 0x8, addend: 0x0, symName: __ZNSt3__19__launderB8ue170006IKNS_4pairIKNS_12basic_stringIcNS_11char_traitsIcEENS_9allocatorIcEEEES7_EEEEPT_SC_, symObjAddr: 0x8CD9C, symBinAddr: 0x1000A6288, symSize: 0x14 }
  - { offsetInCU: 0x2BA5A, offset: 0x56B1C, size: 0x8, addend: 0x0, symName: __ZNSt3__1eqB8ue170006ERKNS_21__tree_const_iteratorINS_12__value_typeINS_12basic_stringIcNS_11char_traitsIcEENS_9allocatorIcEEEES7_EEPNS_11__tree_nodeIS8_PvEElEESF_, symObjAddr: 0x8CE20, symBinAddr: 0x1000A630C, symSize: 0xB8 }
  - { offsetInCU: 0x2BAFD, offset: 0x56BBF, size: 0x8, addend: 0x0, symName: __ZNSt3__18distanceB8ue170006INS_11__wrap_iterIPcEEEENS_15iterator_traitsIT_E15difference_typeES5_S5_, symObjAddr: 0x8D9CC, symBinAddr: 0x1000A6EB8, symSize: 0x350 }
  - { offsetInCU: 0x2BB48, offset: 0x56C0A, size: 0x8, addend: 0x0, symName: __ZNSt3__110__distanceB8ue170006INS_11__wrap_iterIPcEEEENS_15iterator_traitsIT_E15difference_typeES5_S5_NS_26random_access_iterator_tagE, symObjAddr: 0x8E284, symBinAddr: 0x1000A7770, symSize: 0x274 }
  - { offsetInCU: 0x2BB9F, offset: 0x56C61, size: 0x8, addend: 0x0, symName: __ZNSt3__1miB8ue170006IPcS1_EEDTmicldtfp_4baseEcldtfp0_4baseEERKNS_11__wrap_iterIT_EERKNS3_IT0_EE, symObjAddr: 0x8E4F8, symBinAddr: 0x1000A79E4, symSize: 0x40 }
  - { offsetInCU: 0x2BBEB, offset: 0x56CAD, size: 0x8, addend: 0x0, symName: __ZNSt3__111lower_boundB8ue170006INS_11__wrap_iterIPKN5boost13re_detail_50020named_subexpressions4nameEEES5_EET_S9_S9_RKT0_, symObjAddr: 0x8E610, symBinAddr: 0x1000A7A60, symSize: 0x3FC }
  - { offsetInCU: 0x2BC4E, offset: 0x56D10, size: 0x8, addend: 0x0, symName: __ZNSt3__1neB8ue170006IPKN5boost13re_detail_50020named_subexpressions4nameEEEbRKNS_11__wrap_iterIT_EESB_, symObjAddr: 0x8EEE0, symBinAddr: 0x1000A8330, symSize: 0x34 }
  - { offsetInCU: 0x2BC91, offset: 0x56D53, size: 0x8, addend: 0x0, symName: __ZNSt3__111lower_boundB8ue170006INS_11__wrap_iterIPKN5boost13re_detail_50020named_subexpressions4nameEEES5_NS_6__lessIvvEEEET_SB_SB_RKT0_T1_, symObjAddr: 0x8F1F4, symBinAddr: 0x1000A8644, symSize: 0x450 }
  - { offsetInCU: 0x2BD23, offset: 0x56DE5, size: 0x8, addend: 0x0, symName: __ZNSt3__113__lower_boundB8ue170006INS_17_ClassicAlgPolicyENS_11__wrap_iterIPKN5boost13re_detail_50020named_subexpressions4nameEEES9_S6_NS_10__identityENS_6__lessIvvEEEET0_SD_T1_RKT2_RT4_RT3_, symObjAddr: 0x8F644, symBinAddr: 0x1000A8A94, symSize: 0x4CC }
  - { offsetInCU: 0x2BE07, offset: 0x56EC9, size: 0x8, addend: 0x0, symName: __ZNSt3__18__invokeB8ue170006IRNS_6__lessIvvEEJRKN5boost13re_detail_50020named_subexpressions4nameES9_EEEDTclclsr3stdE7declvalIT_EEspclsr3stdE7declvalIT0_EEEEOSA_DpOSB_, symObjAddr: 0x8FE8C, symBinAddr: 0x1000A92DC, symSize: 0x38 }
  - { offsetInCU: 0x2BE6C, offset: 0x56F2E, size: 0x8, addend: 0x0, symName: __ZNSt3__18__invokeB8ue170006IRNS_10__identityEJRKN5boost13re_detail_50020named_subexpressions4nameEEEEDTclclsr3stdE7declvalIT_EEspclsr3stdE7declvalIT0_EEEEOS9_DpOSA_, symObjAddr: 0x8FEC4, symBinAddr: 0x1000A9314, symSize: 0x2C }
  - { offsetInCU: 0x2BEBD, offset: 0x56F7F, size: 0x8, addend: 0x0, symName: __ZNSt3__18distanceB8ue170006INS_11__wrap_iterIPKN5boost13re_detail_50020named_subexpressions4nameEEEEENS_15iterator_traitsIT_E15difference_typeESA_SA_, symObjAddr: 0x8FF58, symBinAddr: 0x1000A93A8, symSize: 0x350 }
  - { offsetInCU: 0x2BF08, offset: 0x56FCA, size: 0x8, addend: 0x0, symName: __ZNSt3__110__distanceB8ue170006INS_11__wrap_iterIPKN5boost13re_detail_50020named_subexpressions4nameEEEEENS_15iterator_traitsIT_E15difference_typeESA_SA_NS_26random_access_iterator_tagE, symObjAddr: 0x902A8, symBinAddr: 0x1000A96F8, symSize: 0x274 }
  - { offsetInCU: 0x2BF5F, offset: 0x57021, size: 0x8, addend: 0x0, symName: __ZNSt3__1miB8ue170006IPKN5boost13re_detail_50020named_subexpressions4nameES6_EEDTmicldtfp_4baseEcldtfp0_4baseEERKNS_11__wrap_iterIT_EERKNS8_IT0_EE, symObjAddr: 0x9051C, symBinAddr: 0x1000A996C, symSize: 0x48 }
  - { offsetInCU: 0x2BFAB, offset: 0x5706D, size: 0x8, addend: 0x0, symName: __ZNSt3__19__advanceB8ue170006INS_11__wrap_iterIPKN5boost13re_detail_50020named_subexpressions4nameEEEEEvRT_NS_15iterator_traitsIS9_E15difference_typeENS_26random_access_iterator_tagE, symObjAddr: 0x905FC, symBinAddr: 0x1000A9A4C, symSize: 0x2C }
  - { offsetInCU: 0x2BFF5, offset: 0x570B7, size: 0x8, addend: 0x0, symName: __ZNSt3__1eqB8ue170006IPKN5boost13re_detail_50020named_subexpressions4nameEEEbRKNS_11__wrap_iterIT_EESB_, symObjAddr: 0x9098C, symBinAddr: 0x1000A9DDC, symSize: 0x48 }
  - { offsetInCU: 0x2C039, offset: 0x570FB, size: 0x8, addend: 0x0, symName: __ZNSt3__112__to_addressB8ue170006IKN5boost13re_detail_50020named_subexpressions4nameEEEPT_S7_, symObjAddr: 0x909D4, symBinAddr: 0x1000A9E24, symSize: 0x14 }
  - { offsetInCU: 0x2C06E, offset: 0x57130, size: 0x8, addend: 0x0, symName: __ZNSt3__112__to_addressB8ue170006IlEEPT_S2_, symObjAddr: 0x914D8, symBinAddr: 0x1000AA928, symSize: 0x14 }
  - { offsetInCU: 0x2C0C7, offset: 0x57189, size: 0x8, addend: 0x0, symName: __ZNSt3__112construct_atB8ue170006IlJRKlEPlEEPT_S5_DpOT0_, symObjAddr: 0x91A48, symBinAddr: 0x1000AAE98, symSize: 0xB8 }
  - { offsetInCU: 0x2C137, offset: 0x571F9, size: 0x8, addend: 0x0, symName: __ZNSt3__119__allocate_at_leastB8ue170006INS_9allocatorIlEEEENS_19__allocation_resultINS_16allocator_traitsIT_E7pointerEEERS5_m, symObjAddr: 0x930D8, symBinAddr: 0x1000AC528, symSize: 0x28C }
  - { offsetInCU: 0x2C17C, offset: 0x5723E, size: 0x8, addend: 0x0, symName: __ZNSt3__142__uninitialized_allocator_move_if_noexceptB8ue170006INS_9allocatorIlEENS_16reverse_iteratorIPlEES5_lvEET1_RT_T0_S9_S6_, symObjAddr: 0x93640, symBinAddr: 0x1000ACA90, symSize: 0x4A8 }
  - { offsetInCU: 0x2C207, offset: 0x572C9, size: 0x8, addend: 0x0, symName: __ZNSt3__14swapB8ue170006IPlEENS_9enable_ifIXaasr21is_move_constructibleIT_EE5valuesr18is_move_assignableIS3_EE5valueEvE4typeERS3_S6_, symObjAddr: 0x93B80, symBinAddr: 0x1000ACFD0, symSize: 0x134 }
  - { offsetInCU: 0x2C258, offset: 0x5731A, size: 0x8, addend: 0x0, symName: __ZNSt3__14moveB8ue170006INS_16reverse_iteratorIPlEES3_EET0_T_S5_S4_, symObjAddr: 0x93D74, symBinAddr: 0x1000AD1C4, symSize: 0x4B0 }
  - { offsetInCU: 0x2C2BF, offset: 0x57381, size: 0x8, addend: 0x0, symName: __ZNSt3__16__moveB8ue170006INS_17_ClassicAlgPolicyENS_16reverse_iteratorIPlEES4_S4_EENS_4pairIT0_T2_EES6_T1_S7_, symObjAddr: 0x94224, symBinAddr: 0x1000AD674, symSize: 0x424 }
  - { offsetInCU: 0x2C337, offset: 0x573F9, size: 0x8, addend: 0x0, symName: __ZNSt3__123__dispatch_copy_or_moveB8ue170006INS_17_ClassicAlgPolicyENS_11__move_loopIS1_EENS_14__move_trivialENS_16reverse_iteratorIPlEES7_S7_EENS_4pairIT2_T4_EES9_T3_SA_, symObjAddr: 0x94648, symBinAddr: 0x1000ADA98, symSize: 0x424 }
  - { offsetInCU: 0x2C3C1, offset: 0x57483, size: 0x8, addend: 0x0, symName: __ZNSt3__121__unwrap_and_dispatchB8ue170006INS_10__overloadINS_11__move_loopINS_17_ClassicAlgPolicyEEENS_14__move_trivialEEENS_16reverse_iteratorIPlEES9_S9_Li0EEENS_4pairIT0_T2_EESB_T1_SC_, symObjAddr: 0x94A6C, symBinAddr: 0x1000ADEBC, symSize: 0x880 }
  - { offsetInCU: 0x2C465, offset: 0x57527, size: 0x8, addend: 0x0, symName: __ZNSt3__114__unwrap_rangeB8ue170006INS_16reverse_iteratorIPlEES3_EEDaT_T0_, symObjAddr: 0x952EC, symBinAddr: 0x1000AE73C, symSize: 0x35C }
  - { offsetInCU: 0x2C58D, offset: 0x5764F, size: 0x8, addend: 0x0, symName: __ZNSt3__113__unwrap_iterB8ue170006INS_16reverse_iteratorIPlEENS_18__unwrap_iter_implIS3_Lb0EEELi0EEEDTclsrT0_8__unwrapclsr3stdE7declvalIT_EEEES7_, symObjAddr: 0x959F0, symBinAddr: 0x1000AEE40, symSize: 0x2EC }
  - { offsetInCU: 0x2C5D5, offset: 0x57697, size: 0x8, addend: 0x0, symName: __ZNSt3__19make_pairB8ue170006INS_16reverse_iteratorIPlEES3_EENS_4pairINS_18__unwrap_ref_decayIT_E4typeENS5_IT0_E4typeEEEOS6_OS9_, symObjAddr: 0x95CDC, symBinAddr: 0x1000AF12C, symSize: 0x38 }
  - { offsetInCU: 0x2C624, offset: 0x576E6, size: 0x8, addend: 0x0, symName: __ZNSt3__114__rewrap_rangeB8ue170006INS_16reverse_iteratorIPlEES3_S3_EET0_S4_T1_, symObjAddr: 0x95D14, symBinAddr: 0x1000AF164, symSize: 0x3D4 }
  - { offsetInCU: 0x2C681, offset: 0x57743, size: 0x8, addend: 0x0, symName: __ZNSt3__113__rewrap_iterB8ue170006INS_16reverse_iteratorIPlEES3_NS_18__unwrap_iter_implIS3_Lb0EEEEET_S6_T0_, symObjAddr: 0x960E8, symBinAddr: 0x1000AF538, symSize: 0x3E8 }
  - { offsetInCU: 0x2C72E, offset: 0x577F0, size: 0x8, addend: 0x0, symName: __ZNSt3__1neB8ue170006IPlS1_EEbRKNS_16reverse_iteratorIT_EERKNS2_IT0_EE, symObjAddr: 0x969A8, symBinAddr: 0x1000AFDF8, symSize: 0x48 }
  - { offsetInCU: 0x2C7E6, offset: 0x578A8, size: 0x8, addend: 0x0, symName: __ZNSt3__110destroy_atB8ue170006IlLi0EEEvPT_, symObjAddr: 0x97898, symBinAddr: 0x1000B0CE8, symSize: 0x24 }
  - { offsetInCU: 0x2C81E, offset: 0x578E0, size: 0x8, addend: 0x0, symName: __ZNSt3__112__destroy_atB8ue170006IlLi0EEEvPT_, symObjAddr: 0x978BC, symBinAddr: 0x1000B0D0C, symSize: 0x10 }
  - { offsetInCU: 0x2C87A, offset: 0x5793C, size: 0x8, addend: 0x0, symName: __ZNSt3__112construct_atB8ue170006IN5boost13re_detail_5007digraphIcEEJRKS4_EPS4_EEPT_S9_DpOT0_, symObjAddr: 0x9E160, symBinAddr: 0x1000B75B0, symSize: 0x3C }
  - { offsetInCU: 0x2C8EA, offset: 0x579AC, size: 0x8, addend: 0x0, symName: __ZNSt3__119__allocate_at_leastB8ue170006INS_9allocatorIN5boost13re_detail_5007digraphIcEEEEEENS_19__allocation_resultINS_16allocator_traitsIT_E7pointerEEERS9_m, symObjAddr: 0x9F73C, symBinAddr: 0x1000B8B8C, symSize: 0x28C }
  - { offsetInCU: 0x2C92F, offset: 0x579F1, size: 0x8, addend: 0x0, symName: __ZNSt3__142__uninitialized_allocator_move_if_noexceptB8ue170006INS_9allocatorIN5boost13re_detail_5007digraphIcEEEENS_16reverse_iteratorIPS5_EES9_S9_EET2_RT_T0_T1_SA_, symObjAddr: 0x9FBD8, symBinAddr: 0x1000B9028, symSize: 0x544 }
  - { offsetInCU: 0x2C9E4, offset: 0x57AA6, size: 0x8, addend: 0x0, symName: __ZNSt3__14swapB8ue170006IPN5boost13re_detail_5007digraphIcEEEENS_9enable_ifIXaasr21is_move_constructibleIT_EE5valuesr18is_move_assignableIS7_EE5valueEvE4typeERS7_SA_, symObjAddr: 0xA01B4, symBinAddr: 0x1000B9604, symSize: 0x134 }
  - { offsetInCU: 0x2CA35, offset: 0x57AF7, size: 0x8, addend: 0x0, symName: __ZNSt3__122__make_exception_guardB8ue170006INS_29_AllocatorDestroyRangeReverseINS_9allocatorIN5boost13re_detail_5007digraphIcEEEENS_16reverse_iteratorIPS6_EEEEEENS_28__exception_guard_exceptionsIT_EESD_, symObjAddr: 0xA03A8, symBinAddr: 0x1000B97F8, symSize: 0x1F8 }
  - { offsetInCU: 0x2CA6C, offset: 0x57B2E, size: 0x8, addend: 0x0, symName: __ZNSt3__1neB8ue170006IPN5boost13re_detail_5007digraphIcEES5_EEbRKNS_16reverse_iteratorIT_EERKNS6_IT0_EE, symObjAddr: 0xA05E4, symBinAddr: 0x1000B9A34, symSize: 0x48 }
  - { offsetInCU: 0x2CAB8, offset: 0x57B7A, size: 0x8, addend: 0x0, symName: __ZNSt3__112__to_addressB8ue170006INS_16reverse_iteratorIPN5boost13re_detail_5007digraphIcEEEEvEEu7__decayIDTclsr19__to_address_helperIT_EE6__callclsr3stdE7declvalIRKS8_EEEEESA_, symObjAddr: 0xA062C, symBinAddr: 0x1000B9A7C, symSize: 0x24 }
  - { offsetInCU: 0x2CB18, offset: 0x57BDA, size: 0x8, addend: 0x0, symName: __ZNSt3__14prevB8ue170006IPN5boost13re_detail_5007digraphIcEEEENS_9enable_ifIXsr29__has_input_iterator_categoryIT_EE5valueES7_E4typeES7_NS_15iterator_traitsIS7_E15difference_typeE, symObjAddr: 0xA0A74, symBinAddr: 0x1000B9EC4, symSize: 0x240 }
  - { offsetInCU: 0x2CB60, offset: 0x57C22, size: 0x8, addend: 0x0, symName: __ZNSt3__19__advanceB8ue170006IPN5boost13re_detail_5007digraphIcEEEEvRT_NS_15iterator_traitsIS6_E15difference_typeENS_26random_access_iterator_tagE, symObjAddr: 0xA0CEC, symBinAddr: 0x1000BA13C, symSize: 0x78 }
  - { offsetInCU: 0x2CBAB, offset: 0x57C6D, size: 0x8, addend: 0x0, symName: __ZNSt3__119__allocator_destroyB8ue170006INS_9allocatorIN5boost13re_detail_5007digraphIcEEEENS_16reverse_iteratorINS7_IPS5_EEEESA_EEvRT_T0_T1_, symObjAddr: 0xA11C8, symBinAddr: 0x1000BA618, symSize: 0x70 }
  - { offsetInCU: 0x2CC0F, offset: 0x57CD1, size: 0x8, addend: 0x0, symName: __ZNSt3__1neB8ue170006INS_16reverse_iteratorIPN5boost13re_detail_5007digraphIcEEEES7_EEbRKNS1_IT_EERKNS1_IT0_EE, symObjAddr: 0xA1480, symBinAddr: 0x1000BA8D0, symSize: 0x2CC }
  - { offsetInCU: 0x2CC5D, offset: 0x57D1F, size: 0x8, addend: 0x0, symName: __ZNSt3__112__to_addressB8ue170006INS_16reverse_iteratorINS1_IPN5boost13re_detail_5007digraphIcEEEEEEvEEu7__decayIDTclsr19__to_address_helperIT_EE6__callclsr3stdE7declvalIRKS9_EEEEESB_, symObjAddr: 0xA174C, symBinAddr: 0x1000BAB9C, symSize: 0x24 }
  - { offsetInCU: 0x2CCBD, offset: 0x57D7F, size: 0x8, addend: 0x0, symName: __ZNSt3__14prevB8ue170006INS_16reverse_iteratorIPN5boost13re_detail_5007digraphIcEEEEEENS_9enable_ifIXsr29__has_input_iterator_categoryIT_EE5valueES9_E4typeES9_NS_15iterator_traitsIS9_E15difference_typeE, symObjAddr: 0xA1C90, symBinAddr: 0x1000BB0E0, symSize: 0x294 }
  - { offsetInCU: 0x2CD05, offset: 0x57DC7, size: 0x8, addend: 0x0, symName: __ZNSt3__19__advanceB8ue170006INS_16reverse_iteratorIPN5boost13re_detail_5007digraphIcEEEEEEvRT_NS_15iterator_traitsIS8_E15difference_typeENS_26random_access_iterator_tagE, symObjAddr: 0xA1F5C, symBinAddr: 0x1000BB3AC, symSize: 0x2C }
  - { offsetInCU: 0x2CD4F, offset: 0x57E11, size: 0x8, addend: 0x0, symName: __ZNSt3__1ssB8ue170006IccccEENS_26common_comparison_categoryIJDTclsr3stdE17__synth_three_wayclsr3stdE7declvalIRT_EEclsr3stdE7declvalIRT1_EEEEDTclsr3stdE17__synth_three_wayclsr3stdE7declvalIRT0_EEclsr3stdE7declvalIRT2_EEEEEE4typeERKNS_4pairIS2_S7_EERKNSE_IS4_S9_EE, symObjAddr: 0xA410C, symBinAddr: 0x1000BD55C, symSize: 0x3C8 }
  - { offsetInCU: 0x2CDD3, offset: 0x57E95, size: 0x8, addend: 0x0, symName: __ZNSt3__117__synth_three_wayB8ue170006IccEEDaRKT_RKT0_, symObjAddr: 0xA44D4, symBinAddr: 0x1000BD924, symSize: 0x36C }
  - { offsetInCU: 0x2CE21, offset: 0x57EE3, size: 0x8, addend: 0x0, symName: __ZNSt3__1eqB8ue170006ENS_15strong_orderingENS_20_CmpUnspecifiedParamE, symObjAddr: 0xA4840, symBinAddr: 0x1000BDC90, symSize: 0x274 }
  - { offsetInCU: 0x2CE7B, offset: 0x57F3D, size: 0x8, addend: 0x0, symName: __ZNSt3__13maxB8ue170006IlEERKT_S3_S3_, symObjAddr: 0xA9360, symBinAddr: 0x1000C27B0, symSize: 0x2C }
  - { offsetInCU: 0x2CEBE, offset: 0x57F80, size: 0x8, addend: 0x0, symName: __ZNSt3__13maxB8ue170006IlNS_6__lessIvvEEEERKT_S5_S5_T0_, symObjAddr: 0xA944C, symBinAddr: 0x1000C289C, symSize: 0x1E8 }
  - { offsetInCU: 0x2CF1F, offset: 0x57FE1, size: 0x8, addend: 0x0, symName: __ZNSt3__112__to_addressB8ue170006INS_4pairIbPN5boost13re_detail_50014re_syntax_baseEEEEEPT_S8_, symObjAddr: 0xB31F8, symBinAddr: 0x1000CC648, symSize: 0x14 }
  - { offsetInCU: 0x2CF78, offset: 0x5803A, size: 0x8, addend: 0x0, symName: __ZNSt3__112construct_atB8ue170006INS_4pairIbPN5boost13re_detail_50014re_syntax_baseEEEJS6_EPS6_EEPT_S9_DpOT0_, symObjAddr: 0xB3768, symBinAddr: 0x1000CCBB8, symSize: 0x40 }
  - { offsetInCU: 0x2CFE8, offset: 0x580AA, size: 0x8, addend: 0x0, symName: __ZNSt3__119__allocate_at_leastB8ue170006INS_9allocatorINS_4pairIbPN5boost13re_detail_50014re_syntax_baseEEEEEEENS_19__allocation_resultINS_16allocator_traitsIT_E7pointerEEERSB_m, symObjAddr: 0xB4D80, symBinAddr: 0x1000CE1D0, symSize: 0x28C }
  - { offsetInCU: 0x2D02D, offset: 0x580EF, size: 0x8, addend: 0x0, symName: __ZNSt3__142__uninitialized_allocator_move_if_noexceptB8ue170006INS_9allocatorINS_4pairIbPN5boost13re_detail_50014re_syntax_baseEEEEENS_16reverse_iteratorIPS7_EESB_SB_EET2_RT_T0_T1_SC_, symObjAddr: 0xB52E8, symBinAddr: 0x1000CE738, symSize: 0x544 }
  - { offsetInCU: 0x2D0E2, offset: 0x581A4, size: 0x8, addend: 0x0, symName: __ZNSt3__14swapB8ue170006IPNS_4pairIbPN5boost13re_detail_50014re_syntax_baseEEEEENS_9enable_ifIXaasr21is_move_constructibleIT_EE5valuesr18is_move_assignableIS9_EE5valueEvE4typeERS9_SC_, symObjAddr: 0xB58C4, symBinAddr: 0x1000CED14, symSize: 0x134 }
  - { offsetInCU: 0x2D133, offset: 0x581F5, size: 0x8, addend: 0x0, symName: __ZNSt3__122__make_exception_guardB8ue170006INS_29_AllocatorDestroyRangeReverseINS_9allocatorINS_4pairIbPN5boost13re_detail_50014re_syntax_baseEEEEENS_16reverse_iteratorIPS8_EEEEEENS_28__exception_guard_exceptionsIT_EESF_, symObjAddr: 0xB5AB8, symBinAddr: 0x1000CEF08, symSize: 0x1F8 }
  - { offsetInCU: 0x2D16A, offset: 0x5822C, size: 0x8, addend: 0x0, symName: __ZNSt3__1neB8ue170006IPNS_4pairIbPN5boost13re_detail_50014re_syntax_baseEEES7_EEbRKNS_16reverse_iteratorIT_EERKNS8_IT0_EE, symObjAddr: 0xB5CF4, symBinAddr: 0x1000CF144, symSize: 0x48 }
  - { offsetInCU: 0x2D1B6, offset: 0x58278, size: 0x8, addend: 0x0, symName: __ZNSt3__112__to_addressB8ue170006INS_16reverse_iteratorIPNS_4pairIbPN5boost13re_detail_50014re_syntax_baseEEEEEvEEu7__decayIDTclsr19__to_address_helperIT_EE6__callclsr3stdE7declvalIRKSA_EEEEESC_, symObjAddr: 0xB5D3C, symBinAddr: 0x1000CF18C, symSize: 0x24 }
  - { offsetInCU: 0x2D216, offset: 0x582D8, size: 0x8, addend: 0x0, symName: __ZNSt3__14prevB8ue170006IPNS_4pairIbPN5boost13re_detail_50014re_syntax_baseEEEEENS_9enable_ifIXsr29__has_input_iterator_categoryIT_EE5valueES9_E4typeES9_NS_15iterator_traitsIS9_E15difference_typeE, symObjAddr: 0xB6184, symBinAddr: 0x1000CF5D4, symSize: 0x240 }
  - { offsetInCU: 0x2D25E, offset: 0x58320, size: 0x8, addend: 0x0, symName: __ZNSt3__19__advanceB8ue170006IPNS_4pairIbPN5boost13re_detail_50014re_syntax_baseEEEEEvRT_NS_15iterator_traitsIS8_E15difference_typeENS_26random_access_iterator_tagE, symObjAddr: 0xB63FC, symBinAddr: 0x1000CF84C, symSize: 0x78 }
  - { offsetInCU: 0x2D2A9, offset: 0x5836B, size: 0x8, addend: 0x0, symName: __ZNSt3__119__allocator_destroyB8ue170006INS_9allocatorINS_4pairIbPN5boost13re_detail_50014re_syntax_baseEEEEENS_16reverse_iteratorINS9_IPS7_EEEESC_EEvRT_T0_T1_, symObjAddr: 0xB68D8, symBinAddr: 0x1000CFD28, symSize: 0x70 }
  - { offsetInCU: 0x2D30D, offset: 0x583CF, size: 0x8, addend: 0x0, symName: __ZNSt3__1neB8ue170006INS_16reverse_iteratorIPNS_4pairIbPN5boost13re_detail_50014re_syntax_baseEEEEES9_EEbRKNS1_IT_EERKNS1_IT0_EE, symObjAddr: 0xB6B90, symBinAddr: 0x1000CFFE0, symSize: 0x2CC }
  - { offsetInCU: 0x2D35B, offset: 0x5841D, size: 0x8, addend: 0x0, symName: __ZNSt3__112__to_addressB8ue170006INS_16reverse_iteratorINS1_IPNS_4pairIbPN5boost13re_detail_50014re_syntax_baseEEEEEEEvEEu7__decayIDTclsr19__to_address_helperIT_EE6__callclsr3stdE7declvalIRKSB_EEEEESD_, symObjAddr: 0xB6E84, symBinAddr: 0x1000D02D4, symSize: 0x24 }
  - { offsetInCU: 0x2D391, offset: 0x58453, size: 0x8, addend: 0x0, symName: __ZNSt3__110destroy_atB8ue170006INS_4pairIbPN5boost13re_detail_50014re_syntax_baseEEELi0EEEvPT_, symObjAddr: 0xB70E4, symBinAddr: 0x1000D0534, symSize: 0x24 }
  - { offsetInCU: 0x2D3C9, offset: 0x5848B, size: 0x8, addend: 0x0, symName: __ZNSt3__112__destroy_atB8ue170006INS_4pairIbPN5boost13re_detail_50014re_syntax_baseEEELi0EEEvPT_, symObjAddr: 0xB7108, symBinAddr: 0x1000D0558, symSize: 0x10 }
  - { offsetInCU: 0x2D42A, offset: 0x584EC, size: 0x8, addend: 0x0, symName: __ZNSt3__14prevB8ue170006INS_16reverse_iteratorIPNS_4pairIbPN5boost13re_detail_50014re_syntax_baseEEEEEEENS_9enable_ifIXsr29__has_input_iterator_categoryIT_EE5valueESB_E4typeESB_NS_15iterator_traitsISB_E15difference_typeE, symObjAddr: 0xB73FC, symBinAddr: 0x1000D084C, symSize: 0x294 }
  - { offsetInCU: 0x2D472, offset: 0x58534, size: 0x8, addend: 0x0, symName: __ZNSt3__19__advanceB8ue170006INS_16reverse_iteratorIPNS_4pairIbPN5boost13re_detail_50014re_syntax_baseEEEEEEEvRT_NS_15iterator_traitsISA_E15difference_typeENS_26random_access_iterator_tagE, symObjAddr: 0xB76C8, symBinAddr: 0x1000D0B18, symSize: 0x2C }
  - { offsetInCU: 0x2D4BC, offset: 0x5857E, size: 0x8, addend: 0x0, symName: __ZNSt3__16fill_nB8ue170006IPhmhEET_S2_T0_RKT1_, symObjAddr: 0xB8704, symBinAddr: 0x1000D1B54, symSize: 0x44 }
  - { offsetInCU: 0x2D51F, offset: 0x585E1, size: 0x8, addend: 0x0, symName: __ZNSt3__18__fill_nB8ue170006IPhmhEET_S2_T0_RKT1_, symObjAddr: 0xB94B8, symBinAddr: 0x1000D2908, symSize: 0x138 }
  - { offsetInCU: 0x2D5A7, offset: 0x58669, size: 0x8, addend: 0x0, symName: __ZNSt3__112construct_atB8ue170006IhJRKhEPhEEPT_S5_DpOT0_, symObjAddr: 0xB9930, symBinAddr: 0x1000D2D80, symSize: 0x100 }
  - { offsetInCU: 0x2D617, offset: 0x586D9, size: 0x8, addend: 0x0, symName: __ZNSt3__119__allocate_at_leastB8ue170006INS_9allocatorIhEEEENS_19__allocation_resultINS_16allocator_traitsIT_E7pointerEEERS5_m, symObjAddr: 0xBA128, symBinAddr: 0x1000D3578, symSize: 0x28C }
  - { offsetInCU: 0x2D65C, offset: 0x5871E, size: 0x8, addend: 0x0, symName: __ZNSt3__122__make_exception_guardB8ue170006INS_6vectorIhNS_9allocatorIhEEE16__destroy_vectorEEENS_28__exception_guard_exceptionsIT_EES7_, symObjAddr: 0xBCC50, symBinAddr: 0x1000D60A0, symSize: 0x278 }
  - { offsetInCU: 0x2D695, offset: 0x58757, size: 0x8, addend: 0x0, symName: __ZNSt3__130__uninitialized_allocator_copyB8ue170006INS_9allocatorIhEEPhS3_S3_EET2_RT_T0_T1_S4_, symObjAddr: 0xBD79C, symBinAddr: 0x1000D6BEC, symSize: 0x2DC }
  - { offsetInCU: 0x2D73B, offset: 0x587FD, size: 0x8, addend: 0x0, symName: __ZNSt3__114__unwrap_rangeB8ue170006IPhS1_EEDaT_T0_, symObjAddr: 0xBDA78, symBinAddr: 0x1000D6EC8, symSize: 0x224 }
  - { offsetInCU: 0x2D789, offset: 0x5884B, size: 0x8, addend: 0x0, symName: __ZNSt3__135__uninitialized_allocator_copy_implB8ue170006INS_9allocatorIhEEhhhLPv0EEEPT2_RT_PT0_S9_S5_, symObjAddr: 0xBDC9C, symBinAddr: 0x1000D70EC, symSize: 0x38 }
  - { offsetInCU: 0x2D80B, offset: 0x588CD, size: 0x8, addend: 0x0, symName: __ZNSt3__113__unwrap_iterB8ue170006IPhNS_18__unwrap_iter_implIS1_Lb1EEELi0EEEDTclsrT0_8__unwrapclsr3stdE7declvalIT_EEEES5_, symObjAddr: 0xBDCD4, symBinAddr: 0x1000D7124, symSize: 0x24 }
  - { offsetInCU: 0x2D84F, offset: 0x58911, size: 0x8, addend: 0x0, symName: __ZNSt3__113__rewrap_iterB8ue170006IPhS1_NS_18__unwrap_iter_implIS1_Lb1EEEEET_S4_T0_, symObjAddr: 0xBDCF8, symBinAddr: 0x1000D7148, symSize: 0x48 }
  - { offsetInCU: 0x2D9EF, offset: 0x58AB1, size: 0x8, addend: 0x0, symName: __ZNSt3__14copyB8ue170006IPhS1_EET0_T_S3_S2_, symObjAddr: 0xBE1C0, symBinAddr: 0x1000D7610, symSize: 0x26C }
  - { offsetInCU: 0x2DA4C, offset: 0x58B0E, size: 0x8, addend: 0x0, symName: __ZNSt3__16__copyB8ue170006INS_17_ClassicAlgPolicyEPhS2_S2_EENS_4pairIT0_T2_EES4_T1_S5_, symObjAddr: 0xBE42C, symBinAddr: 0x1000D787C, symSize: 0x22C }
  - { offsetInCU: 0x2DABB, offset: 0x58B7D, size: 0x8, addend: 0x0, symName: __ZNSt3__123__dispatch_copy_or_moveB8ue170006INS_17_ClassicAlgPolicyENS_11__copy_loopIS1_EENS_14__copy_trivialEPhS5_S5_EENS_4pairIT2_T4_EES7_T3_S8_, symObjAddr: 0xBE658, symBinAddr: 0x1000D7AA8, symSize: 0x22C }
  - { offsetInCU: 0x2DB3C, offset: 0x58BFE, size: 0x8, addend: 0x0, symName: __ZNSt3__121__unwrap_and_dispatchB8ue170006INS_10__overloadINS_11__copy_loopINS_17_ClassicAlgPolicyEEENS_14__copy_trivialEEEPhS7_S7_Li0EEENS_4pairIT0_T2_EES9_T1_SA_, symObjAddr: 0xBE884, symBinAddr: 0x1000D7CD4, symSize: 0x5A4 }
  - { offsetInCU: 0x2DBD5, offset: 0x58C97, size: 0x8, addend: 0x0, symName: __ZNSt3__19make_pairB8ue170006IPhS1_EENS_4pairINS_18__unwrap_ref_decayIT_E4typeENS3_IT0_E4typeEEEOS4_OS7_, symObjAddr: 0xBF058, symBinAddr: 0x1000D84A8, symSize: 0x20C }
  - { offsetInCU: 0x2DC26, offset: 0x58CE8, size: 0x8, addend: 0x0, symName: __ZNSt3__114__rewrap_rangeB8ue170006IPhS1_S1_EET0_S2_T1_, symObjAddr: 0xBF264, symBinAddr: 0x1000D86B4, symSize: 0x2C }
  - { offsetInCU: 0x2DC7B, offset: 0x58D3D, size: 0x8, addend: 0x0, symName: __ZNSt3__119__copy_trivial_implB8ue170006IhhEENS_4pairIPT_PT0_EES3_S3_S5_, symObjAddr: 0xBF290, symBinAddr: 0x1000D86E0, symSize: 0x3AC }
  - { offsetInCU: 0x2DCEA, offset: 0x58DAC, size: 0x8, addend: 0x0, symName: __ZNSt3__119__constexpr_memmoveB8ue170006IhhLi0EEEPT_S2_PT0_NS_15__element_countE, symObjAddr: 0xBF63C, symBinAddr: 0x1000D8A8C, symSize: 0x64 }
  - { offsetInCU: 0x2DD58, offset: 0x58E1A, size: 0x8, addend: 0x0, symName: __ZNSt3__19make_pairB8ue170006IRPhS1_EENS_4pairINS_18__unwrap_ref_decayIT_E4typeENS4_IT0_E4typeEEEOS5_OS8_, symObjAddr: 0xBF6A0, symBinAddr: 0x1000D8AF0, symSize: 0x20C }
  - { offsetInCU: 0x2DDFC, offset: 0x58EBE, size: 0x8, addend: 0x0, symName: __ZNSt3__14swapB8ue170006IPhEENS_9enable_ifIXaasr21is_move_constructibleIT_EE5valuesr18is_move_assignableIS3_EE5valueEvE4typeERS3_S6_, symObjAddr: 0xBFE7C, symBinAddr: 0x1000D92CC, symSize: 0x134 }
  - { offsetInCU: 0x2DE4E, offset: 0x58F10, size: 0x8, addend: 0x0, symName: __ZNSt3__116__swap_allocatorB8ue170006INS_9allocatorIhEEEEvRT_S4_NS_17integral_constantIbLb0EEE, symObjAddr: 0xBFFB0, symBinAddr: 0x1000D9400, symSize: 0x14 }
  - { offsetInCU: 0x2DE92, offset: 0x58F54, size: 0x8, addend: 0x0, symName: __ZNSt3__14swapB8ue170006IPN5boost13re_detail_50026basic_regex_implementationIcNS1_12regex_traitsIcNS1_16cpp_regex_traitsIcEEEEEEEENS_9enable_ifIXaasr21is_move_constructibleIT_EE5valuesr18is_move_assignableISB_EE5valueEvE4typeERSB_SE_, symObjAddr: 0xC0580, symBinAddr: 0x1000D99D0, symSize: 0x134 }
  - { offsetInCU: 0x2DEE3, offset: 0x58FA5, size: 0x8, addend: 0x0, symName: __ZNSt3__14swapB8ue170006IPNS_19__shared_weak_countEEENS_9enable_ifIXaasr21is_move_constructibleIT_EE5valuesr18is_move_assignableIS4_EE5valueEvE4typeERS4_S7_, symObjAddr: 0xC06B4, symBinAddr: 0x1000D9B04, symSize: 0x134 }
  - { offsetInCU: 0x2DF35, offset: 0x58FF7, size: 0x8, addend: 0x0, symName: __ZNSt3__112__to_addressB8ue170006IN5boost9sub_matchINS_11__wrap_iterIPKcEEEEEEPT_S9_, symObjAddr: 0xC2458, symBinAddr: 0x1000DB8A8, symSize: 0x14 }
  - { offsetInCU: 0x2DF69, offset: 0x5902B, size: 0x8, addend: 0x0, symName: __ZNSt3__110destroy_atB8ue170006IN5boost9sub_matchINS_11__wrap_iterIPKcEEEELi0EEEvPT_, symObjAddr: 0xC246C, symBinAddr: 0x1000DB8BC, symSize: 0x24 }
  - { offsetInCU: 0x2DFA1, offset: 0x59063, size: 0x8, addend: 0x0, symName: __ZNSt3__112__destroy_atB8ue170006IN5boost9sub_matchINS_11__wrap_iterIPKcEEEELi0EEEvPT_, symObjAddr: 0xC2490, symBinAddr: 0x1000DB8E0, symSize: 0x10 }
  - { offsetInCU: 0x2DFD8, offset: 0x5909A, size: 0x8, addend: 0x0, symName: __ZNSt3__18distanceB8ue170006INS_11__wrap_iterIPKcEEEENS_15iterator_traitsIT_E15difference_typeES6_S6_, symObjAddr: 0xC62A0, symBinAddr: 0x1000DF6F0, symSize: 0x350 }
  - { offsetInCU: 0x2E023, offset: 0x590E5, size: 0x8, addend: 0x0, symName: __ZNSt3__110__distanceB8ue170006INS_11__wrap_iterIPKcEEEENS_15iterator_traitsIT_E15difference_typeES6_S6_NS_26random_access_iterator_tagE, symObjAddr: 0xC664C, symBinAddr: 0x1000DFA9C, symSize: 0x274 }
  - { offsetInCU: 0x2E07A, offset: 0x5913C, size: 0x8, addend: 0x0, symName: __ZNSt3__1miB8ue170006IPKcS2_EEDTmicldtfp_4baseEcldtfp0_4baseEERKNS_11__wrap_iterIT_EERKNS4_IT0_EE, symObjAddr: 0xC68C0, symBinAddr: 0x1000DFD10, symSize: 0x40 }
  - { offsetInCU: 0x2E0C7, offset: 0x59189, size: 0x8, addend: 0x0, symName: __ZNSt3__112__to_addressB8ue170006IN5boost13re_detail_50014recursion_infoINS1_13match_resultsINS_11__wrap_iterIPKcEENS_9allocatorINS1_9sub_matchIS8_EEEEEEEEEEPT_SG_, symObjAddr: 0xC73C4, symBinAddr: 0x1000E0814, symSize: 0x14 }
  - { offsetInCU: 0x2E0FB, offset: 0x591BD, size: 0x8, addend: 0x0, symName: __ZNSt3__110destroy_atB8ue170006IN5boost13re_detail_50014recursion_infoINS1_13match_resultsINS_11__wrap_iterIPKcEENS_9allocatorINS1_9sub_matchIS8_EEEEEEEELi0EEEvPT_, symObjAddr: 0xC73D8, symBinAddr: 0x1000E0828, symSize: 0x24 }
  - { offsetInCU: 0x2E132, offset: 0x591F4, size: 0x8, addend: 0x0, symName: __ZNSt3__112__destroy_atB8ue170006IN5boost13re_detail_50014recursion_infoINS1_13match_resultsINS_11__wrap_iterIPKcEENS_9allocatorINS1_9sub_matchIS8_EEEEEEEELi0EEEvPT_, symObjAddr: 0xC73FC, symBinAddr: 0x1000E084C, symSize: 0x24 }
  - { offsetInCU: 0x2E169, offset: 0x5922B, size: 0x8, addend: 0x0, symName: __ZNSt3__1eqB8ue170006IPKcEEbRKNS_11__wrap_iterIT_EES7_, symObjAddr: 0xC9E08, symBinAddr: 0x1000E3258, symSize: 0x48 }
  - { offsetInCU: 0x2E1AC, offset: 0x5926E, size: 0x8, addend: 0x0, symName: __ZNSt3__136__cxx_atomic_compare_exchange_strongB8ue170006IPvEEbPNS_22__cxx_atomic_base_implIT_EEPS3_S3_NS_12memory_orderES7_, symObjAddr: 0xCAECC, symBinAddr: 0x1000E431C, symSize: 0x1484 }
  - { offsetInCU: 0x2E225, offset: 0x592E7, size: 0x8, addend: 0x0, symName: __ZNSt3__118__to_failure_orderB8ue170006ENS_12memory_orderE, symObjAddr: 0xCC364, symBinAddr: 0x1000E57B4, symSize: 0x6C }
  - { offsetInCU: 0x2E252, offset: 0x59314, size: 0x8, addend: 0x0, symName: __ZNSt3__14fillB8ue170006INS_11__wrap_iterIPN5boost9sub_matchINS1_IPKcEEEEEES7_EEvT_SA_RKT0_, symObjAddr: 0xCD24C, symBinAddr: 0x1000E669C, symSize: 0x360 }
  - { offsetInCU: 0x2E2B1, offset: 0x59373, size: 0x8, addend: 0x0, symName: __ZNSt3__1miB8ue170006IPKN5boost9sub_matchINS_11__wrap_iterIPKcEEEEPS7_EEDTmicldtfp_4baseEcldtfp0_4baseEERKNS3_IT_EERKNS3_IT0_EE, symObjAddr: 0xCE174, symBinAddr: 0x1000E75C4, symSize: 0x48 }
  - { offsetInCU: 0x2E2FD, offset: 0x593BF, size: 0x8, addend: 0x0, symName: __ZNSt3__1neB8ue170006IPKN5boost9sub_matchINS_11__wrap_iterIPKcEEEEEEbRKNS3_IT_EESD_, symObjAddr: 0xCE1BC, symBinAddr: 0x1000E760C, symSize: 0x34 }
  - { offsetInCU: 0x2E340, offset: 0x59402, size: 0x8, addend: 0x0, symName: __ZNSt3__14moveB8ue170006IPN5boost9sub_matchINS_11__wrap_iterIPKcEEEES8_EET0_T_SA_S9_, symObjAddr: 0xCE23C, symBinAddr: 0x1000E768C, symSize: 0x26C }
  - { offsetInCU: 0x2E39D, offset: 0x5945F, size: 0x8, addend: 0x0, symName: __ZNSt3__1miB8ue170006IPKN5boost9sub_matchINS_11__wrap_iterIPKcEEEES9_EEDTmicldtfp_4baseEcldtfp0_4baseEERKNS3_IT_EERKNS3_IT0_EE, symObjAddr: 0xCE4A8, symBinAddr: 0x1000E78F8, symSize: 0x48 }
  - { offsetInCU: 0x2E3E9, offset: 0x594AB, size: 0x8, addend: 0x0, symName: __ZNSt3__1eqB8ue170006IPKN5boost9sub_matchINS_11__wrap_iterIPKcEEEEEEbRKNS3_IT_EESD_, symObjAddr: 0xCE7AC, symBinAddr: 0x1000E7BFC, symSize: 0x48 }
  - { offsetInCU: 0x2E42C, offset: 0x594EE, size: 0x8, addend: 0x0, symName: __ZNSt3__16__moveB8ue170006INS_17_ClassicAlgPolicyEPN5boost9sub_matchINS_11__wrap_iterIPKcEEEES9_S9_EENS_4pairIT0_T2_EESB_T1_SC_, symObjAddr: 0xCE8D8, symBinAddr: 0x1000E7D28, symSize: 0x22C }
  - { offsetInCU: 0x2E49B, offset: 0x5955D, size: 0x8, addend: 0x0, symName: __ZNSt3__123__dispatch_copy_or_moveB8ue170006INS_17_ClassicAlgPolicyENS_11__move_loopIS1_EENS_14__move_trivialEPN5boost9sub_matchINS_11__wrap_iterIPKcEEEESC_SC_EENS_4pairIT2_T4_EESE_T3_SF_, symObjAddr: 0xCEB04, symBinAddr: 0x1000E7F54, symSize: 0x22C }
  - { offsetInCU: 0x2E51C, offset: 0x595DE, size: 0x8, addend: 0x0, symName: __ZNSt3__121__unwrap_and_dispatchB8ue170006INS_10__overloadINS_11__move_loopINS_17_ClassicAlgPolicyEEENS_14__move_trivialEEEPN5boost9sub_matchINS_11__wrap_iterIPKcEEEESE_SE_Li0EEENS_4pairIT0_T2_EESG_T1_SH_, symObjAddr: 0xCED30, symBinAddr: 0x1000E8180, symSize: 0x5A4 }
  - { offsetInCU: 0x2E5B5, offset: 0x59677, size: 0x8, addend: 0x0, symName: __ZNSt3__114__unwrap_rangeB8ue170006IPN5boost9sub_matchINS_11__wrap_iterIPKcEEEES8_EEDaT_T0_, symObjAddr: 0xCF2D4, symBinAddr: 0x1000E8724, symSize: 0x224 }
  - { offsetInCU: 0x2E6D7, offset: 0x59799, size: 0x8, addend: 0x0, symName: __ZNSt3__113__unwrap_iterB8ue170006IPN5boost9sub_matchINS_11__wrap_iterIPKcEEEENS_18__unwrap_iter_implIS8_Lb1EEELi0EEEDTclsrT0_8__unwrapclsr3stdE7declvalIT_EEEESC_, symObjAddr: 0xCF920, symBinAddr: 0x1000E8D70, symSize: 0x24 }
  - { offsetInCU: 0x2E71B, offset: 0x597DD, size: 0x8, addend: 0x0, symName: __ZNSt3__19make_pairB8ue170006IPN5boost9sub_matchINS_11__wrap_iterIPKcEEEES8_EENS_4pairINS_18__unwrap_ref_decayIT_E4typeENSA_IT0_E4typeEEEOSB_OSE_, symObjAddr: 0xCF944, symBinAddr: 0x1000E8D94, symSize: 0x20C }
  - { offsetInCU: 0x2E76C, offset: 0x5982E, size: 0x8, addend: 0x0, symName: __ZNSt3__114__rewrap_rangeB8ue170006IPN5boost9sub_matchINS_11__wrap_iterIPKcEEEES8_S8_EET0_S9_T1_, symObjAddr: 0xCFB50, symBinAddr: 0x1000E8FA0, symSize: 0x2C }
  - { offsetInCU: 0x2E7C1, offset: 0x59883, size: 0x8, addend: 0x0, symName: __ZNSt3__113__rewrap_iterB8ue170006IPN5boost9sub_matchINS_11__wrap_iterIPKcEEEES8_NS_18__unwrap_iter_implIS8_Lb1EEEEET_SB_T0_, symObjAddr: 0xCFB7C, symBinAddr: 0x1000E8FCC, symSize: 0x48 }
  - { offsetInCU: 0x2E8DD, offset: 0x5999F, size: 0x8, addend: 0x0, symName: __ZNSt3__16__fillB8ue170006INS_11__wrap_iterIPN5boost9sub_matchINS1_IPKcEEEEEES7_EEvT_SA_RKT0_NS_26random_access_iterator_tagE, symObjAddr: 0xD0438, symBinAddr: 0x1000E9888, symSize: 0x360 }
  - { offsetInCU: 0x2E948, offset: 0x59A0A, size: 0x8, addend: 0x0, symName: __ZNSt3__16fill_nB8ue170006INS_11__wrap_iterIPN5boost9sub_matchINS1_IPKcEEEEEElS7_EET_SA_T0_RKT1_, symObjAddr: 0xD0798, symBinAddr: 0x1000E9BE8, symSize: 0x340 }
  - { offsetInCU: 0x2E9B1, offset: 0x59A73, size: 0x8, addend: 0x0, symName: __ZNSt3__1miB8ue170006IPN5boost9sub_matchINS_11__wrap_iterIPKcEEEES8_EEDTmicldtfp_4baseEcldtfp0_4baseEERKNS3_IT_EERKNS3_IT0_EE, symObjAddr: 0xD0AD8, symBinAddr: 0x1000E9F28, symSize: 0x48 }
  - { offsetInCU: 0x2E9FD, offset: 0x59ABF, size: 0x8, addend: 0x0, symName: __ZNSt3__18__fill_nB8ue170006INS_11__wrap_iterIPN5boost9sub_matchINS1_IPKcEEEEEElS7_EET_SA_T0_RKT1_, symObjAddr: 0xD0B20, symBinAddr: 0x1000E9F70, symSize: 0x2D8 }
  - { offsetInCU: 0x2EA99, offset: 0x59B5B, size: 0x8, addend: 0x0, symName: __ZNSt3__16fill_nB8ue170006IPN5boost9sub_matchINS_11__wrap_iterIPKcEEEEmS7_EET_S9_T0_RKT1_, symObjAddr: 0xD1748, symBinAddr: 0x1000EAB98, symSize: 0x44 }
  - { offsetInCU: 0x2EB21, offset: 0x59BE3, size: 0x8, addend: 0x0, symName: __ZNSt3__112construct_atB8ue170006IN5boost9sub_matchINS_11__wrap_iterIPKcEEEEJRKS7_EPS7_EEPT_SC_DpOT0_, symObjAddr: 0xD299C, symBinAddr: 0x1000EBDEC, symSize: 0x44 }
  - { offsetInCU: 0x2EB91, offset: 0x59C53, size: 0x8, addend: 0x0, symName: __ZNSt3__113move_backwardB8ue170006IPN5boost9sub_matchINS_11__wrap_iterIPKcEEEES8_EET0_T_SA_S9_, symObjAddr: 0xD2DFC, symBinAddr: 0x1000EC24C, symSize: 0x26C }
  - { offsetInCU: 0x2EBEE, offset: 0x59CB0, size: 0x8, addend: 0x0, symName: __ZNSt3__112construct_atB8ue170006IN5boost9sub_matchINS_11__wrap_iterIPKcEEEEJS7_EPS7_EEPT_SA_DpOT0_, symObjAddr: 0xD3068, symBinAddr: 0x1000EC4B8, symSize: 0x44 }
  - { offsetInCU: 0x2EC5E, offset: 0x59D20, size: 0x8, addend: 0x0, symName: __ZNSt3__115__move_backwardB8ue170006INS_17_ClassicAlgPolicyEPN5boost9sub_matchINS_11__wrap_iterIPKcEEEES9_S9_EENS_4pairIT0_T2_EESB_T1_SC_, symObjAddr: 0xD30AC, symBinAddr: 0x1000EC4FC, symSize: 0x22C }
  - { offsetInCU: 0x2ECCD, offset: 0x59D8F, size: 0x8, addend: 0x0, symName: __ZNSt3__123__dispatch_copy_or_moveB8ue170006INS_17_ClassicAlgPolicyENS_20__move_backward_loopIS1_EENS_23__move_backward_trivialEPN5boost9sub_matchINS_11__wrap_iterIPKcEEEESC_SC_EENS_4pairIT2_T4_EESE_T3_SF_, symObjAddr: 0xD32D8, symBinAddr: 0x1000EC728, symSize: 0x22C }
  - { offsetInCU: 0x2ED4E, offset: 0x59E10, size: 0x8, addend: 0x0, symName: __ZNSt3__121__unwrap_and_dispatchB8ue170006INS_10__overloadINS_20__move_backward_loopINS_17_ClassicAlgPolicyEEENS_23__move_backward_trivialEEEPN5boost9sub_matchINS_11__wrap_iterIPKcEEEESE_SE_Li0EEENS_4pairIT0_T2_EESG_T1_SH_, symObjAddr: 0xD3504, symBinAddr: 0x1000EC954, symSize: 0x5A4 }
  - { offsetInCU: 0x2EE39, offset: 0x59EFB, size: 0x8, addend: 0x0, symName: __ZNSt3__18__fill_nB8ue170006IPN5boost9sub_matchINS_11__wrap_iterIPKcEEEEmS7_EET_S9_T0_RKT1_, symObjAddr: 0xD3FB0, symBinAddr: 0x1000ED400, symSize: 0x6C }
  - { offsetInCU: 0x2EE9C, offset: 0x59F5E, size: 0x8, addend: 0x0, symName: __ZNSt3__119__allocate_at_leastB8ue170006INS_9allocatorIN5boost9sub_matchINS_11__wrap_iterIPKcEEEEEEEENS_19__allocation_resultINS_16allocator_traitsIT_E7pointerEEERSC_m, symObjAddr: 0xD492C, symBinAddr: 0x1000EDD7C, symSize: 0x28C }
  - { offsetInCU: 0x2EEE1, offset: 0x59FA3, size: 0x8, addend: 0x0, symName: __ZNSt3__142__uninitialized_allocator_move_if_noexceptB8ue170006INS_9allocatorIN5boost9sub_matchINS_11__wrap_iterIPKcEEEEEENS_16reverse_iteratorIPS8_EESC_SC_EET2_RT_T0_T1_SD_, symObjAddr: 0xD50A0, symBinAddr: 0x1000EE4F0, symSize: 0x544 }
  - { offsetInCU: 0x2EF96, offset: 0x5A058, size: 0x8, addend: 0x0, symName: __ZNSt3__142__uninitialized_allocator_move_if_noexceptB8ue170006INS_9allocatorIN5boost9sub_matchINS_11__wrap_iterIPKcEEEEEEPS8_SA_SA_EET2_RT_T0_T1_SB_, symObjAddr: 0xD567C, symBinAddr: 0x1000EEACC, symSize: 0x520 }
  - { offsetInCU: 0x2F042, offset: 0x5A104, size: 0x8, addend: 0x0, symName: __ZNSt3__14swapB8ue170006IPN5boost9sub_matchINS_11__wrap_iterIPKcEEEEEENS_9enable_ifIXaasr21is_move_constructibleIT_EE5valuesr18is_move_assignableISA_EE5valueEvE4typeERSA_SD_, symObjAddr: 0xD5B9C, symBinAddr: 0x1000EEFEC, symSize: 0x134 }
  - { offsetInCU: 0x2F093, offset: 0x5A155, size: 0x8, addend: 0x0, symName: __ZNSt3__122__make_exception_guardB8ue170006INS_29_AllocatorDestroyRangeReverseINS_9allocatorIN5boost9sub_matchINS_11__wrap_iterIPKcEEEEEENS_16reverse_iteratorIPS9_EEEEEENS_28__exception_guard_exceptionsIT_EESG_, symObjAddr: 0xD5DAC, symBinAddr: 0x1000EF1FC, symSize: 0x1F8 }
  - { offsetInCU: 0x2F0CA, offset: 0x5A18C, size: 0x8, addend: 0x0, symName: __ZNSt3__1neB8ue170006IPN5boost9sub_matchINS_11__wrap_iterIPKcEEEES8_EEbRKNS_16reverse_iteratorIT_EERKNS9_IT0_EE, symObjAddr: 0xD5FE8, symBinAddr: 0x1000EF438, symSize: 0x48 }
  - { offsetInCU: 0x2F116, offset: 0x5A1D8, size: 0x8, addend: 0x0, symName: __ZNSt3__112__to_addressB8ue170006INS_16reverse_iteratorIPN5boost9sub_matchINS_11__wrap_iterIPKcEEEEEEvEEu7__decayIDTclsr19__to_address_helperIT_EE6__callclsr3stdE7declvalIRKSB_EEEEESD_, symObjAddr: 0xD6030, symBinAddr: 0x1000EF480, symSize: 0x24 }
  - { offsetInCU: 0x2F176, offset: 0x5A238, size: 0x8, addend: 0x0, symName: __ZNSt3__14prevB8ue170006IPN5boost9sub_matchINS_11__wrap_iterIPKcEEEEEENS_9enable_ifIXsr29__has_input_iterator_categoryIT_EE5valueESA_E4typeESA_NS_15iterator_traitsISA_E15difference_typeE, symObjAddr: 0xD6478, symBinAddr: 0x1000EF8C8, symSize: 0x240 }
  - { offsetInCU: 0x2F1BE, offset: 0x5A280, size: 0x8, addend: 0x0, symName: __ZNSt3__19__advanceB8ue170006IPN5boost9sub_matchINS_11__wrap_iterIPKcEEEEEEvRT_NS_15iterator_traitsIS9_E15difference_typeENS_26random_access_iterator_tagE, symObjAddr: 0xD66F0, symBinAddr: 0x1000EFB40, symSize: 0x80 }
  - { offsetInCU: 0x2F209, offset: 0x5A2CB, size: 0x8, addend: 0x0, symName: __ZNSt3__119__allocator_destroyB8ue170006INS_9allocatorIN5boost9sub_matchINS_11__wrap_iterIPKcEEEEEENS_16reverse_iteratorINSA_IPS8_EEEESD_EEvRT_T0_T1_, symObjAddr: 0xD6BD4, symBinAddr: 0x1000F0024, symSize: 0x70 }
  - { offsetInCU: 0x2F26D, offset: 0x5A32F, size: 0x8, addend: 0x0, symName: __ZNSt3__1neB8ue170006INS_16reverse_iteratorIPN5boost9sub_matchINS_11__wrap_iterIPKcEEEEEESA_EEbRKNS1_IT_EERKNS1_IT0_EE, symObjAddr: 0xD6E8C, symBinAddr: 0x1000F02DC, symSize: 0x2CC }
  - { offsetInCU: 0x2F2BB, offset: 0x5A37D, size: 0x8, addend: 0x0, symName: __ZNSt3__112__to_addressB8ue170006INS_16reverse_iteratorINS1_IPN5boost9sub_matchINS_11__wrap_iterIPKcEEEEEEEEvEEu7__decayIDTclsr19__to_address_helperIT_EE6__callclsr3stdE7declvalIRKSC_EEEEESE_, symObjAddr: 0xD7158, symBinAddr: 0x1000F05A8, symSize: 0x24 }
  - { offsetInCU: 0x2F31B, offset: 0x5A3DD, size: 0x8, addend: 0x0, symName: __ZNSt3__14prevB8ue170006INS_16reverse_iteratorIPN5boost9sub_matchINS_11__wrap_iterIPKcEEEEEEEENS_9enable_ifIXsr29__has_input_iterator_categoryIT_EE5valueESC_E4typeESC_NS_15iterator_traitsISC_E15difference_typeE, symObjAddr: 0xD769C, symBinAddr: 0x1000F0AEC, symSize: 0x294 }
  - { offsetInCU: 0x2F363, offset: 0x5A425, size: 0x8, addend: 0x0, symName: __ZNSt3__19__advanceB8ue170006INS_16reverse_iteratorIPN5boost9sub_matchINS_11__wrap_iterIPKcEEEEEEEEvRT_NS_15iterator_traitsISB_E15difference_typeENS_26random_access_iterator_tagE, symObjAddr: 0xD7968, symBinAddr: 0x1000F0DB8, symSize: 0x2C }
  - { offsetInCU: 0x2F3AD, offset: 0x5A46F, size: 0x8, addend: 0x0, symName: __ZNSt3__122__make_exception_guardB8ue170006INS_29_AllocatorDestroyRangeReverseINS_9allocatorIN5boost9sub_matchINS_11__wrap_iterIPKcEEEEEEPS9_EEEENS_28__exception_guard_exceptionsIT_EESE_, symObjAddr: 0xD7D68, symBinAddr: 0x1000F11B8, symSize: 0x1F8 }
  - { offsetInCU: 0x2F3E5, offset: 0x5A4A7, size: 0x8, addend: 0x0, symName: __ZNSt3__119__allocator_destroyB8ue170006INS_9allocatorIN5boost9sub_matchINS_11__wrap_iterIPKcEEEEEENS_16reverse_iteratorIPS8_EESC_EEvRT_T0_T1_, symObjAddr: 0xD8690, symBinAddr: 0x1000F1AE0, symSize: 0x2B8 }
  - { offsetInCU: 0x2F450, offset: 0x5A512, size: 0x8, addend: 0x0, symName: __ZNSt3__14swapB8ue170006IPN5boost13re_detail_50020named_subexpressionsEEENS_9enable_ifIXaasr21is_move_constructibleIT_EE5valuesr18is_move_assignableIS6_EE5valueEvE4typeERS6_S9_, symObjAddr: 0xD9194, symBinAddr: 0x1000F25E4, symSize: 0x134 }
  - { offsetInCU: 0x2F4A1, offset: 0x5A563, size: 0x8, addend: 0x0, symName: __ZNSt3__18distanceB8ue170006IPN5boost9sub_matchINS_11__wrap_iterIPKcEEEEEENS_15iterator_traitsIT_E15difference_typeESA_SA_, symObjAddr: 0xD9B20, symBinAddr: 0x1000F2F70, symSize: 0x2C }
  - { offsetInCU: 0x2F4E4, offset: 0x5A5A6, size: 0x8, addend: 0x0, symName: __ZNSt3__14nextB8ue170006IPN5boost9sub_matchINS_11__wrap_iterIPKcEEEEEENS_9enable_ifIXsr29__has_input_iterator_categoryIT_EE5valueESA_E4typeESA_NS_15iterator_traitsISA_E15difference_typeE, symObjAddr: 0xD9B4C, symBinAddr: 0x1000F2F9C, symSize: 0x238 }
  - { offsetInCU: 0x2F52C, offset: 0x5A5EE, size: 0x8, addend: 0x0, symName: __ZNSt3__14copyB8ue170006IPN5boost9sub_matchINS_11__wrap_iterIPKcEEEES8_EET0_T_SA_S9_, symObjAddr: 0xD9D84, symBinAddr: 0x1000F31D4, symSize: 0x26C }
  - { offsetInCU: 0x2F589, offset: 0x5A64B, size: 0x8, addend: 0x0, symName: __ZNSt3__16__copyB8ue170006INS_17_ClassicAlgPolicyEPN5boost9sub_matchINS_11__wrap_iterIPKcEEEES9_S9_EENS_4pairIT0_T2_EESB_T1_SC_, symObjAddr: 0xDA370, symBinAddr: 0x1000F37C0, symSize: 0x22C }
  - { offsetInCU: 0x2F5F8, offset: 0x5A6BA, size: 0x8, addend: 0x0, symName: __ZNSt3__130__uninitialized_allocator_copyB8ue170006INS_9allocatorIN5boost9sub_matchINS_11__wrap_iterIPKcEEEEEEPS8_SA_SA_EET2_RT_T0_T1_SB_, symObjAddr: 0xDAB58, symBinAddr: 0x1000F3FA8, symSize: 0x2DC }
  - { offsetInCU: 0x2F69E, offset: 0x5A760, size: 0x8, addend: 0x0, symName: __ZNSt3__135__uninitialized_allocator_copy_implB8ue170006INS_9allocatorIN5boost9sub_matchINS_11__wrap_iterIPKcEEEEEEPS8_SA_SA_EET2_RT_T0_T1_SB_, symObjAddr: 0xDAE34, symBinAddr: 0x1000F4284, symSize: 0x520 }
  - { offsetInCU: 0x2F74A, offset: 0x5A80C, size: 0x8, addend: 0x0, symName: __ZNSt3__112construct_atB8ue170006IN5boost9sub_matchINS_11__wrap_iterIPKcEEEEJRS7_EPS7_EEPT_SB_DpOT0_, symObjAddr: 0xDB384, symBinAddr: 0x1000F47D4, symSize: 0x44 }
  - { offsetInCU: 0x2F7BA, offset: 0x5A87C, size: 0x8, addend: 0x0, symName: __ZNSt3__123__dispatch_copy_or_moveB8ue170006INS_17_ClassicAlgPolicyENS_11__copy_loopIS1_EENS_14__copy_trivialEPN5boost9sub_matchINS_11__wrap_iterIPKcEEEESC_SC_EENS_4pairIT2_T4_EESE_T3_SF_, symObjAddr: 0xDB3C8, symBinAddr: 0x1000F4818, symSize: 0x22C }
  - { offsetInCU: 0x2F83B, offset: 0x5A8FD, size: 0x8, addend: 0x0, symName: __ZNSt3__121__unwrap_and_dispatchB8ue170006INS_10__overloadINS_11__copy_loopINS_17_ClassicAlgPolicyEEENS_14__copy_trivialEEEPN5boost9sub_matchINS_11__wrap_iterIPKcEEEESE_SE_Li0EEENS_4pairIT0_T2_EESG_T1_SH_, symObjAddr: 0xDB5F4, symBinAddr: 0x1000F4A44, symSize: 0x5A4 }
  - { offsetInCU: 0x2F927, offset: 0x5A9E9, size: 0x8, addend: 0x0, symName: __ZNSt3__110__distanceB8ue170006IPN5boost9sub_matchINS_11__wrap_iterIPKcEEEEEENS_15iterator_traitsIT_E15difference_typeESA_SA_NS_26random_access_iterator_tagE, symObjAddr: 0xDC034, symBinAddr: 0x1000F5484, symSize: 0x28 }
  - { offsetInCU: 0x2F974, offset: 0x5AA36, size: 0x8, addend: 0x0, symName: __ZNSt3__1neB8ue170006IPKcEEbRKNS_11__wrap_iterIT_EES7_, symObjAddr: 0xDEE00, symBinAddr: 0x1000F8250, symSize: 0x34 }
  - { offsetInCU: 0x2F9B7, offset: 0x5AA79, size: 0x8, addend: 0x0, symName: __ZNSt3__122__make_exception_guardB8ue170006INS_6vectorIN5boost9sub_matchINS_11__wrap_iterIPKcEEEENS_9allocatorIS8_EEE16__destroy_vectorEEENS_28__exception_guard_exceptionsIT_EESE_, symObjAddr: 0xEFCB0, symBinAddr: 0x100109100, symSize: 0x278 }
  - { offsetInCU: 0x2F9F0, offset: 0x5AAB2, size: 0x8, addend: 0x0, symName: __ZNSt3__111equal_rangeB8ue170006INS_11__wrap_iterIPKN5boost13re_detail_50020named_subexpressions4nameEEES5_EENS_4pairIT_SA_EESA_SA_RKT0_, symObjAddr: 0xF22F4, symBinAddr: 0x10010B744, symSize: 0x3E4 }
  - { offsetInCU: 0x2FA53, offset: 0x5AB15, size: 0x8, addend: 0x0, symName: __ZNSt3__111equal_rangeB8ue170006INS_11__wrap_iterIPKN5boost13re_detail_50020named_subexpressions4nameEEES5_NS_6__lessIvvEEEENS_4pairIT_SC_EESC_SC_RKT0_T1_, symObjAddr: 0xF26D8, symBinAddr: 0x10010BB28, symSize: 0x454 }
  - { offsetInCU: 0x2FAD2, offset: 0x5AB94, size: 0x8, addend: 0x0, symName: __ZNSt3__113__equal_rangeB8ue170006INS_17_ClassicAlgPolicyERNS_6__lessIvvEENS_11__wrap_iterIPKN5boost13re_detail_50020named_subexpressions4nameEEESC_S9_NS_10__identityEEENS_4pairIT1_SF_EESF_T2_RKT3_OT0_OT4_, symObjAddr: 0xF2B2C, symBinAddr: 0x10010BF7C, symSize: 0x9A4 }
  - { offsetInCU: 0x2FBEA, offset: 0x5ACAC, size: 0x8, addend: 0x0, symName: __ZNSt3__113__upper_boundB8ue170006INS_17_ClassicAlgPolicyERNS_6__lessIvvEENS_11__wrap_iterIPKN5boost13re_detail_50020named_subexpressions4nameEEESC_S9_RNS_10__identityEEET1_SF_T2_RKT3_OT0_OT4_, symObjAddr: 0xF3A68, symBinAddr: 0x10010CEB8, symSize: 0x500 }
  - { offsetInCU: 0x2FCCE, offset: 0x5AD90, size: 0x8, addend: 0x0, symName: __ZNSt3__14nextB8ue170006INS_11__wrap_iterIPKN5boost13re_detail_50020named_subexpressions4nameEEEEENS_9enable_ifIXsr29__has_input_iterator_categoryIT_EE5valueESA_E4typeESA_NS_15iterator_traitsISA_E15difference_typeE, symObjAddr: 0xF3FE0, symBinAddr: 0x10010D430, symSize: 0x288 }
  - { offsetInCU: 0x2FD16, offset: 0x5ADD8, size: 0x8, addend: 0x0, symName: __ZNSt3__19__advanceB8ue170006INS_11__wrap_iterIPKcEEEEvRT_NS_15iterator_traitsIS5_E15difference_typeENS_26random_access_iterator_tagE, symObjAddr: 0xF84D8, symBinAddr: 0x100111928, symSize: 0x2C }
  - { offsetInCU: 0x2FD61, offset: 0x5AE23, size: 0x8, addend: 0x0, symName: __ZNSt3__121__convert_to_integralB8ue170006Ei, symObjAddr: 0xF8B00, symBinAddr: 0x100111F50, symSize: 0x14 }
  - { offsetInCU: 0x2FD8C, offset: 0x5AE4E, size: 0x8, addend: 0x0, symName: __ZNSt3__1neB8ue170006INS_11__wrap_iterIPN5boost13re_detail_50014recursion_infoINS2_13match_resultsINS1_IPKcEENS_9allocatorINS2_9sub_matchIS8_EEEEEEEEEESG_EEbRKNS_16reverse_iteratorIT_EERKNSH_IT0_EE, symObjAddr: 0xF9070, symBinAddr: 0x1001124C0, symSize: 0x2B4 }
  - { offsetInCU: 0x2FDDA, offset: 0x5AE9C, size: 0x8, addend: 0x0, symName: __ZNSt3__1neB8ue170006IPN5boost13re_detail_50014recursion_infoINS1_13match_resultsINS_11__wrap_iterIPKcEENS_9allocatorINS1_9sub_matchIS8_EEEEEEEEEEbRKNS5_IT_EESJ_, symObjAddr: 0xFA814, symBinAddr: 0x100113C64, symSize: 0x34 }
  - { offsetInCU: 0x2FE1D, offset: 0x5AEDF, size: 0x8, addend: 0x0, symName: __ZNSt3__1eqB8ue170006IPN5boost13re_detail_50014recursion_infoINS1_13match_resultsINS_11__wrap_iterIPKcEENS_9allocatorINS1_9sub_matchIS8_EEEEEEEEEEbRKNS5_IT_EESJ_, symObjAddr: 0xFAA48, symBinAddr: 0x100113E98, symSize: 0x48 }
  - { offsetInCU: 0x2FE60, offset: 0x5AF22, size: 0x8, addend: 0x0, symName: __ZNSt3__14prevB8ue170006INS_11__wrap_iterIPN5boost13re_detail_50014recursion_infoINS2_13match_resultsINS1_IPKcEENS_9allocatorINS2_9sub_matchIS8_EEEEEEEEEEEENS_9enable_ifIXsr29__has_input_iterator_categoryIT_EE5valueESI_E4typeESI_NS_15iterator_traitsISI_E15difference_typeE, symObjAddr: 0xFAD58, symBinAddr: 0x1001141A8, symSize: 0x290 }
  - { offsetInCU: 0x2FEA8, offset: 0x5AF6A, size: 0x8, addend: 0x0, symName: __ZNSt3__19__advanceB8ue170006INS_11__wrap_iterIPN5boost13re_detail_50014recursion_infoINS2_13match_resultsINS1_IPKcEENS_9allocatorINS2_9sub_matchIS8_EEEEEEEEEEEEvRT_NS_15iterator_traitsISH_E15difference_typeENS_26random_access_iterator_tagE, symObjAddr: 0xFB084, symBinAddr: 0x1001144D4, symSize: 0x2C }
  - { offsetInCU: 0x2FEF2, offset: 0x5AFB4, size: 0x8, addend: 0x0, symName: __ZNSt3__119__allocate_at_leastB8ue170006INS_9allocatorIN5boost13re_detail_50014recursion_infoINS2_13match_resultsINS_11__wrap_iterIPKcEENS1_INS2_9sub_matchIS9_EEEEEEEEEEEENS_19__allocation_resultINS_16allocator_traitsIT_E7pointerEEERSI_m, symObjAddr: 0xFC084, symBinAddr: 0x1001154D4, symSize: 0x28C }
  - { offsetInCU: 0x2FF37, offset: 0x5AFF9, size: 0x8, addend: 0x0, symName: __ZNSt3__142__uninitialized_allocator_move_if_noexceptB8ue170006INS_9allocatorIN5boost13re_detail_50014recursion_infoINS2_13match_resultsINS_11__wrap_iterIPKcEENS1_INS2_9sub_matchIS9_EEEEEEEEEENS_16reverse_iteratorIPSE_EESI_SI_EET2_RT_T0_T1_SJ_, symObjAddr: 0xFC538, symBinAddr: 0x100115988, symSize: 0x544 }
  - { offsetInCU: 0x2FFEC, offset: 0x5B0AE, size: 0x8, addend: 0x0, symName: __ZNSt3__14swapB8ue170006IPN5boost13re_detail_50014recursion_infoINS1_13match_resultsINS_11__wrap_iterIPKcEENS_9allocatorINS1_9sub_matchIS8_EEEEEEEEEENS_9enable_ifIXaasr21is_move_constructibleIT_EE5valuesr18is_move_assignableISH_EE5valueEvE4typeERSH_SK_, symObjAddr: 0xFCB14, symBinAddr: 0x100115F64, symSize: 0x134 }
  - { offsetInCU: 0x3003D, offset: 0x5B0FF, size: 0x8, addend: 0x0, symName: __ZNSt3__122__make_exception_guardB8ue170006INS_29_AllocatorDestroyRangeReverseINS_9allocatorIN5boost13re_detail_50014recursion_infoINS3_13match_resultsINS_11__wrap_iterIPKcEENS2_INS3_9sub_matchISA_EEEEEEEEEENS_16reverse_iteratorIPSF_EEEEEENS_28__exception_guard_exceptionsIT_EESM_, symObjAddr: 0xFCD4C, symBinAddr: 0x10011619C, symSize: 0x1F8 }
  - { offsetInCU: 0x30074, offset: 0x5B136, size: 0x8, addend: 0x0, symName: __ZNSt3__1neB8ue170006IPN5boost13re_detail_50014recursion_infoINS1_13match_resultsINS_11__wrap_iterIPKcEENS_9allocatorINS1_9sub_matchIS8_EEEEEEEESF_EEbRKNS_16reverse_iteratorIT_EERKNSG_IT0_EE, symObjAddr: 0xFCF88, symBinAddr: 0x1001163D8, symSize: 0x48 }
  - { offsetInCU: 0x300C0, offset: 0x5B182, size: 0x8, addend: 0x0, symName: __ZNSt3__112__to_addressB8ue170006INS_16reverse_iteratorIPN5boost13re_detail_50014recursion_infoINS2_13match_resultsINS_11__wrap_iterIPKcEENS_9allocatorINS2_9sub_matchIS9_EEEEEEEEEEvEEu7__decayIDTclsr19__to_address_helperIT_EE6__callclsr3stdE7declvalIRKSI_EEEEESK_, symObjAddr: 0xFD000, symBinAddr: 0x100116450, symSize: 0x24 }
  - { offsetInCU: 0x3011B, offset: 0x5B1DD, size: 0x8, addend: 0x0, symName: __ZNSt3__112construct_atB8ue170006IN5boost13re_detail_50014recursion_infoINS1_13match_resultsINS_11__wrap_iterIPKcEENS_9allocatorINS1_9sub_matchIS8_EEEEEEEEJRKSE_EPSE_EEPT_SJ_DpOT0_, symObjAddr: 0xFD398, symBinAddr: 0x1001167E8, symSize: 0x3C }
  - { offsetInCU: 0x301B5, offset: 0x5B277, size: 0x8, addend: 0x0, symName: __ZNSt3__14prevB8ue170006IPN5boost13re_detail_50014recursion_infoINS1_13match_resultsINS_11__wrap_iterIPKcEENS_9allocatorINS1_9sub_matchIS8_EEEEEEEEEENS_9enable_ifIXsr29__has_input_iterator_categoryIT_EE5valueESH_E4typeESH_NS_15iterator_traitsISH_E15difference_typeE, symObjAddr: 0xFD520, symBinAddr: 0x100116970, symSize: 0x240 }
  - { offsetInCU: 0x301FD, offset: 0x5B2BF, size: 0x8, addend: 0x0, symName: __ZNSt3__19__advanceB8ue170006IPN5boost13re_detail_50014recursion_infoINS1_13match_resultsINS_11__wrap_iterIPKcEENS_9allocatorINS1_9sub_matchIS8_EEEEEEEEEEvRT_NS_15iterator_traitsISG_E15difference_typeENS_26random_access_iterator_tagE, symObjAddr: 0xFD798, symBinAddr: 0x100116BE8, symSize: 0x80 }
  - { offsetInCU: 0x30248, offset: 0x5B30A, size: 0x8, addend: 0x0, symName: __ZNSt3__119__allocator_destroyB8ue170006INS_9allocatorIN5boost13re_detail_50014recursion_infoINS2_13match_resultsINS_11__wrap_iterIPKcEENS1_INS2_9sub_matchIS9_EEEEEEEEEENS_16reverse_iteratorINSG_IPSE_EEEESJ_EEvRT_T0_T1_, symObjAddr: 0xFDC7C, symBinAddr: 0x1001170CC, symSize: 0x70 }
  - { offsetInCU: 0x302AC, offset: 0x5B36E, size: 0x8, addend: 0x0, symName: __ZNSt3__1neB8ue170006INS_16reverse_iteratorIPN5boost13re_detail_50014recursion_infoINS2_13match_resultsINS_11__wrap_iterIPKcEENS_9allocatorINS2_9sub_matchIS9_EEEEEEEEEESH_EEbRKNS1_IT_EERKNS1_IT0_EE, symObjAddr: 0xFDF34, symBinAddr: 0x100117384, symSize: 0x2CC }
  - { offsetInCU: 0x302FA, offset: 0x5B3BC, size: 0x8, addend: 0x0, symName: __ZNSt3__112__to_addressB8ue170006INS_16reverse_iteratorINS1_IPN5boost13re_detail_50014recursion_infoINS2_13match_resultsINS_11__wrap_iterIPKcEENS_9allocatorINS2_9sub_matchIS9_EEEEEEEEEEEEvEEu7__decayIDTclsr19__to_address_helperIT_EE6__callclsr3stdE7declvalIRKSJ_EEEEESL_, symObjAddr: 0xFE200, symBinAddr: 0x100117650, symSize: 0x24 }
  - { offsetInCU: 0x3035A, offset: 0x5B41C, size: 0x8, addend: 0x0, symName: __ZNSt3__14prevB8ue170006INS_16reverse_iteratorIPN5boost13re_detail_50014recursion_infoINS2_13match_resultsINS_11__wrap_iterIPKcEENS_9allocatorINS2_9sub_matchIS9_EEEEEEEEEEEENS_9enable_ifIXsr29__has_input_iterator_categoryIT_EE5valueESJ_E4typeESJ_NS_15iterator_traitsISJ_E15difference_typeE, symObjAddr: 0xFE744, symBinAddr: 0x100117B94, symSize: 0x294 }
  - { offsetInCU: 0x303A2, offset: 0x5B464, size: 0x8, addend: 0x0, symName: __ZNSt3__19__advanceB8ue170006INS_16reverse_iteratorIPN5boost13re_detail_50014recursion_infoINS2_13match_resultsINS_11__wrap_iterIPKcEENS_9allocatorINS2_9sub_matchIS9_EEEEEEEEEEEEvRT_NS_15iterator_traitsISI_E15difference_typeENS_26random_access_iterator_tagE, symObjAddr: 0xFEA10, symBinAddr: 0x100117E60, symSize: 0x2C }
  - { offsetInCU: 0x303EC, offset: 0x5B4AE, size: 0x8, addend: 0x0, symName: __ZNSt3__112construct_atB8ue170006IN5boost13re_detail_50014recursion_infoINS1_13match_resultsINS_11__wrap_iterIPKcEENS_9allocatorINS1_9sub_matchIS8_EEEEEEEEJSE_EPSE_EEPT_SH_DpOT0_, symObjAddr: 0xFFC74, symBinAddr: 0x1001190C4, symSize: 0x3C }
  - { offsetInCU: 0x3045D, offset: 0x5B51F, size: 0x8, addend: 0x0, symName: __ZNSt3__112__to_addressB8ue170006IKN5boost9sub_matchINS_11__wrap_iterIPKcEEEEEEPT_SA_, symObjAddr: 0x1021A8, symBinAddr: 0x10011B5F8, symSize: 0x14 }
  - { offsetInCU: 0x313C7, offset: 0x5C489, size: 0x8, addend: 0x0, symName: __ZN5boost13re_detail_50024get_default_error_stringENS_15regex_constants10error_typeE, symObjAddr: 0x1EA94, symBinAddr: 0x100039284, symSize: 0xB4 }
  - { offsetInCU: 0x313F1, offset: 0x5C4B3, size: 0x8, addend: 0x0, symName: __ZZN5boost13re_detail_50024get_default_error_stringENS_15regex_constants10error_typeEE24s_default_error_messages, symObjAddr: 0x111980, symBinAddr: 0x100189940, symSize: 0x0 }
  - { offsetInCU: 0x31FA1, offset: 0x5D063, size: 0x8, addend: 0x0, symName: __ZN5boost13re_detail_50020get_default_class_idIcEEiPKT_S4_, symObjAddr: 0x3DDC4, symBinAddr: 0x100057B24, symSize: 0x2F4 }
  - { offsetInCU: 0x31FCD, offset: 0x5D08F, size: 0x8, addend: 0x0, symName: __ZZN5boost13re_detail_50020get_default_class_idIcEEiPKT_S4_E4data, symObjAddr: 0x10C71C, symBinAddr: 0x10014AF7C, symSize: 0x0 }
  - { offsetInCU: 0x31FE4, offset: 0x5D0A6, size: 0x8, addend: 0x0, symName: __ZZN5boost13re_detail_50020get_default_class_idIcEEiPKT_S4_E6ranges, symObjAddr: 0x111B98, symBinAddr: 0x100189B58, symSize: 0x0 }
  - { offsetInCU: 0x324B7, offset: 0x5D579, size: 0x8, addend: 0x0, symName: __ZN5boost13re_detail_50027lookup_default_collate_nameERKNSt3__112basic_stringIcNS1_11char_traitsIcEENS1_9allocatorIcEEEE, symObjAddr: 0x8BA80, symBinAddr: 0x1000A4F6C, symSize: 0x324 }
  - { offsetInCU: 0x324E3, offset: 0x5D5A5, size: 0x8, addend: 0x0, symName: __ZZN5boost13re_detail_50027lookup_default_collate_nameERKNSt3__112basic_stringIcNS1_11char_traitsIcEENS1_9allocatorIcEEEEE14def_coll_names, symObjAddr: 0x112458, symBinAddr: 0x10018C108, symSize: 0x0 }
  - { offsetInCU: 0x324FA, offset: 0x5D5BC, size: 0x8, addend: 0x0, symName: __ZZN5boost13re_detail_50027lookup_default_collate_nameERKNSt3__112basic_stringIcNS1_11char_traitsIcEENS1_9allocatorIcEEEEE14def_multi_coll, symObjAddr: 0x112860, symBinAddr: 0x10018C510, symSize: 0x0 }
  - { offsetInCU: 0x32523, offset: 0x5D5E5, size: 0x8, addend: 0x0, symName: __ZN5boost13re_detail_50019get_escape_R_stringIcEENSt3__19enable_ifIXeqstT_Li1EEPKS4_E4typeEv, symObjAddr: 0x79714, symBinAddr: 0x100092E34, symSize: 0xC }
  - { offsetInCU: 0x3254E, offset: 0x5D610, size: 0x8, addend: 0x0, symName: __ZZN5boost13re_detail_50019get_escape_R_stringIcEENSt3__19enable_ifIXeqstT_Li1EEPKS4_E4typeEvE2e2, symObjAddr: 0x10C800, symBinAddr: 0x10014B060, symSize: 0x0 }
  - { offsetInCU: 0x33936, offset: 0x5E9F8, size: 0x8, addend: 0x0, symName: __ZN5boost13re_detail_50023create_cpp_regex_traitsIcEENSt3__110shared_ptrIKNS0_31cpp_regex_traits_implementationIT_EEEERKNS2_6localeE, symObjAddr: 0x10928, symBinAddr: 0x10002B26C, symSize: 0x2BC }
  - { offsetInCU: 0x33981, offset: 0x5EA43, size: 0x8, addend: 0x0, symName: __ZN5boost13re_detail_50019raise_runtime_errorISt13runtime_errorEEvRKT_, symObjAddr: 0x1B39C, symBinAddr: 0x100035BE0, symSize: 0x24 }
  - { offsetInCU: 0x339B2, offset: 0x5EA74, size: 0x8, addend: 0x0, symName: __ZN5boost13re_detail_50018get_default_syntaxEh, symObjAddr: 0x1B4B8, symBinAddr: 0x100035CFC, symSize: 0x308 }
  - { offsetInCU: 0x339F1, offset: 0x5EAB3, size: 0x8, addend: 0x0, symName: __ZN5boost13re_detail_50016find_sort_syntaxINS0_31cpp_regex_traits_implementationIcEEcEEjPKT_PT0_, symObjAddr: 0x1F268, symBinAddr: 0x100039A2C, symSize: 0xA84 }
  - { offsetInCU: 0x33AE2, offset: 0x5EBA4, size: 0x8, addend: 0x0, symName: __ZN5boost13re_detail_50011count_charsINSt3__112basic_stringIcNS2_11char_traitsIcEENS2_9allocatorIcEEEEcEEjRKT_T0_, symObjAddr: 0x28240, symBinAddr: 0x1000427FC, symSize: 0x10C }
  - { offsetInCU: 0x33B59, offset: 0x5EC1B, size: 0x8, addend: 0x0, symName: __ZN5boost13re_detail_50012is_separatorIcEEbT_, symObjAddr: 0x52A88, symBinAddr: 0x10006C7D4, symSize: 0x64 }
  - { offsetInCU: 0x33B8F, offset: 0x5EC51, size: 0x8, addend: 0x0, symName: __ZN5boost13re_detail_50028hash_value_from_capture_nameIPKcEEiT_S4_, symObjAddr: 0x636B4, symBinAddr: 0x10007D3EC, symSize: 0x110 }
  - { offsetInCU: 0x33BE0, offset: 0x5ECA2, size: 0x8, addend: 0x0, symName: __ZN5boost13re_detail_50015bubble_down_oneINSt3__111__wrap_iterIPNS0_20named_subexpressions4nameEEEEEvT_S8_, symObjAddr: 0x663C4, symBinAddr: 0x10007FE20, symSize: 0x4CC }
  - { offsetInCU: 0x33C41, offset: 0x5ED03, size: 0x8, addend: 0x0, symName: __ZN5boost13re_detail_5009char_lessEcc, symObjAddr: 0x89328, symBinAddr: 0x1000A2A48, symSize: 0x28 }
  - { offsetInCU: 0x33C7E, offset: 0x5ED40, size: 0x8, addend: 0x0, symName: __ZN5boost13re_detail_50011is_extendedEc, symObjAddr: 0x89840, symBinAddr: 0x1000A2D2C, symSize: 0x18 }
  - { offsetInCU: 0x33CA6, offset: 0x5ED68, size: 0x8, addend: 0x0, symName: __ZN5boost13re_detail_50011valid_valueIcEEbT_l, symObjAddr: 0x8A764, symBinAddr: 0x1000A3C50, symSize: 0x1E4 }
  - { offsetInCU: 0x33CEF, offset: 0x5EDB1, size: 0x8, addend: 0x0, symName: __ZN5boost13re_detail_50011valid_valueIcEEbT_lRKNSt3__117integral_constantIbLb1EEE, symObjAddr: 0x8AC38, symBinAddr: 0x1000A4124, symSize: 0x2C }
  - { offsetInCU: 0x33D3E, offset: 0x5EE00, size: 0x8, addend: 0x0, symName: __ZN5boost13re_detail_5004umaxEv, symObjAddr: 0x909E8, symBinAddr: 0x1000A9E38, symSize: 0x1D0 }
  - { offsetInCU: 0x33D5B, offset: 0x5EE1D, size: 0x8, addend: 0x0, symName: __ZN5boost13re_detail_5004umaxERKNSt3__117integral_constantIbLb0EEE, symObjAddr: 0x90BB8, symBinAddr: 0x1000AA008, symSize: 0x20 }
  - { offsetInCU: 0x33DCA, offset: 0x5EE8C, size: 0x8, addend: 0x0, symName: __ZN5boost13re_detail_50016re_is_set_memberIPccNS_12regex_traitsIcNS_16cpp_regex_traitsIcEEEEjEET_S7_S7_PKNS0_11re_set_longIT2_EERKNS0_10regex_dataIT0_T1_EEb, symObjAddr: 0xBA7E8, symBinAddr: 0x1000D3C38, symSize: 0x185C }
  - { offsetInCU: 0x33EFE, offset: 0x5EFC0, size: 0x8, addend: 0x0, symName: __ZN5boost13re_detail_50017re_skip_past_nullIcEEPKT_S4_, symObjAddr: 0xBFB60, symBinAddr: 0x1000D8FB0, symSize: 0xC0 }
  - { offsetInCU: 0x33F33, offset: 0x5EFF5, size: 0x8, addend: 0x0, symName: __ZN5boost13re_detail_50014string_compareIcNSt3__111char_traitsIcEENS2_9allocatorIcEEEEiRKNS2_12basic_stringIT_T0_T1_EEPKS8_, symObjAddr: 0xBFC20, symBinAddr: 0x1000D9070, symSize: 0x164 }
  - { offsetInCU: 0x33FC2, offset: 0x5F084, size: 0x8, addend: 0x0, symName: __ZN5boost13re_detail_50014verify_optionsEjNS_15regex_constants12_match_flagsE, symObjAddr: 0xC9330, symBinAddr: 0x1000E2780, symSize: 0x2B8 }
  - { offsetInCU: 0x34018, offset: 0x5F0DA, size: 0x8, addend: 0x0, symName: __ZN5boost13re_detail_50013get_mem_blockEv, symObjAddr: 0xCA5EC, symBinAddr: 0x1000E3A3C, symSize: 0x18 }
  - { offsetInCU: 0x34085, offset: 0x5F147, size: 0x8, addend: 0x0, symName: __ZN5boost13re_detail_50011raise_errorINS_20regex_traits_wrapperINS_12regex_traitsIcNS_16cpp_regex_traitsIcEEEEEEEEvRKT_NS_15regex_constants10error_typeE, symObjAddr: 0xECE00, symBinAddr: 0x100106250, symSize: 0x394 }
  - { offsetInCU: 0x340D8, offset: 0x5F19A, size: 0x8, addend: 0x0, symName: __ZN5boost13re_detail_50016re_is_set_memberINSt3__111__wrap_iterIPKcEEcNS_12regex_traitsIcNS_16cpp_regex_traitsIcEEEEjEET_SB_SB_PKNS0_11re_set_longIT2_EERKNS0_10regex_dataIT0_T1_EEb, symObjAddr: 0xF4310, symBinAddr: 0x10010D760, symSize: 0x196C }
  - { offsetInCU: 0x34213, offset: 0x5F2D5, size: 0x8, addend: 0x0, symName: __ZN5boost13re_detail_5009can_startEcPKhh, symObjAddr: 0xF5C7C, symBinAddr: 0x10010F0CC, symSize: 0xA4 }
  - { offsetInCU: 0x3425C, offset: 0x5F31E, size: 0x8, addend: 0x0, symName: __ZN5boost13re_detail_50012is_combiningIcEEbT_, symObjAddr: 0xF68D0, symBinAddr: 0x10010FD20, symSize: 0x18 }
  - { offsetInCU: 0x3428F, offset: 0x5F351, size: 0x8, addend: 0x0, symName: __ZN5boost13re_detail_50019raise_runtime_errorINS_11regex_errorEEEvRKT_, symObjAddr: 0x100E8C, symBinAddr: 0x10011A2DC, symSize: 0x24 }
  - { offsetInCU: 0x342C1, offset: 0x5F383, size: 0x8, addend: 0x0, symName: __ZN5boost13re_detail_50015inplace_destroyINS0_19saved_matched_parenINSt3__111__wrap_iterIPKcEEEEEEvPT_, symObjAddr: 0x1088D8, symBinAddr: 0x100121D28, symSize: 0x10 }
  - { offsetInCU: 0x342F3, offset: 0x5F3B5, size: 0x8, addend: 0x0, symName: __ZN5boost13re_detail_50015inplace_destroyINS0_11saved_stateEEEvPT_, symObjAddr: 0x1088E8, symBinAddr: 0x100121D38, symSize: 0x10 }
  - { offsetInCU: 0x34325, offset: 0x5F3E7, size: 0x8, addend: 0x0, symName: __ZN5boost13re_detail_50015inplace_destroyINS0_15saved_assertionINSt3__111__wrap_iterIPKcEEEEEEvPT_, symObjAddr: 0x1088F8, symBinAddr: 0x100121D48, symSize: 0x10 }
  - { offsetInCU: 0x34357, offset: 0x5F419, size: 0x8, addend: 0x0, symName: __ZN5boost13re_detail_50015inplace_destroyINS0_14saved_positionINSt3__111__wrap_iterIPKcEEEEEEvPT_, symObjAddr: 0x108908, symBinAddr: 0x100121D58, symSize: 0x10 }
  - { offsetInCU: 0x34388, offset: 0x5F44A, size: 0x8, addend: 0x0, symName: __ZN5boost13re_detail_50015inplace_destroyINS0_14saved_repeaterINSt3__111__wrap_iterIPKcEEEEEEvPT_, symObjAddr: 0x108918, symBinAddr: 0x100121D68, symSize: 0x24 }
  - { offsetInCU: 0x343BA, offset: 0x5F47C, size: 0x8, addend: 0x0, symName: __ZN5boost13re_detail_50015inplace_destroyINS0_17saved_extra_blockEEEvPT_, symObjAddr: 0x108998, symBinAddr: 0x100121DE8, symSize: 0x10 }
  - { offsetInCU: 0x343EB, offset: 0x5F4AD, size: 0x8, addend: 0x0, symName: __ZN5boost13re_detail_50013put_mem_blockEPv, symObjAddr: 0x1089A8, symBinAddr: 0x100121DF8, symSize: 0x28 }
  - { offsetInCU: 0x34414, offset: 0x5F4D6, size: 0x8, addend: 0x0, symName: __ZN5boost13re_detail_50015inplace_destroyINS0_19saved_single_repeatINSt3__111__wrap_iterIPKcEEEEEEvPT_, symObjAddr: 0x108D84, symBinAddr: 0x1001221D4, symSize: 0x10 }
  - { offsetInCU: 0x34445, offset: 0x5F507, size: 0x8, addend: 0x0, symName: __ZN5boost13re_detail_50015inplace_destroyINS0_15saved_recursionINS_13match_resultsINSt3__111__wrap_iterIPKcEENS4_9allocatorINS_9sub_matchIS8_EEEEEEEEEEvPT_, symObjAddr: 0x108D94, symBinAddr: 0x1001221E4, symSize: 0x24 }
  - { offsetInCU: 0x34477, offset: 0x5F539, size: 0x8, addend: 0x0, symName: __ZN5boost13re_detail_50015inplace_destroyINS0_17saved_change_caseEEEvPT_, symObjAddr: 0x108E20, symBinAddr: 0x100122270, symSize: 0x10 }
  - { offsetInCU: 0x34699, offset: 0x5F75B, size: 0x8, addend: 0x0, symName: __ZN5boost15regex_constantsorENS0_12_match_flagsES1_, symObjAddr: 0xC13C8, symBinAddr: 0x1000DA818, symSize: 0x20 }
  - { offsetInCU: 0x346D3, offset: 0x5F795, size: 0x8, addend: 0x0, symName: __ZN5boost15regex_constantsanENS0_12_match_flagsES1_, symObjAddr: 0xC5368, symBinAddr: 0x1000DE7B8, symSize: 0x20 }
  - { offsetInCU: 0x3470C, offset: 0x5F7CE, size: 0x8, addend: 0x0, symName: __ZN5boost15regex_constantsoRERNS0_12_match_flagsES1_, symObjAddr: 0xC5388, symBinAddr: 0x1000DE7D8, symSize: 0x108 }
  - { offsetInCU: 0x34746, offset: 0x5F808, size: 0x8, addend: 0x0, symName: __ZN5boost15regex_constantsaNERNS0_12_match_flagsES1_, symObjAddr: 0xC5658, symBinAddr: 0x1000DEAA8, symSize: 0x108 }
  - { offsetInCU: 0x35C59, offset: 0x60D1B, size: 0x8, addend: 0x0, symName: __ZN5boost16exception_detail20copy_boost_exceptionEPNS_9exceptionEPKS1_, symObjAddr: 0x1C76C, symBinAddr: 0x100036F80, symSize: 0x6C4 }
  - { offsetInCU: 0x362D0, offset: 0x61392, size: 0x8, addend: 0x0, symName: __ZN5boost11regex_matchINSt3__111char_traitsIcEENS1_9allocatorIcEEcNS_12regex_traitsIcNS_16cpp_regex_traitsIcEEEEEEbRKNS1_12basic_stringIT1_T_T0_EERKNS_11basic_regexISB_T2_EENS_15regex_constants12_match_flagsE, symObjAddr: 0x2E48, symBinAddr: 0x100023D7C, symSize: 0x4D0 }
  - { offsetInCU: 0x36352, offset: 0x61414, size: 0x8, addend: 0x0, symName: __ZN5boost15throw_exceptionISt13runtime_errorEEvRKT_, symObjAddr: 0x1BAD0, symBinAddr: 0x1000362E4, symSize: 0x70 }
  - { offsetInCU: 0x36384, offset: 0x61446, size: 0x8, addend: 0x0, symName: __ZN5boost36throw_exception_assert_compatibilityERKSt9exception, symObjAddr: 0x1BB40, symBinAddr: 0x100036354, symSize: 0x10 }
  - { offsetInCU: 0x363AA, offset: 0x6146C, size: 0x8, addend: 0x0, symName: __ZN5boost15throw_exceptionINS_11regex_errorEEEvRKT_, symObjAddr: 0xA97A8, symBinAddr: 0x1000C2BF8, symSize: 0x70 }
  - { offsetInCU: 0x363DB, offset: 0x6149D, size: 0x8, addend: 0x0, symName: __ZN5boost11regex_matchINSt3__111__wrap_iterIPKcEENS1_9allocatorINS_9sub_matchIS5_EEEEcNS_12regex_traitsIcNS_16cpp_regex_traitsIcEEEEEEbT_SE_RNS_13match_resultsISE_T0_EERKNS_11basic_regexIT1_T2_EENS_15regex_constants12_match_flagsE, symObjAddr: 0xC093C, symBinAddr: 0x1000D9D8C, symSize: 0x5D8 }
  - { offsetInCU: 0x36481, offset: 0x61543, size: 0x8, addend: 0x0, symName: __ZN5boost15throw_exceptionISt16invalid_argumentEEvRKT_, symObjAddr: 0xC465C, symBinAddr: 0x1000DDAAC, symSize: 0x70 }
  - { offsetInCU: 0x364B3, offset: 0x61575, size: 0x8, addend: 0x0, symName: __ZN5boost15throw_exceptionISt11logic_errorEEvRKT_, symObjAddr: 0xDC05C, symBinAddr: 0x1000F54AC, symSize: 0x70 }
  - { offsetInCU: 0x373D9, offset: 0x6249B, size: 0x8, addend: 0x0, symName: __ZN5boost12object_cacheINS_13re_detail_50021cpp_regex_traits_baseIcEENS1_31cpp_regex_traits_implementationIcEEE3getERKS3_m, symObjAddr: 0x10C18, symBinAddr: 0x10002B55C, symSize: 0x308 }
  - { offsetInCU: 0x373FA, offset: 0x624BC, size: 0x8, addend: 0x0, symName: __ZZN5boost12object_cacheINS_13re_detail_50021cpp_regex_traits_baseIcEENS1_31cpp_regex_traits_implementationIcEEE3getERKS3_mE3mut, symObjAddr: 0x112350, symBinAddr: 0x10018C000, symSize: 0x0 }
  - { offsetInCU: 0x37435, offset: 0x624F7, size: 0x8, addend: 0x0, symName: __ZN5boost12object_cacheINS_13re_detail_50021cpp_regex_traits_baseIcEENS1_31cpp_regex_traits_implementationIcEEE6do_getERKS3_m, symObjAddr: 0x11468, symBinAddr: 0x10002BDAC, symSize: 0x1AC4 }
  - { offsetInCU: 0x37456, offset: 0x62518, size: 0x8, addend: 0x0, symName: __ZZN5boost12object_cacheINS_13re_detail_50021cpp_regex_traits_baseIcEENS1_31cpp_regex_traits_implementationIcEEE6do_getERKS3_mE6s_data, symObjAddr: 0x112398, symBinAddr: 0x10018C048, symSize: 0x0 }
  - { offsetInCU: 0x37961, offset: 0x62A23, size: 0x8, addend: 0x0, symName: ___func__._ZN5boost12object_cacheINS_13re_detail_50021cpp_regex_traits_baseIcEENS1_31cpp_regex_traits_implementationIcEEE6do_getERKS3_m, symObjAddr: 0x10CDA0, symBinAddr: 0x1001415A0, symSize: 0x0 }
  - { offsetInCU: 0x37972, offset: 0x62A34, size: 0x8, addend: 0x0, symName: _.str.21, symObjAddr: 0x10CDC0, symBinAddr: 0x1001415C0, symSize: 0x0 }
  - { offsetInCU: 0x3798F, offset: 0x62A51, size: 0x8, addend: 0x0, symName: _.str.22, symObjAddr: 0x10CE00, symBinAddr: 0x100141600, symSize: 0x0 }
  - { offsetInCU: 0x379AC, offset: 0x62A6E, size: 0x8, addend: 0x0, symName: _.str.23, symObjAddr: 0x10CE60, symBinAddr: 0x100141660, symSize: 0x0 }
  - { offsetInCU: 0x379C9, offset: 0x62A8B, size: 0x8, addend: 0x0, symName: _.str.24, symObjAddr: 0x10CEC0, symBinAddr: 0x1001416C0, symSize: 0x0 }
  - { offsetInCU: 0x379E6, offset: 0x62AA8, size: 0x8, addend: 0x0, symName: _.str.25, symObjAddr: 0x10CF20, symBinAddr: 0x100141720, symSize: 0x0 }
  - { offsetInCU: 0x37A03, offset: 0x62AC5, size: 0x8, addend: 0x0, symName: _.str.26, symObjAddr: 0x10CF80, symBinAddr: 0x100141780, symSize: 0x0 }
  - { offsetInCU: 0x37A20, offset: 0x62AE2, size: 0x8, addend: 0x0, symName: _.str.27, symObjAddr: 0x10CFE0, symBinAddr: 0x1001417E0, symSize: 0x0 }
  - { offsetInCU: 0x37A3D, offset: 0x62AFF, size: 0x8, addend: 0x0, symName: _.str.28, symObjAddr: 0x10D040, symBinAddr: 0x100141840, symSize: 0x0 }
  - { offsetInCU: 0x37A5B, offset: 0x62B1D, size: 0x8, addend: 0x0, symName: _.str.29, symObjAddr: 0x10D0A0, symBinAddr: 0x1001418A0, symSize: 0x0 }
  - { offsetInCU: 0x37A6A, offset: 0x62B2C, size: 0x8, addend: 0x0, symName: __ZN5boost16cpp_regex_traitsIcE14get_mutex_instEv, symObjAddr: 0x1B9C8, symBinAddr: 0x1000361DC, symSize: 0x84 }
  - { offsetInCU: 0x37A8D, offset: 0x62B4F, size: 0x8, addend: 0x0, symName: __ZZN5boost16cpp_regex_traitsIcE14get_mutex_instEvE7s_mutex, symObjAddr: 0x1123D0, symBinAddr: 0x10018C080, symSize: 0x0 }
  - { offsetInCU: 0x37A98, offset: 0x62B5A, size: 0x8, addend: 0x0, symName: __ZN5boost16cpp_regex_traitsIcE21get_catalog_name_instEv, symObjAddr: 0x1BA4C, symBinAddr: 0x100036260, symSize: 0x84 }
  - { offsetInCU: 0x37ABB, offset: 0x62B7D, size: 0x8, addend: 0x0, symName: __ZZN5boost16cpp_regex_traitsIcE21get_catalog_name_instEvE6s_name, symObjAddr: 0x112418, symBinAddr: 0x10018C0C8, symSize: 0x0 }
  - { offsetInCU: 0x37ACD, offset: 0x62B8F, size: 0x8, addend: 0x0, symName: _.str.30, symObjAddr: 0x10D100, symBinAddr: 0x100141900, symSize: 0x0 }
  - { offsetInCU: 0x37ADE, offset: 0x62BA0, size: 0x8, addend: 0x0, symName: _.str.31, symObjAddr: 0x10D120, symBinAddr: 0x100141920, symSize: 0x0 }
  - { offsetInCU: 0x37AEF, offset: 0x62BB1, size: 0x8, addend: 0x0, symName: _.str.32, symObjAddr: 0x10D140, symBinAddr: 0x100141940, symSize: 0x0 }
  - { offsetInCU: 0x37B00, offset: 0x62BC2, size: 0x8, addend: 0x0, symName: _.str.33, symObjAddr: 0x10D160, symBinAddr: 0x100141960, symSize: 0x0 }
  - { offsetInCU: 0x37B11, offset: 0x62BD3, size: 0x8, addend: 0x0, symName: _.str.34, symObjAddr: 0x10D180, symBinAddr: 0x100141980, symSize: 0x0 }
  - { offsetInCU: 0x37B22, offset: 0x62BE4, size: 0x8, addend: 0x0, symName: _.str.35, symObjAddr: 0x10D1A0, symBinAddr: 0x1001419A0, symSize: 0x0 }
  - { offsetInCU: 0x37B33, offset: 0x62BF5, size: 0x8, addend: 0x0, symName: _.str.36, symObjAddr: 0x10D1C0, symBinAddr: 0x1001419C0, symSize: 0x0 }
  - { offsetInCU: 0x37B44, offset: 0x62C06, size: 0x8, addend: 0x0, symName: _.str.37, symObjAddr: 0x10D1E0, symBinAddr: 0x1001419E0, symSize: 0x0 }
  - { offsetInCU: 0x37B55, offset: 0x62C17, size: 0x8, addend: 0x0, symName: _.str.38, symObjAddr: 0x10D200, symBinAddr: 0x100141A00, symSize: 0x0 }
  - { offsetInCU: 0x37B66, offset: 0x62C28, size: 0x8, addend: 0x0, symName: _.str.39, symObjAddr: 0x10D220, symBinAddr: 0x100141A20, symSize: 0x0 }
  - { offsetInCU: 0x37B77, offset: 0x62C39, size: 0x8, addend: 0x0, symName: _.str.40, symObjAddr: 0x10D240, symBinAddr: 0x100141A40, symSize: 0x0 }
  - { offsetInCU: 0x37B88, offset: 0x62C4A, size: 0x8, addend: 0x0, symName: _.str.41, symObjAddr: 0x10D260, symBinAddr: 0x100141A60, symSize: 0x0 }
  - { offsetInCU: 0x37B99, offset: 0x62C5B, size: 0x8, addend: 0x0, symName: _.str.42, symObjAddr: 0x10D280, symBinAddr: 0x100141A80, symSize: 0x0 }
  - { offsetInCU: 0x37BAA, offset: 0x62C6C, size: 0x8, addend: 0x0, symName: _.str.43, symObjAddr: 0x10D2A0, symBinAddr: 0x100141AA0, symSize: 0x0 }
  - { offsetInCU: 0x37BBB, offset: 0x62C7D, size: 0x8, addend: 0x0, symName: _.str.44, symObjAddr: 0x10D2C0, symBinAddr: 0x100141AC0, symSize: 0x0 }
  - { offsetInCU: 0x37BCC, offset: 0x62C8E, size: 0x8, addend: 0x0, symName: _.str.45, symObjAddr: 0x10D2E0, symBinAddr: 0x100141AE0, symSize: 0x0 }
  - { offsetInCU: 0x37BDD, offset: 0x62C9F, size: 0x8, addend: 0x0, symName: _.str.46, symObjAddr: 0x10D300, symBinAddr: 0x100141B00, symSize: 0x0 }
  - { offsetInCU: 0x37BEE, offset: 0x62CB0, size: 0x8, addend: 0x0, symName: _.str.47, symObjAddr: 0x10D320, symBinAddr: 0x100141B20, symSize: 0x0 }
  - { offsetInCU: 0x37BFF, offset: 0x62CC1, size: 0x8, addend: 0x0, symName: _.str.48, symObjAddr: 0x10D340, symBinAddr: 0x100141B40, symSize: 0x0 }
  - { offsetInCU: 0x37C10, offset: 0x62CD2, size: 0x8, addend: 0x0, symName: _.str.49, symObjAddr: 0x10D360, symBinAddr: 0x100141B60, symSize: 0x0 }
  - { offsetInCU: 0x37C21, offset: 0x62CE3, size: 0x8, addend: 0x0, symName: _.str.50, symObjAddr: 0x10D380, symBinAddr: 0x100141B80, symSize: 0x0 }
  - { offsetInCU: 0x37C3E, offset: 0x62D00, size: 0x8, addend: 0x0, symName: _.str.51, symObjAddr: 0x10D3A0, symBinAddr: 0x100141BA0, symSize: 0x0 }
  - { offsetInCU: 0x37C4F, offset: 0x62D11, size: 0x8, addend: 0x0, symName: _.str.52, symObjAddr: 0x10D3C0, symBinAddr: 0x100141BC0, symSize: 0x0 }
  - { offsetInCU: 0x37C60, offset: 0x62D22, size: 0x8, addend: 0x0, symName: _.str.53, symObjAddr: 0x10D3E0, symBinAddr: 0x100141BE0, symSize: 0x0 }
  - { offsetInCU: 0x37C71, offset: 0x62D33, size: 0x8, addend: 0x0, symName: _.str.54, symObjAddr: 0x10D400, symBinAddr: 0x100141C00, symSize: 0x0 }
  - { offsetInCU: 0x37C82, offset: 0x62D44, size: 0x8, addend: 0x0, symName: _.str.55, symObjAddr: 0x10D420, symBinAddr: 0x100141C20, symSize: 0x0 }
  - { offsetInCU: 0x37C93, offset: 0x62D55, size: 0x8, addend: 0x0, symName: _.str.56, symObjAddr: 0x10D440, symBinAddr: 0x100141C40, symSize: 0x0 }
  - { offsetInCU: 0x37CA4, offset: 0x62D66, size: 0x8, addend: 0x0, symName: _.str.57, symObjAddr: 0x10D460, symBinAddr: 0x100141C60, symSize: 0x0 }
  - { offsetInCU: 0x37CB5, offset: 0x62D77, size: 0x8, addend: 0x0, symName: _.str.58, symObjAddr: 0x10D480, symBinAddr: 0x100141C80, symSize: 0x0 }
  - { offsetInCU: 0x37CC6, offset: 0x62D88, size: 0x8, addend: 0x0, symName: _.str.59, symObjAddr: 0x10D4A0, symBinAddr: 0x100141CA0, symSize: 0x0 }
  - { offsetInCU: 0x37CD7, offset: 0x62D99, size: 0x8, addend: 0x0, symName: _.str.60, symObjAddr: 0x10D4C0, symBinAddr: 0x100141CC0, symSize: 0x0 }
  - { offsetInCU: 0x37CE8, offset: 0x62DAA, size: 0x8, addend: 0x0, symName: _.str.61, symObjAddr: 0x10D4E0, symBinAddr: 0x100141CE0, symSize: 0x0 }
  - { offsetInCU: 0x37CF9, offset: 0x62DBB, size: 0x8, addend: 0x0, symName: _.str.62, symObjAddr: 0x10D500, symBinAddr: 0x100141D00, symSize: 0x0 }
  - { offsetInCU: 0x37D0A, offset: 0x62DCC, size: 0x8, addend: 0x0, symName: _.str.63, symObjAddr: 0x10D520, symBinAddr: 0x100141D20, symSize: 0x0 }
  - { offsetInCU: 0x37D1B, offset: 0x62DDD, size: 0x8, addend: 0x0, symName: _.str.64, symObjAddr: 0x10D540, symBinAddr: 0x100141D40, symSize: 0x0 }
  - { offsetInCU: 0x37D2C, offset: 0x62DEE, size: 0x8, addend: 0x0, symName: _.str.65, symObjAddr: 0x10D560, symBinAddr: 0x100141D60, symSize: 0x0 }
  - { offsetInCU: 0x37D3D, offset: 0x62DFF, size: 0x8, addend: 0x0, symName: _.str.66, symObjAddr: 0x10D580, symBinAddr: 0x100141D80, symSize: 0x0 }
  - { offsetInCU: 0x37D4E, offset: 0x62E10, size: 0x8, addend: 0x0, symName: _.str.67, symObjAddr: 0x10D5A0, symBinAddr: 0x100141DA0, symSize: 0x0 }
  - { offsetInCU: 0x37D5F, offset: 0x62E21, size: 0x8, addend: 0x0, symName: _.str.68, symObjAddr: 0x10D5C0, symBinAddr: 0x100141DC0, symSize: 0x0 }
  - { offsetInCU: 0x37D70, offset: 0x62E32, size: 0x8, addend: 0x0, symName: _.str.69, symObjAddr: 0x10D5E0, symBinAddr: 0x100141DE0, symSize: 0x0 }
  - { offsetInCU: 0x37D81, offset: 0x62E43, size: 0x8, addend: 0x0, symName: _.str.70, symObjAddr: 0x10D600, symBinAddr: 0x100141E00, symSize: 0x0 }
  - { offsetInCU: 0x37D92, offset: 0x62E54, size: 0x8, addend: 0x0, symName: _.str.71, symObjAddr: 0x10D620, symBinAddr: 0x100141E20, symSize: 0x0 }
  - { offsetInCU: 0x37DA3, offset: 0x62E65, size: 0x8, addend: 0x0, symName: _.str.72, symObjAddr: 0x10D640, symBinAddr: 0x100141E40, symSize: 0x0 }
  - { offsetInCU: 0x37DB4, offset: 0x62E76, size: 0x8, addend: 0x0, symName: _.str.73, symObjAddr: 0x10D660, symBinAddr: 0x100141E60, symSize: 0x0 }
  - { offsetInCU: 0x37DC5, offset: 0x62E87, size: 0x8, addend: 0x0, symName: _.str.74, symObjAddr: 0x10D680, symBinAddr: 0x100141E80, symSize: 0x0 }
  - { offsetInCU: 0x37DD6, offset: 0x62E98, size: 0x8, addend: 0x0, symName: _.str.75, symObjAddr: 0x10D6A0, symBinAddr: 0x100141EA0, symSize: 0x0 }
  - { offsetInCU: 0x37DE0, offset: 0x62EA2, size: 0x8, addend: 0x0, symName: __ZN5boost13re_detail_50031cpp_regex_traits_implementationIcE4initEv, symObjAddr: 0x18F8C, symBinAddr: 0x1000337D0, symSize: 0xE50 }
  - { offsetInCU: 0x37E1E, offset: 0x62EE0, size: 0x8, addend: 0x0, symName: __ZZN5boost13re_detail_50031cpp_regex_traits_implementationIcE4initEvE11null_string, symObjAddr: 0x112438, symBinAddr: 0x10018C0E8, symSize: 0x0 }
  - { offsetInCU: 0x37F61, offset: 0x63023, size: 0x8, addend: 0x0, symName: _.str.76, symObjAddr: 0x10D6C0, symBinAddr: 0x100141EC0, symSize: 0x0 }
  - { offsetInCU: 0x37F7E, offset: 0x63040, size: 0x8, addend: 0x0, symName: _.str.77, symObjAddr: 0x10D6E0, symBinAddr: 0x100141EE0, symSize: 0x0 }
  - { offsetInCU: 0x37F9B, offset: 0x6305D, size: 0x8, addend: 0x0, symName: _.str.78, symObjAddr: 0x10D700, symBinAddr: 0x100141F00, symSize: 0x0 }
  - { offsetInCU: 0x37FB8, offset: 0x6307A, size: 0x8, addend: 0x0, symName: _.str.79, symObjAddr: 0x10D740, symBinAddr: 0x100141F40, symSize: 0x0 }
  - { offsetInCU: 0x37FD5, offset: 0x63097, size: 0x8, addend: 0x0, symName: _.str.80, symObjAddr: 0x10D780, symBinAddr: 0x100141F80, symSize: 0x0 }
  - { offsetInCU: 0x37FF2, offset: 0x630B4, size: 0x8, addend: 0x0, symName: _.str.81, symObjAddr: 0x10D800, symBinAddr: 0x100142000, symSize: 0x0 }
  - { offsetInCU: 0x3800F, offset: 0x630D1, size: 0x8, addend: 0x0, symName: _.str.82, symObjAddr: 0x10D860, symBinAddr: 0x100142060, symSize: 0x0 }
  - { offsetInCU: 0x38020, offset: 0x630E2, size: 0x8, addend: 0x0, symName: _.str.83, symObjAddr: 0x10D8E0, symBinAddr: 0x1001420E0, symSize: 0x0 }
  - { offsetInCU: 0x3803D, offset: 0x630FF, size: 0x8, addend: 0x0, symName: _.str.84, symObjAddr: 0x10D940, symBinAddr: 0x100142140, symSize: 0x0 }
  - { offsetInCU: 0x3804E, offset: 0x63110, size: 0x8, addend: 0x0, symName: _.str.85, symObjAddr: 0x10D9A0, symBinAddr: 0x1001421A0, symSize: 0x0 }
  - { offsetInCU: 0x3806B, offset: 0x6312D, size: 0x8, addend: 0x0, symName: _.str.86, symObjAddr: 0x10DA00, symBinAddr: 0x100142200, symSize: 0x0 }
  - { offsetInCU: 0x3807C, offset: 0x6313E, size: 0x8, addend: 0x0, symName: _.str.87, symObjAddr: 0x10DA60, symBinAddr: 0x100142260, symSize: 0x0 }
  - { offsetInCU: 0x38099, offset: 0x6315B, size: 0x8, addend: 0x0, symName: _.str.88, symObjAddr: 0x10DAC0, symBinAddr: 0x1001422C0, symSize: 0x0 }
  - { offsetInCU: 0x380AA, offset: 0x6316C, size: 0x8, addend: 0x0, symName: _.str.89, symObjAddr: 0x10DAE0, symBinAddr: 0x1001422E0, symSize: 0x0 }
  - { offsetInCU: 0x380C7, offset: 0x63189, size: 0x8, addend: 0x0, symName: _.str.90, symObjAddr: 0x10DB60, symBinAddr: 0x100142360, symSize: 0x0 }
  - { offsetInCU: 0x380E4, offset: 0x631A6, size: 0x8, addend: 0x0, symName: _.str.91, symObjAddr: 0x10DBC0, symBinAddr: 0x1001423C0, symSize: 0x0 }
  - { offsetInCU: 0x380F5, offset: 0x631B7, size: 0x8, addend: 0x0, symName: _.str.92, symObjAddr: 0x10DC20, symBinAddr: 0x100142420, symSize: 0x0 }
  - { offsetInCU: 0x38112, offset: 0x631D4, size: 0x8, addend: 0x0, symName: _.str.93, symObjAddr: 0x10DC60, symBinAddr: 0x100142460, symSize: 0x0 }
  - { offsetInCU: 0x3812F, offset: 0x631F1, size: 0x8, addend: 0x0, symName: _.str.94, symObjAddr: 0x10DCA0, symBinAddr: 0x1001424A0, symSize: 0x0 }
  - { offsetInCU: 0x3814E, offset: 0x63210, size: 0x8, addend: 0x0, symName: _.str.95, symObjAddr: 0x10DE00, symBinAddr: 0x100142600, symSize: 0x0 }
  - { offsetInCU: 0x3816B, offset: 0x6322D, size: 0x8, addend: 0x0, symName: _.str.96, symObjAddr: 0x10DE60, symBinAddr: 0x100142660, symSize: 0x0 }
  - { offsetInCU: 0x3817C, offset: 0x6323E, size: 0x8, addend: 0x0, symName: _.str.97, symObjAddr: 0x10DEC0, symBinAddr: 0x1001426C0, symSize: 0x0 }
  - { offsetInCU: 0x381A9, offset: 0x6326B, size: 0x8, addend: 0x0, symName: ___func__._ZNK5boost13re_detail_50031cpp_regex_traits_implementationIcE9transformEPKcS4_, symObjAddr: 0x10DF40, symBinAddr: 0x100142740, symSize: 0x0 }
  - { offsetInCU: 0x381C7, offset: 0x63289, size: 0x8, addend: 0x0, symName: _.str.98, symObjAddr: 0x10DF60, symBinAddr: 0x100142760, symSize: 0x0 }
  - { offsetInCU: 0x381D9, offset: 0x6329B, size: 0x8, addend: 0x0, symName: _.str.99, symObjAddr: 0x10DFA0, symBinAddr: 0x1001427A0, symSize: 0x0 }
  - { offsetInCU: 0x381EB, offset: 0x632AD, size: 0x8, addend: 0x0, symName: _.str.100, symObjAddr: 0x10DFC0, symBinAddr: 0x1001427C0, symSize: 0x0 }
  - { offsetInCU: 0x38BE9, offset: 0x63CAB, size: 0x8, addend: 0x0, symName: __ZN5boost13re_detail_50019basic_regex_creatorIcNS_12regex_traitsIcNS_16cpp_regex_traitsIcEEEEEC2EPNS0_10regex_dataIcS5_EE, symObjAddr: 0x3B67C, symBinAddr: 0x1000553DC, symSize: 0xDBC }
  - { offsetInCU: 0x38C14, offset: 0x63CD6, size: 0x8, addend: 0x0, symName: __ZZN5boost13re_detail_50019basic_regex_creatorIcNS_12regex_traitsIcNS_16cpp_regex_traitsIcEEEEEC1EPNS0_10regex_dataIcS5_EEE1w, symObjAddr: 0x10C6B0, symBinAddr: 0x10014AF10, symSize: 0x0 }
  - { offsetInCU: 0x38C2B, offset: 0x63CED, size: 0x8, addend: 0x0, symName: __ZZN5boost13re_detail_50019basic_regex_creatorIcNS_12regex_traitsIcNS_16cpp_regex_traitsIcEEEEEC1EPNS0_10regex_dataIcS5_EEE1s, symObjAddr: 0x10C6B1, symBinAddr: 0x10014AF11, symSize: 0x0 }
  - { offsetInCU: 0x38C42, offset: 0x63D04, size: 0x8, addend: 0x0, symName: __ZZN5boost13re_detail_50019basic_regex_creatorIcNS_12regex_traitsIcNS_16cpp_regex_traitsIcEEEEEC1EPNS0_10regex_dataIcS5_EEE1l, symObjAddr: 0x10C6B2, symBinAddr: 0x10014AF12, symSize: 0x0 }
  - { offsetInCU: 0x38C59, offset: 0x63D1B, size: 0x8, addend: 0x0, symName: __ZZN5boost13re_detail_50019basic_regex_creatorIcNS_12regex_traitsIcNS_16cpp_regex_traitsIcEEEEEC1EPNS0_10regex_dataIcS5_EEE1u, symObjAddr: 0x10C6B7, symBinAddr: 0x10014AF17, symSize: 0x0 }
  - { offsetInCU: 0x38C70, offset: 0x63D32, size: 0x8, addend: 0x0, symName: __ZZN5boost13re_detail_50019basic_regex_creatorIcNS_12regex_traitsIcNS_16cpp_regex_traitsIcEEEEEC1EPNS0_10regex_dataIcS5_EEE1a, symObjAddr: 0x10C6BC, symBinAddr: 0x10014AF1C, symSize: 0x0 }
  - { offsetInCU: 0x38CAA, offset: 0x63D6C, size: 0x8, addend: 0x0, symName: ___func__._ZN5boost13re_detail_50019basic_regex_creatorIcNS_12regex_traitsIcNS_16cpp_regex_traitsIcEEEEEC2EPNS0_10regex_dataIcS5_EE, symObjAddr: 0x10E040, symBinAddr: 0x100142840, symSize: 0x0 }
  - { offsetInCU: 0x38CC8, offset: 0x63D8A, size: 0x8, addend: 0x0, symName: _.str.101, symObjAddr: 0x10E080, symBinAddr: 0x100142880, symSize: 0x0 }
  - { offsetInCU: 0x38CE6, offset: 0x63DA8, size: 0x8, addend: 0x0, symName: _.str.102, symObjAddr: 0x10E0C0, symBinAddr: 0x1001428C0, symSize: 0x0 }
  - { offsetInCU: 0x38CF8, offset: 0x63DBA, size: 0x8, addend: 0x0, symName: _.str.103, symObjAddr: 0x10E100, symBinAddr: 0x100142900, symSize: 0x0 }
  - { offsetInCU: 0x38D0A, offset: 0x63DCC, size: 0x8, addend: 0x0, symName: _.str.104, symObjAddr: 0x10E140, symBinAddr: 0x100142940, symSize: 0x0 }
  - { offsetInCU: 0x38D1C, offset: 0x63DDE, size: 0x8, addend: 0x0, symName: _.str.105, symObjAddr: 0x10E180, symBinAddr: 0x100142980, symSize: 0x0 }
  - { offsetInCU: 0x38D2E, offset: 0x63DF0, size: 0x8, addend: 0x0, symName: _.str.106, symObjAddr: 0x10E1C0, symBinAddr: 0x1001429C0, symSize: 0x0 }
  - { offsetInCU: 0x38D38, offset: 0x63DFA, size: 0x8, addend: 0x0, symName: __ZNK5boost13re_detail_50031cpp_regex_traits_implementationIcE20lookup_classname_impEPKcS4_, symObjAddr: 0x3D0BC, symBinAddr: 0x100056E1C, symSize: 0x5C0 }
  - { offsetInCU: 0x38D5F, offset: 0x63E21, size: 0x8, addend: 0x0, symName: __ZZNK5boost13re_detail_50031cpp_regex_traits_implementationIcE20lookup_classname_impEPKcS4_E5masks, symObjAddr: 0x10C6C4, symBinAddr: 0x10014AF24, symSize: 0x0 }
  - { offsetInCU: 0x38DE2, offset: 0x63EA4, size: 0x8, addend: 0x0, symName: ___func__._ZNK5boost13re_detail_50031cpp_regex_traits_implementationIcE20lookup_classname_impEPKcS4_, symObjAddr: 0x10E200, symBinAddr: 0x100142A00, symSize: 0x0 }
  - { offsetInCU: 0x38DF4, offset: 0x63EB6, size: 0x8, addend: 0x0, symName: _.str.107, symObjAddr: 0x10E240, symBinAddr: 0x100142A40, symSize: 0x0 }
  - { offsetInCU: 0x38E2C, offset: 0x63EEE, size: 0x8, addend: 0x0, symName: _.str.108, symObjAddr: 0x10E2A0, symBinAddr: 0x100142AA0, symSize: 0x0 }
  - { offsetInCU: 0x38E49, offset: 0x63F0B, size: 0x8, addend: 0x0, symName: _.str.109, symObjAddr: 0x10E320, symBinAddr: 0x100142B20, symSize: 0x0 }
  - { offsetInCU: 0x38E66, offset: 0x63F28, size: 0x8, addend: 0x0, symName: _.str.110, symObjAddr: 0x10E380, symBinAddr: 0x100142B80, symSize: 0x0 }
  - { offsetInCU: 0x38E84, offset: 0x63F46, size: 0x8, addend: 0x0, symName: _.str.111, symObjAddr: 0x10E3E0, symBinAddr: 0x100142BE0, symSize: 0x0 }
  - { offsetInCU: 0x38EA2, offset: 0x63F64, size: 0x8, addend: 0x0, symName: _.str.112, symObjAddr: 0x10E440, symBinAddr: 0x100142C40, symSize: 0x0 }
  - { offsetInCU: 0x38EB4, offset: 0x63F76, size: 0x8, addend: 0x0, symName: _.str.113, symObjAddr: 0x10E4A0, symBinAddr: 0x100142CA0, symSize: 0x0 }
  - { offsetInCU: 0x38EC6, offset: 0x63F88, size: 0x8, addend: 0x0, symName: _.str.114, symObjAddr: 0x10E500, symBinAddr: 0x100142D00, symSize: 0x0 }
  - { offsetInCU: 0x38EDD, offset: 0x63F9F, size: 0x8, addend: 0x0, symName: _.str.115, symObjAddr: 0x10E560, symBinAddr: 0x100142D60, symSize: 0x0 }
  - { offsetInCU: 0x38EFB, offset: 0x63FBD, size: 0x8, addend: 0x0, symName: _.str.116, symObjAddr: 0x10E5E0, symBinAddr: 0x100142DE0, symSize: 0x0 }
  - { offsetInCU: 0x38F19, offset: 0x63FDB, size: 0x8, addend: 0x0, symName: _.str.117, symObjAddr: 0x10E640, symBinAddr: 0x100142E40, symSize: 0x0 }
  - { offsetInCU: 0x38F2B, offset: 0x63FED, size: 0x8, addend: 0x0, symName: _.str.118, symObjAddr: 0x10E680, symBinAddr: 0x100142E80, symSize: 0x0 }
  - { offsetInCU: 0x38F3D, offset: 0x63FFF, size: 0x8, addend: 0x0, symName: _.str.119, symObjAddr: 0x10E6A0, symBinAddr: 0x100142EA0, symSize: 0x0 }
  - { offsetInCU: 0x38F5B, offset: 0x6401D, size: 0x8, addend: 0x0, symName: ___func__._ZN5boost13re_detail_50018basic_regex_parserIcNS_12regex_traitsIcNS_16cpp_regex_traitsIcEEEEE20parse_perl_extensionEv, symObjAddr: 0x10E700, symBinAddr: 0x100142F00, symSize: 0x0 }
  - { offsetInCU: 0x38F6D, offset: 0x6402F, size: 0x8, addend: 0x0, symName: _.str.120, symObjAddr: 0x10E740, symBinAddr: 0x100142F40, symSize: 0x0 }
  - { offsetInCU: 0x38F8B, offset: 0x6404D, size: 0x8, addend: 0x0, symName: _.str.121, symObjAddr: 0x10E780, symBinAddr: 0x100142F80, symSize: 0x0 }
  - { offsetInCU: 0x38FA9, offset: 0x6406B, size: 0x8, addend: 0x0, symName: _.str.122, symObjAddr: 0x10E800, symBinAddr: 0x100143000, symSize: 0x0 }
  - { offsetInCU: 0x38FBB, offset: 0x6407D, size: 0x8, addend: 0x0, symName: _.str.123, symObjAddr: 0x10E860, symBinAddr: 0x100143060, symSize: 0x0 }
  - { offsetInCU: 0x38FD9, offset: 0x6409B, size: 0x8, addend: 0x0, symName: _.str.124, symObjAddr: 0x10E8E0, symBinAddr: 0x1001430E0, symSize: 0x0 }
  - { offsetInCU: 0x38FEB, offset: 0x640AD, size: 0x8, addend: 0x0, symName: _.str.125, symObjAddr: 0x10E940, symBinAddr: 0x100143140, symSize: 0x0 }
  - { offsetInCU: 0x38FFD, offset: 0x640BF, size: 0x8, addend: 0x0, symName: _.str.126, symObjAddr: 0x10E9C0, symBinAddr: 0x1001431C0, symSize: 0x0 }
  - { offsetInCU: 0x3900E, offset: 0x640D0, size: 0x8, addend: 0x0, symName: ___func__._ZN5boost13re_detail_50011raw_storage6insertEmm, symObjAddr: 0x10E9E0, symBinAddr: 0x1001431E0, symSize: 0x0 }
  - { offsetInCU: 0x3901F, offset: 0x640E1, size: 0x8, addend: 0x0, symName: _.str.127, symObjAddr: 0x10EA00, symBinAddr: 0x100143200, symSize: 0x0 }
  - { offsetInCU: 0x39030, offset: 0x640F2, size: 0x8, addend: 0x0, symName: _.str.128, symObjAddr: 0x10EA40, symBinAddr: 0x100143240, symSize: 0x0 }
  - { offsetInCU: 0x39042, offset: 0x64104, size: 0x8, addend: 0x0, symName: _.str.129, symObjAddr: 0x10EA80, symBinAddr: 0x100143280, symSize: 0x0 }
  - { offsetInCU: 0x39054, offset: 0x64116, size: 0x8, addend: 0x0, symName: _.str.130, symObjAddr: 0x10EAA0, symBinAddr: 0x1001432A0, symSize: 0x0 }
  - { offsetInCU: 0x39072, offset: 0x64134, size: 0x8, addend: 0x0, symName: _.str.131, symObjAddr: 0x10EAC0, symBinAddr: 0x1001432C0, symSize: 0x0 }
  - { offsetInCU: 0x39084, offset: 0x64146, size: 0x8, addend: 0x0, symName: _.str.132, symObjAddr: 0x10EAE0, symBinAddr: 0x1001432E0, symSize: 0x0 }
  - { offsetInCU: 0x39096, offset: 0x64158, size: 0x8, addend: 0x0, symName: _.str.133, symObjAddr: 0x10EB00, symBinAddr: 0x100143300, symSize: 0x0 }
  - { offsetInCU: 0x390A8, offset: 0x6416A, size: 0x8, addend: 0x0, symName: _.str.134, symObjAddr: 0x10EB20, symBinAddr: 0x100143320, symSize: 0x0 }
  - { offsetInCU: 0x390BA, offset: 0x6417C, size: 0x8, addend: 0x0, symName: _.str.135, symObjAddr: 0x10EB40, symBinAddr: 0x100143340, symSize: 0x0 }
  - { offsetInCU: 0x390CC, offset: 0x6418E, size: 0x8, addend: 0x0, symName: _.str.136, symObjAddr: 0x10EBA0, symBinAddr: 0x1001433A0, symSize: 0x0 }
  - { offsetInCU: 0x390DE, offset: 0x641A0, size: 0x8, addend: 0x0, symName: _.str.137, symObjAddr: 0x10EC00, symBinAddr: 0x100143400, symSize: 0x0 }
  - { offsetInCU: 0x390FC, offset: 0x641BE, size: 0x8, addend: 0x0, symName: _.str.138, symObjAddr: 0x10EC60, symBinAddr: 0x100143460, symSize: 0x0 }
  - { offsetInCU: 0x392B3, offset: 0x64375, size: 0x8, addend: 0x0, symName: __ZN5boost13re_detail_50018basic_regex_parserIcNS_12regex_traitsIcNS_16cpp_regex_traitsIcEEEEE21parse_extended_escapeEv, symObjAddr: 0x48E44, symBinAddr: 0x100062B90, symSize: 0x3188 }
  - { offsetInCU: 0x392DA, offset: 0x6439C, size: 0x8, addend: 0x0, symName: __ZZN5boost13re_detail_50018basic_regex_parserIcNS_12regex_traitsIcNS_16cpp_regex_traitsIcEEEEE21parse_extended_escapeEvE18incomplete_message, symObjAddr: 0x10C7DF, symBinAddr: 0x10014B03F, symSize: 0x0 }
  - { offsetInCU: 0x394CC, offset: 0x6458E, size: 0x8, addend: 0x0, symName: ___func__._ZNK5boost13re_detail_50031cpp_regex_traits_implementationIcE17transform_primaryEPKcS4_, symObjAddr: 0x10ECE0, symBinAddr: 0x1001434E0, symSize: 0x0 }
  - { offsetInCU: 0x394DE, offset: 0x645A0, size: 0x8, addend: 0x0, symName: ___func__._ZN5boost13re_detail_50019basic_regex_creatorIcNS_12regex_traitsIcNS_16cpp_regex_traitsIcEEEEE10append_setERKNS0_14basic_char_setIcS5_EEPNSt3__117integral_constantIbLb1EEE, symObjAddr: 0x10ED20, symBinAddr: 0x100143520, symSize: 0x0 }
  - { offsetInCU: 0x394F0, offset: 0x645B2, size: 0x8, addend: 0x0, symName: _.str.139, symObjAddr: 0x10ED40, symBinAddr: 0x100143540, symSize: 0x0 }
  - { offsetInCU: 0x39502, offset: 0x645C4, size: 0x8, addend: 0x0, symName: _.str.140, symObjAddr: 0x10ED80, symBinAddr: 0x100143580, symSize: 0x0 }
  - { offsetInCU: 0x39518, offset: 0x645DA, size: 0x8, addend: 0x0, symName: __ZNK5boost16cpp_regex_traitsIcE7isctypeEcj, symObjAddr: 0x89350, symBinAddr: 0x1000A2A70, symSize: 0x2A8 }
  - { offsetInCU: 0x3953D, offset: 0x645FF, size: 0x8, addend: 0x0, symName: __ZZNK5boost16cpp_regex_traitsIcE7isctypeEcjE9mask_base, symObjAddr: 0x10C7FC, symBinAddr: 0x10014B05C, symSize: 0x0 }
  - { offsetInCU: 0x3958C, offset: 0x6464E, size: 0x8, addend: 0x0, symName: _.str.141, symObjAddr: 0x10EDE0, symBinAddr: 0x1001435E0, symSize: 0x0 }
  - { offsetInCU: 0x3959E, offset: 0x64660, size: 0x8, addend: 0x0, symName: _.str.142, symObjAddr: 0x10EE40, symBinAddr: 0x100143640, symSize: 0x0 }
  - { offsetInCU: 0x395B0, offset: 0x64672, size: 0x8, addend: 0x0, symName: _.str.143, symObjAddr: 0x10EEA0, symBinAddr: 0x1001436A0, symSize: 0x0 }
  - { offsetInCU: 0x395CE, offset: 0x64690, size: 0x8, addend: 0x0, symName: _.str.144, symObjAddr: 0x10EF00, symBinAddr: 0x100143700, symSize: 0x0 }
  - { offsetInCU: 0x395EC, offset: 0x646AE, size: 0x8, addend: 0x0, symName: _.str.145, symObjAddr: 0x10EF60, symBinAddr: 0x100143760, symSize: 0x0 }
  - { offsetInCU: 0x395FE, offset: 0x646C0, size: 0x8, addend: 0x0, symName: _.str.146, symObjAddr: 0x10EFC0, symBinAddr: 0x1001437C0, symSize: 0x0 }
  - { offsetInCU: 0x39610, offset: 0x646D2, size: 0x8, addend: 0x0, symName: _.str.147, symObjAddr: 0x10F020, symBinAddr: 0x100143820, symSize: 0x0 }
  - { offsetInCU: 0x3962E, offset: 0x646F0, size: 0x8, addend: 0x0, symName: _.str.148, symObjAddr: 0x10F060, symBinAddr: 0x100143860, symSize: 0x0 }
  - { offsetInCU: 0x39640, offset: 0x64702, size: 0x8, addend: 0x0, symName: _.str.149, symObjAddr: 0x10F0C0, symBinAddr: 0x1001438C0, symSize: 0x0 }
  - { offsetInCU: 0x39652, offset: 0x64714, size: 0x8, addend: 0x0, symName: _.str.150, symObjAddr: 0x10F0E0, symBinAddr: 0x1001438E0, symSize: 0x0 }
  - { offsetInCU: 0x39664, offset: 0x64726, size: 0x8, addend: 0x0, symName: _.str.151, symObjAddr: 0x10F100, symBinAddr: 0x100143900, symSize: 0x0 }
  - { offsetInCU: 0x39676, offset: 0x64738, size: 0x8, addend: 0x0, symName: _.str.152, symObjAddr: 0x10F120, symBinAddr: 0x100143920, symSize: 0x0 }
  - { offsetInCU: 0x39688, offset: 0x6474A, size: 0x8, addend: 0x0, symName: _.str.153, symObjAddr: 0x10F140, symBinAddr: 0x100143940, symSize: 0x0 }
  - { offsetInCU: 0x3969A, offset: 0x6475C, size: 0x8, addend: 0x0, symName: _.str.154, symObjAddr: 0x10F160, symBinAddr: 0x100143960, symSize: 0x0 }
  - { offsetInCU: 0x396AC, offset: 0x6476E, size: 0x8, addend: 0x0, symName: _.str.155, symObjAddr: 0x10F180, symBinAddr: 0x100143980, symSize: 0x0 }
  - { offsetInCU: 0x396BE, offset: 0x64780, size: 0x8, addend: 0x0, symName: _.str.156, symObjAddr: 0x10F1A0, symBinAddr: 0x1001439A0, symSize: 0x0 }
  - { offsetInCU: 0x396D0, offset: 0x64792, size: 0x8, addend: 0x0, symName: _.str.157, symObjAddr: 0x10F1C0, symBinAddr: 0x1001439C0, symSize: 0x0 }
  - { offsetInCU: 0x396E2, offset: 0x647A4, size: 0x8, addend: 0x0, symName: _.str.158, symObjAddr: 0x10F1E0, symBinAddr: 0x1001439E0, symSize: 0x0 }
  - { offsetInCU: 0x396F4, offset: 0x647B6, size: 0x8, addend: 0x0, symName: _.str.159, symObjAddr: 0x10F200, symBinAddr: 0x100143A00, symSize: 0x0 }
  - { offsetInCU: 0x39706, offset: 0x647C8, size: 0x8, addend: 0x0, symName: _.str.160, symObjAddr: 0x10F220, symBinAddr: 0x100143A20, symSize: 0x0 }
  - { offsetInCU: 0x39718, offset: 0x647DA, size: 0x8, addend: 0x0, symName: _.str.161, symObjAddr: 0x10F240, symBinAddr: 0x100143A40, symSize: 0x0 }
  - { offsetInCU: 0x3972A, offset: 0x647EC, size: 0x8, addend: 0x0, symName: _.str.162, symObjAddr: 0x10F260, symBinAddr: 0x100143A60, symSize: 0x0 }
  - { offsetInCU: 0x3973C, offset: 0x647FE, size: 0x8, addend: 0x0, symName: _.str.163, symObjAddr: 0x10F280, symBinAddr: 0x100143A80, symSize: 0x0 }
  - { offsetInCU: 0x3974E, offset: 0x64810, size: 0x8, addend: 0x0, symName: _.str.164, symObjAddr: 0x10F2A0, symBinAddr: 0x100143AA0, symSize: 0x0 }
  - { offsetInCU: 0x39760, offset: 0x64822, size: 0x8, addend: 0x0, symName: _.str.165, symObjAddr: 0x10F2C0, symBinAddr: 0x100143AC0, symSize: 0x0 }
  - { offsetInCU: 0x39772, offset: 0x64834, size: 0x8, addend: 0x0, symName: _.str.166, symObjAddr: 0x10F2E0, symBinAddr: 0x100143AE0, symSize: 0x0 }
  - { offsetInCU: 0x39784, offset: 0x64846, size: 0x8, addend: 0x0, symName: _.str.167, symObjAddr: 0x10F300, symBinAddr: 0x100143B00, symSize: 0x0 }
  - { offsetInCU: 0x39796, offset: 0x64858, size: 0x8, addend: 0x0, symName: _.str.168, symObjAddr: 0x10F320, symBinAddr: 0x100143B20, symSize: 0x0 }
  - { offsetInCU: 0x397A8, offset: 0x6486A, size: 0x8, addend: 0x0, symName: _.str.169, symObjAddr: 0x10F340, symBinAddr: 0x100143B40, symSize: 0x0 }
  - { offsetInCU: 0x397BA, offset: 0x6487C, size: 0x8, addend: 0x0, symName: _.str.170, symObjAddr: 0x10F360, symBinAddr: 0x100143B60, symSize: 0x0 }
  - { offsetInCU: 0x397CC, offset: 0x6488E, size: 0x8, addend: 0x0, symName: _.str.171, symObjAddr: 0x10F380, symBinAddr: 0x100143B80, symSize: 0x0 }
  - { offsetInCU: 0x397DE, offset: 0x648A0, size: 0x8, addend: 0x0, symName: _.str.172, symObjAddr: 0x10F3A0, symBinAddr: 0x100143BA0, symSize: 0x0 }
  - { offsetInCU: 0x397F0, offset: 0x648B2, size: 0x8, addend: 0x0, symName: _.str.173, symObjAddr: 0x10F3C0, symBinAddr: 0x100143BC0, symSize: 0x0 }
  - { offsetInCU: 0x39802, offset: 0x648C4, size: 0x8, addend: 0x0, symName: _.str.174, symObjAddr: 0x10F3E0, symBinAddr: 0x100143BE0, symSize: 0x0 }
  - { offsetInCU: 0x39814, offset: 0x648D6, size: 0x8, addend: 0x0, symName: _.str.175, symObjAddr: 0x10F400, symBinAddr: 0x100143C00, symSize: 0x0 }
  - { offsetInCU: 0x39826, offset: 0x648E8, size: 0x8, addend: 0x0, symName: _.str.176, symObjAddr: 0x10F420, symBinAddr: 0x100143C20, symSize: 0x0 }
  - { offsetInCU: 0x39838, offset: 0x648FA, size: 0x8, addend: 0x0, symName: _.str.177, symObjAddr: 0x10F440, symBinAddr: 0x100143C40, symSize: 0x0 }
  - { offsetInCU: 0x3984A, offset: 0x6490C, size: 0x8, addend: 0x0, symName: _.str.178, symObjAddr: 0x10F460, symBinAddr: 0x100143C60, symSize: 0x0 }
  - { offsetInCU: 0x3985C, offset: 0x6491E, size: 0x8, addend: 0x0, symName: _.str.179, symObjAddr: 0x10F480, symBinAddr: 0x100143C80, symSize: 0x0 }
  - { offsetInCU: 0x3986E, offset: 0x64930, size: 0x8, addend: 0x0, symName: _.str.180, symObjAddr: 0x10F4A0, symBinAddr: 0x100143CA0, symSize: 0x0 }
  - { offsetInCU: 0x39880, offset: 0x64942, size: 0x8, addend: 0x0, symName: _.str.181, symObjAddr: 0x10F4C0, symBinAddr: 0x100143CC0, symSize: 0x0 }
  - { offsetInCU: 0x39892, offset: 0x64954, size: 0x8, addend: 0x0, symName: _.str.182, symObjAddr: 0x10F4E0, symBinAddr: 0x100143CE0, symSize: 0x0 }
  - { offsetInCU: 0x398A4, offset: 0x64966, size: 0x8, addend: 0x0, symName: _.str.183, symObjAddr: 0x10F520, symBinAddr: 0x100143D20, symSize: 0x0 }
  - { offsetInCU: 0x398B6, offset: 0x64978, size: 0x8, addend: 0x0, symName: _.str.184, symObjAddr: 0x10F540, symBinAddr: 0x100143D40, symSize: 0x0 }
  - { offsetInCU: 0x398C8, offset: 0x6498A, size: 0x8, addend: 0x0, symName: _.str.185, symObjAddr: 0x10F560, symBinAddr: 0x100143D60, symSize: 0x0 }
  - { offsetInCU: 0x398DA, offset: 0x6499C, size: 0x8, addend: 0x0, symName: _.str.186, symObjAddr: 0x10F580, symBinAddr: 0x100143D80, symSize: 0x0 }
  - { offsetInCU: 0x398EC, offset: 0x649AE, size: 0x8, addend: 0x0, symName: _.str.187, symObjAddr: 0x10F5A0, symBinAddr: 0x100143DA0, symSize: 0x0 }
  - { offsetInCU: 0x398FE, offset: 0x649C0, size: 0x8, addend: 0x0, symName: _.str.188, symObjAddr: 0x10F5C0, symBinAddr: 0x100143DC0, symSize: 0x0 }
  - { offsetInCU: 0x39910, offset: 0x649D2, size: 0x8, addend: 0x0, symName: _.str.189, symObjAddr: 0x10F5E0, symBinAddr: 0x100143DE0, symSize: 0x0 }
  - { offsetInCU: 0x39922, offset: 0x649E4, size: 0x8, addend: 0x0, symName: _.str.190, symObjAddr: 0x10F620, symBinAddr: 0x100143E20, symSize: 0x0 }
  - { offsetInCU: 0x39934, offset: 0x649F6, size: 0x8, addend: 0x0, symName: _.str.191, symObjAddr: 0x10F660, symBinAddr: 0x100143E60, symSize: 0x0 }
  - { offsetInCU: 0x39946, offset: 0x64A08, size: 0x8, addend: 0x0, symName: _.str.192, symObjAddr: 0x10F680, symBinAddr: 0x100143E80, symSize: 0x0 }
  - { offsetInCU: 0x39958, offset: 0x64A1A, size: 0x8, addend: 0x0, symName: _.str.193, symObjAddr: 0x10F6A0, symBinAddr: 0x100143EA0, symSize: 0x0 }
  - { offsetInCU: 0x3996A, offset: 0x64A2C, size: 0x8, addend: 0x0, symName: _.str.194, symObjAddr: 0x10F6C0, symBinAddr: 0x100143EC0, symSize: 0x0 }
  - { offsetInCU: 0x3997C, offset: 0x64A3E, size: 0x8, addend: 0x0, symName: _.str.195, symObjAddr: 0x10F6E0, symBinAddr: 0x100143EE0, symSize: 0x0 }
  - { offsetInCU: 0x3998E, offset: 0x64A50, size: 0x8, addend: 0x0, symName: _.str.196, symObjAddr: 0x10F700, symBinAddr: 0x100143F00, symSize: 0x0 }
  - { offsetInCU: 0x399A0, offset: 0x64A62, size: 0x8, addend: 0x0, symName: _.str.197, symObjAddr: 0x10F720, symBinAddr: 0x100143F20, symSize: 0x0 }
  - { offsetInCU: 0x399B2, offset: 0x64A74, size: 0x8, addend: 0x0, symName: _.str.198, symObjAddr: 0x10F740, symBinAddr: 0x100143F40, symSize: 0x0 }
  - { offsetInCU: 0x399C4, offset: 0x64A86, size: 0x8, addend: 0x0, symName: _.str.199, symObjAddr: 0x10F760, symBinAddr: 0x100143F60, symSize: 0x0 }
  - { offsetInCU: 0x399D6, offset: 0x64A98, size: 0x8, addend: 0x0, symName: _.str.200, symObjAddr: 0x10F780, symBinAddr: 0x100143F80, symSize: 0x0 }
  - { offsetInCU: 0x399E8, offset: 0x64AAA, size: 0x8, addend: 0x0, symName: _.str.201, symObjAddr: 0x10F7A0, symBinAddr: 0x100143FA0, symSize: 0x0 }
  - { offsetInCU: 0x399FA, offset: 0x64ABC, size: 0x8, addend: 0x0, symName: _.str.202, symObjAddr: 0x10F7C0, symBinAddr: 0x100143FC0, symSize: 0x0 }
  - { offsetInCU: 0x39A0C, offset: 0x64ACE, size: 0x8, addend: 0x0, symName: _.str.203, symObjAddr: 0x10F7E0, symBinAddr: 0x100143FE0, symSize: 0x0 }
  - { offsetInCU: 0x39A1E, offset: 0x64AE0, size: 0x8, addend: 0x0, symName: _.str.204, symObjAddr: 0x10F800, symBinAddr: 0x100144000, symSize: 0x0 }
  - { offsetInCU: 0x39A30, offset: 0x64AF2, size: 0x8, addend: 0x0, symName: _.str.205, symObjAddr: 0x10F820, symBinAddr: 0x100144020, symSize: 0x0 }
  - { offsetInCU: 0x39A42, offset: 0x64B04, size: 0x8, addend: 0x0, symName: _.str.206, symObjAddr: 0x10F840, symBinAddr: 0x100144040, symSize: 0x0 }
  - { offsetInCU: 0x39A54, offset: 0x64B16, size: 0x8, addend: 0x0, symName: _.str.207, symObjAddr: 0x10F860, symBinAddr: 0x100144060, symSize: 0x0 }
  - { offsetInCU: 0x39A66, offset: 0x64B28, size: 0x8, addend: 0x0, symName: _.str.208, symObjAddr: 0x10F880, symBinAddr: 0x100144080, symSize: 0x0 }
  - { offsetInCU: 0x39A78, offset: 0x64B3A, size: 0x8, addend: 0x0, symName: _.str.209, symObjAddr: 0x10F8A0, symBinAddr: 0x1001440A0, symSize: 0x0 }
  - { offsetInCU: 0x39A8A, offset: 0x64B4C, size: 0x8, addend: 0x0, symName: _.str.210, symObjAddr: 0x10F8C0, symBinAddr: 0x1001440C0, symSize: 0x0 }
  - { offsetInCU: 0x39A9C, offset: 0x64B5E, size: 0x8, addend: 0x0, symName: _.str.211, symObjAddr: 0x10F8E0, symBinAddr: 0x1001440E0, symSize: 0x0 }
  - { offsetInCU: 0x39AAE, offset: 0x64B70, size: 0x8, addend: 0x0, symName: _.str.212, symObjAddr: 0x10F920, symBinAddr: 0x100144120, symSize: 0x0 }
  - { offsetInCU: 0x39AC0, offset: 0x64B82, size: 0x8, addend: 0x0, symName: _.str.213, symObjAddr: 0x10F940, symBinAddr: 0x100144140, symSize: 0x0 }
  - { offsetInCU: 0x39AD2, offset: 0x64B94, size: 0x8, addend: 0x0, symName: _.str.214, symObjAddr: 0x10F960, symBinAddr: 0x100144160, symSize: 0x0 }
  - { offsetInCU: 0x39AE4, offset: 0x64BA6, size: 0x8, addend: 0x0, symName: _.str.215, symObjAddr: 0x10F980, symBinAddr: 0x100144180, symSize: 0x0 }
  - { offsetInCU: 0x39AF6, offset: 0x64BB8, size: 0x8, addend: 0x0, symName: _.str.216, symObjAddr: 0x10F9A0, symBinAddr: 0x1001441A0, symSize: 0x0 }
  - { offsetInCU: 0x39B08, offset: 0x64BCA, size: 0x8, addend: 0x0, symName: _.str.217, symObjAddr: 0x10F9C0, symBinAddr: 0x1001441C0, symSize: 0x0 }
  - { offsetInCU: 0x39B1A, offset: 0x64BDC, size: 0x8, addend: 0x0, symName: _.str.218, symObjAddr: 0x10F9E0, symBinAddr: 0x1001441E0, symSize: 0x0 }
  - { offsetInCU: 0x39B2C, offset: 0x64BEE, size: 0x8, addend: 0x0, symName: _.str.219, symObjAddr: 0x10FA00, symBinAddr: 0x100144200, symSize: 0x0 }
  - { offsetInCU: 0x39B3E, offset: 0x64C00, size: 0x8, addend: 0x0, symName: _.str.220, symObjAddr: 0x10FA20, symBinAddr: 0x100144220, symSize: 0x0 }
  - { offsetInCU: 0x39B50, offset: 0x64C12, size: 0x8, addend: 0x0, symName: _.str.221, symObjAddr: 0x10FA40, symBinAddr: 0x100144240, symSize: 0x0 }
  - { offsetInCU: 0x39B62, offset: 0x64C24, size: 0x8, addend: 0x0, symName: _.str.222, symObjAddr: 0x10FA60, symBinAddr: 0x100144260, symSize: 0x0 }
  - { offsetInCU: 0x39B74, offset: 0x64C36, size: 0x8, addend: 0x0, symName: _.str.223, symObjAddr: 0x10FA80, symBinAddr: 0x100144280, symSize: 0x0 }
  - { offsetInCU: 0x39B86, offset: 0x64C48, size: 0x8, addend: 0x0, symName: _.str.224, symObjAddr: 0x10FAA0, symBinAddr: 0x1001442A0, symSize: 0x0 }
  - { offsetInCU: 0x39B98, offset: 0x64C5A, size: 0x8, addend: 0x0, symName: _.str.225, symObjAddr: 0x10FAC0, symBinAddr: 0x1001442C0, symSize: 0x0 }
  - { offsetInCU: 0x39BAA, offset: 0x64C6C, size: 0x8, addend: 0x0, symName: _.str.226, symObjAddr: 0x10FAE0, symBinAddr: 0x1001442E0, symSize: 0x0 }
  - { offsetInCU: 0x39BBC, offset: 0x64C7E, size: 0x8, addend: 0x0, symName: _.str.227, symObjAddr: 0x10FB00, symBinAddr: 0x100144300, symSize: 0x0 }
  - { offsetInCU: 0x39BCE, offset: 0x64C90, size: 0x8, addend: 0x0, symName: _.str.228, symObjAddr: 0x10FB20, symBinAddr: 0x100144320, symSize: 0x0 }
  - { offsetInCU: 0x39BE0, offset: 0x64CA2, size: 0x8, addend: 0x0, symName: _.str.229, symObjAddr: 0x10FB40, symBinAddr: 0x100144340, symSize: 0x0 }
  - { offsetInCU: 0x39BF2, offset: 0x64CB4, size: 0x8, addend: 0x0, symName: _.str.230, symObjAddr: 0x10FB80, symBinAddr: 0x100144380, symSize: 0x0 }
  - { offsetInCU: 0x39C04, offset: 0x64CC6, size: 0x8, addend: 0x0, symName: _.str.231, symObjAddr: 0x10FBA0, symBinAddr: 0x1001443A0, symSize: 0x0 }
  - { offsetInCU: 0x39C16, offset: 0x64CD8, size: 0x8, addend: 0x0, symName: _.str.232, symObjAddr: 0x10FBE0, symBinAddr: 0x1001443E0, symSize: 0x0 }
  - { offsetInCU: 0x39C28, offset: 0x64CEA, size: 0x8, addend: 0x0, symName: _.str.233, symObjAddr: 0x10FC00, symBinAddr: 0x100144400, symSize: 0x0 }
  - { offsetInCU: 0x39C3A, offset: 0x64CFC, size: 0x8, addend: 0x0, symName: _.str.234, symObjAddr: 0x10FC20, symBinAddr: 0x100144420, symSize: 0x0 }
  - { offsetInCU: 0x39C4C, offset: 0x64D0E, size: 0x8, addend: 0x0, symName: _.str.235, symObjAddr: 0x10FC40, symBinAddr: 0x100144440, symSize: 0x0 }
  - { offsetInCU: 0x39C5E, offset: 0x64D20, size: 0x8, addend: 0x0, symName: _.str.236, symObjAddr: 0x10FC60, symBinAddr: 0x100144460, symSize: 0x0 }
  - { offsetInCU: 0x39C70, offset: 0x64D32, size: 0x8, addend: 0x0, symName: _.str.237, symObjAddr: 0x10FC80, symBinAddr: 0x100144480, symSize: 0x0 }
  - { offsetInCU: 0x39C82, offset: 0x64D44, size: 0x8, addend: 0x0, symName: _.str.238, symObjAddr: 0x10FCA0, symBinAddr: 0x1001444A0, symSize: 0x0 }
  - { offsetInCU: 0x39C94, offset: 0x64D56, size: 0x8, addend: 0x0, symName: _.str.239, symObjAddr: 0x10FCC0, symBinAddr: 0x1001444C0, symSize: 0x0 }
  - { offsetInCU: 0x39CA6, offset: 0x64D68, size: 0x8, addend: 0x0, symName: _.str.240, symObjAddr: 0x10FCE0, symBinAddr: 0x1001444E0, symSize: 0x0 }
  - { offsetInCU: 0x39CB8, offset: 0x64D7A, size: 0x8, addend: 0x0, symName: _.str.241, symObjAddr: 0x10FD00, symBinAddr: 0x100144500, symSize: 0x0 }
  - { offsetInCU: 0x39CCA, offset: 0x64D8C, size: 0x8, addend: 0x0, symName: _.str.242, symObjAddr: 0x10FD20, symBinAddr: 0x100144520, symSize: 0x0 }
  - { offsetInCU: 0x39CDC, offset: 0x64D9E, size: 0x8, addend: 0x0, symName: _.str.243, symObjAddr: 0x10FD40, symBinAddr: 0x100144540, symSize: 0x0 }
  - { offsetInCU: 0x39CEE, offset: 0x64DB0, size: 0x8, addend: 0x0, symName: _.str.244, symObjAddr: 0x10FD60, symBinAddr: 0x100144560, symSize: 0x0 }
  - { offsetInCU: 0x39D00, offset: 0x64DC2, size: 0x8, addend: 0x0, symName: _.str.245, symObjAddr: 0x10FD80, symBinAddr: 0x100144580, symSize: 0x0 }
  - { offsetInCU: 0x39D12, offset: 0x64DD4, size: 0x8, addend: 0x0, symName: _.str.246, symObjAddr: 0x10FDA0, symBinAddr: 0x1001445A0, symSize: 0x0 }
  - { offsetInCU: 0x39D24, offset: 0x64DE6, size: 0x8, addend: 0x0, symName: _.str.247, symObjAddr: 0x10FDC0, symBinAddr: 0x1001445C0, symSize: 0x0 }
  - { offsetInCU: 0x39D36, offset: 0x64DF8, size: 0x8, addend: 0x0, symName: _.str.248, symObjAddr: 0x10FDE0, symBinAddr: 0x1001445E0, symSize: 0x0 }
  - { offsetInCU: 0x39D48, offset: 0x64E0A, size: 0x8, addend: 0x0, symName: _.str.249, symObjAddr: 0x10FE00, symBinAddr: 0x100144600, symSize: 0x0 }
  - { offsetInCU: 0x39D5A, offset: 0x64E1C, size: 0x8, addend: 0x0, symName: _.str.250, symObjAddr: 0x10FE20, symBinAddr: 0x100144620, symSize: 0x0 }
  - { offsetInCU: 0x39D78, offset: 0x64E3A, size: 0x8, addend: 0x0, symName: _.str.251, symObjAddr: 0x10FE60, symBinAddr: 0x100144660, symSize: 0x0 }
  - { offsetInCU: 0x39D8A, offset: 0x64E4C, size: 0x8, addend: 0x0, symName: _.str.252, symObjAddr: 0x10FE80, symBinAddr: 0x100144680, symSize: 0x0 }
  - { offsetInCU: 0x39D9C, offset: 0x64E5E, size: 0x8, addend: 0x0, symName: _.str.253, symObjAddr: 0x10FEC0, symBinAddr: 0x1001446C0, symSize: 0x0 }
  - { offsetInCU: 0x39DAE, offset: 0x64E70, size: 0x8, addend: 0x0, symName: _.str.254, symObjAddr: 0x10FEE0, symBinAddr: 0x1001446E0, symSize: 0x0 }
  - { offsetInCU: 0x39DCC, offset: 0x64E8E, size: 0x8, addend: 0x0, symName: _.str.255, symObjAddr: 0x10FF00, symBinAddr: 0x100144700, symSize: 0x0 }
  - { offsetInCU: 0x39DDE, offset: 0x64EA0, size: 0x8, addend: 0x0, symName: _.str.256, symObjAddr: 0x10FF20, symBinAddr: 0x100144720, symSize: 0x0 }
  - { offsetInCU: 0x39DF0, offset: 0x64EB2, size: 0x8, addend: 0x0, symName: _.str.257, symObjAddr: 0x10FF40, symBinAddr: 0x100144740, symSize: 0x0 }
  - { offsetInCU: 0x39E02, offset: 0x64EC4, size: 0x8, addend: 0x0, symName: _.str.258, symObjAddr: 0x10FF60, symBinAddr: 0x100144760, symSize: 0x0 }
  - { offsetInCU: 0x39E14, offset: 0x64ED6, size: 0x8, addend: 0x0, symName: _.str.259, symObjAddr: 0x10FF80, symBinAddr: 0x100144780, symSize: 0x0 }
  - { offsetInCU: 0x39E26, offset: 0x64EE8, size: 0x8, addend: 0x0, symName: _.str.260, symObjAddr: 0x10FFA0, symBinAddr: 0x1001447A0, symSize: 0x0 }
  - { offsetInCU: 0x39E38, offset: 0x64EFA, size: 0x8, addend: 0x0, symName: _.str.261, symObjAddr: 0x10FFC0, symBinAddr: 0x1001447C0, symSize: 0x0 }
  - { offsetInCU: 0x39E4A, offset: 0x64F0C, size: 0x8, addend: 0x0, symName: _.str.262, symObjAddr: 0x10FFE0, symBinAddr: 0x1001447E0, symSize: 0x0 }
  - { offsetInCU: 0x39E5C, offset: 0x64F1E, size: 0x8, addend: 0x0, symName: _.str.263, symObjAddr: 0x110000, symBinAddr: 0x100144800, symSize: 0x0 }
  - { offsetInCU: 0x39E6E, offset: 0x64F30, size: 0x8, addend: 0x0, symName: _.str.264, symObjAddr: 0x110020, symBinAddr: 0x100144820, symSize: 0x0 }
  - { offsetInCU: 0x39E80, offset: 0x64F42, size: 0x8, addend: 0x0, symName: _.str.265, symObjAddr: 0x110040, symBinAddr: 0x100144840, symSize: 0x0 }
  - { offsetInCU: 0x39E92, offset: 0x64F54, size: 0x8, addend: 0x0, symName: _.str.266, symObjAddr: 0x110060, symBinAddr: 0x100144860, symSize: 0x0 }
  - { offsetInCU: 0x39EA4, offset: 0x64F66, size: 0x8, addend: 0x0, symName: _.str.267, symObjAddr: 0x110080, symBinAddr: 0x100144880, symSize: 0x0 }
  - { offsetInCU: 0x39EB6, offset: 0x64F78, size: 0x8, addend: 0x0, symName: _.str.268, symObjAddr: 0x1100A0, symBinAddr: 0x1001448A0, symSize: 0x0 }
  - { offsetInCU: 0x39EC8, offset: 0x64F8A, size: 0x8, addend: 0x0, symName: _.str.269, symObjAddr: 0x1100C0, symBinAddr: 0x1001448C0, symSize: 0x0 }
  - { offsetInCU: 0x39EDA, offset: 0x64F9C, size: 0x8, addend: 0x0, symName: _.str.270, symObjAddr: 0x1100E0, symBinAddr: 0x1001448E0, symSize: 0x0 }
  - { offsetInCU: 0x39EEC, offset: 0x64FAE, size: 0x8, addend: 0x0, symName: _.str.271, symObjAddr: 0x110100, symBinAddr: 0x100144900, symSize: 0x0 }
  - { offsetInCU: 0x39EFE, offset: 0x64FC0, size: 0x8, addend: 0x0, symName: _.str.272, symObjAddr: 0x110120, symBinAddr: 0x100144920, symSize: 0x0 }
  - { offsetInCU: 0x39F10, offset: 0x64FD2, size: 0x8, addend: 0x0, symName: _.str.273, symObjAddr: 0x110140, symBinAddr: 0x100144940, symSize: 0x0 }
  - { offsetInCU: 0x39F22, offset: 0x64FE4, size: 0x8, addend: 0x0, symName: _.str.274, symObjAddr: 0x110160, symBinAddr: 0x100144960, symSize: 0x0 }
  - { offsetInCU: 0x39F34, offset: 0x64FF6, size: 0x8, addend: 0x0, symName: _.str.275, symObjAddr: 0x110180, symBinAddr: 0x100144980, symSize: 0x0 }
  - { offsetInCU: 0x39F52, offset: 0x65014, size: 0x8, addend: 0x0, symName: ___func__._ZN5boost13re_detail_50018basic_regex_parserIcNS_12regex_traitsIcNS_16cpp_regex_traitsIcEEEEE13parse_backrefEv, symObjAddr: 0x1101A0, symBinAddr: 0x1001449A0, symSize: 0x0 }
  - { offsetInCU: 0x39F64, offset: 0x65026, size: 0x8, addend: 0x0, symName: _.str.276, symObjAddr: 0x1101C0, symBinAddr: 0x1001449C0, symSize: 0x0 }
  - { offsetInCU: 0x39F76, offset: 0x65038, size: 0x8, addend: 0x0, symName: _.str.277, symObjAddr: 0x110200, symBinAddr: 0x100144A00, symSize: 0x0 }
  - { offsetInCU: 0x39F88, offset: 0x6504A, size: 0x8, addend: 0x0, symName: _.str.278, symObjAddr: 0x110240, symBinAddr: 0x100144A40, symSize: 0x0 }
  - { offsetInCU: 0x39F92, offset: 0x65054, size: 0x8, addend: 0x0, symName: __ZN5boost13re_detail_50018basic_regex_parserIcNS_12regex_traitsIcNS_16cpp_regex_traitsIcEEEEE18parse_repeat_rangeEb, symObjAddr: 0x4E3D0, symBinAddr: 0x10006811C, symSize: 0x2A28 }
  - { offsetInCU: 0x39FB9, offset: 0x6507B, size: 0x8, addend: 0x0, symName: __ZZN5boost13re_detail_50018basic_regex_parserIcNS_12regex_traitsIcNS_16cpp_regex_traitsIcEEEEE18parse_repeat_rangeEbE18incomplete_message, symObjAddr: 0x10C840, symBinAddr: 0x10014B0A0, symSize: 0x0 }
  - { offsetInCU: 0x3A019, offset: 0x650DB, size: 0x8, addend: 0x0, symName: _.str.279, symObjAddr: 0x110280, symBinAddr: 0x100144A80, symSize: 0x0 }
  - { offsetInCU: 0x3A023, offset: 0x650E5, size: 0x8, addend: 0x0, symName: __ZN5boost13re_detail_50018basic_regex_parserIcNS_12regex_traitsIcNS_16cpp_regex_traitsIcEEEEE9parse_setEv, symObjAddr: 0x519D8, symBinAddr: 0x10006B724, symSize: 0x108C }
  - { offsetInCU: 0x3A04A, offset: 0x6510C, size: 0x8, addend: 0x0, symName: __ZZN5boost13re_detail_50018basic_regex_parserIcNS_12regex_traitsIcNS_16cpp_regex_traitsIcEEEEE9parse_setEvE18incomplete_message, symObjAddr: 0x10C864, symBinAddr: 0x10014B0C4, symSize: 0x0 }
  - { offsetInCU: 0x3A0D0, offset: 0x65192, size: 0x8, addend: 0x0, symName: __ZN5boost13re_detail_50018basic_regex_parserIcNS_12regex_traitsIcNS_16cpp_regex_traitsIcEEEEE15parse_inner_setERNS0_14basic_char_setIcS5_EE, symObjAddr: 0x98414, symBinAddr: 0x1000B1864, symSize: 0x26B8 }
  - { offsetInCU: 0x3A0F7, offset: 0x651B9, size: 0x8, addend: 0x0, symName: __ZZN5boost13re_detail_50018basic_regex_parserIcNS_12regex_traitsIcNS_16cpp_regex_traitsIcEEEEE15parse_inner_setERNS0_14basic_char_setIcS5_EEE18incomplete_message, symObjAddr: 0x10C8D8, symBinAddr: 0x10014B138, symSize: 0x0 }
  - { offsetInCU: 0x3A1DC, offset: 0x6529E, size: 0x8, addend: 0x0, symName: _.str.280, symObjAddr: 0x110300, symBinAddr: 0x100144B00, symSize: 0x0 }
  - { offsetInCU: 0x3A1F2, offset: 0x652B4, size: 0x8, addend: 0x0, symName: __ZN5boost13re_detail_50018basic_regex_parserIcNS_12regex_traitsIcNS_16cpp_regex_traitsIcEEEEE14add_emacs_codeEb, symObjAddr: 0xA736C, symBinAddr: 0x1000C07BC, symSize: 0x1338 }
  - { offsetInCU: 0x3A219, offset: 0x652DB, size: 0x8, addend: 0x0, symName: __ZZN5boost13re_detail_50018basic_regex_parserIcNS_12regex_traitsIcNS_16cpp_regex_traitsIcEEEEE14add_emacs_codeEbE7s_punct, symObjAddr: 0x10C94E, symBinAddr: 0x10014B1AE, symSize: 0x0 }
  - { offsetInCU: 0x3A25B, offset: 0x6531D, size: 0x8, addend: 0x0, symName: _.str.281, symObjAddr: 0x1103A0, symBinAddr: 0x100144BA0, symSize: 0x0 }
  - { offsetInCU: 0x3A278, offset: 0x6533A, size: 0x8, addend: 0x0, symName: _.str.282, symObjAddr: 0x110420, symBinAddr: 0x100144C20, symSize: 0x0 }
  - { offsetInCU: 0x3A289, offset: 0x6534B, size: 0x8, addend: 0x0, symName: _.str.283, symObjAddr: 0x110480, symBinAddr: 0x100144C80, symSize: 0x0 }
  - { offsetInCU: 0x3A29A, offset: 0x6535C, size: 0x8, addend: 0x0, symName: _.str.284, symObjAddr: 0x1104A0, symBinAddr: 0x100144CA0, symSize: 0x0 }
  - { offsetInCU: 0x3A2AB, offset: 0x6536D, size: 0x8, addend: 0x0, symName: _.str.285, symObjAddr: 0x1104C0, symBinAddr: 0x100144CC0, symSize: 0x0 }
  - { offsetInCU: 0x3A2BD, offset: 0x6537F, size: 0x8, addend: 0x0, symName: _.str.286, symObjAddr: 0x110500, symBinAddr: 0x100144D00, symSize: 0x0 }
  - { offsetInCU: 0x3A2DB, offset: 0x6539D, size: 0x8, addend: 0x0, symName: _.str.287, symObjAddr: 0x110580, symBinAddr: 0x100144D80, symSize: 0x0 }
  - { offsetInCU: 0x3A2F9, offset: 0x653BB, size: 0x8, addend: 0x0, symName: _.str.288, symObjAddr: 0x110620, symBinAddr: 0x100144E20, symSize: 0x0 }
  - { offsetInCU: 0x3A317, offset: 0x653D9, size: 0x8, addend: 0x0, symName: _.str.289, symObjAddr: 0x1106A0, symBinAddr: 0x100144EA0, symSize: 0x0 }
  - { offsetInCU: 0x3A335, offset: 0x653F7, size: 0x8, addend: 0x0, symName: _.str.290, symObjAddr: 0x110720, symBinAddr: 0x100144F20, symSize: 0x0 }
  - { offsetInCU: 0x3A347, offset: 0x65409, size: 0x8, addend: 0x0, symName: ___func__._ZN5boost13re_detail_50019basic_regex_creatorIcNS_12regex_traitsIcNS_16cpp_regex_traitsIcEEEEE18calculate_backstepEPNS0_14re_syntax_baseE, symObjAddr: 0x1107A0, symBinAddr: 0x100144FA0, symSize: 0x0 }
  - { offsetInCU: 0x3A359, offset: 0x6541B, size: 0x8, addend: 0x0, symName: _.str.291, symObjAddr: 0x1107E0, symBinAddr: 0x100144FE0, symSize: 0x0 }
  - { offsetInCU: 0x3A36B, offset: 0x6542D, size: 0x8, addend: 0x0, symName: ___func__._ZN5boost13re_detail_50019basic_regex_creatorIcNS_12regex_traitsIcNS_16cpp_regex_traitsIcEEEEE15create_startmapEPNS0_14re_syntax_baseEPhPjh, symObjAddr: 0x110840, symBinAddr: 0x100145040, symSize: 0x0 }
  - { offsetInCU: 0x3A37D, offset: 0x6543F, size: 0x8, addend: 0x0, symName: _.str.292, symObjAddr: 0x110860, symBinAddr: 0x100145060, symSize: 0x0 }
  - { offsetInCU: 0x3A39B, offset: 0x6545D, size: 0x8, addend: 0x0, symName: _.str.293, symObjAddr: 0x1108E0, symBinAddr: 0x1001450E0, symSize: 0x0 }
  - { offsetInCU: 0x3A3B1, offset: 0x65473, size: 0x8, addend: 0x0, symName: __ZN5boost13re_detail_50019basic_regex_creatorIcNS_12regex_traitsIcNS_16cpp_regex_traitsIcEEEEE13is_bad_repeatEPNS0_14re_syntax_baseE, symObjAddr: 0xBC044, symBinAddr: 0x1000D5494, symSize: 0x1EC }
  - { offsetInCU: 0x3A3D8, offset: 0x6549A, size: 0x8, addend: 0x0, symName: __ZZN5boost13re_detail_50019basic_regex_creatorIcNS_12regex_traitsIcNS_16cpp_regex_traitsIcEEEEE13is_bad_repeatEPNS0_14re_syntax_baseEE3one, symObjAddr: 0x10C998, symBinAddr: 0x10014B1F8, symSize: 0x0 }
  - { offsetInCU: 0x3A420, offset: 0x654E2, size: 0x8, addend: 0x0, symName: __ZN5boost13re_detail_50019basic_regex_creatorIcNS_12regex_traitsIcNS_16cpp_regex_traitsIcEEEEE14set_bad_repeatEPNS0_14re_syntax_baseE, symObjAddr: 0xBC230, symBinAddr: 0x1000D5680, symSize: 0x1AC }
  - { offsetInCU: 0x3A447, offset: 0x65509, size: 0x8, addend: 0x0, symName: __ZZN5boost13re_detail_50019basic_regex_creatorIcNS_12regex_traitsIcNS_16cpp_regex_traitsIcEEEEE14set_bad_repeatEPNS0_14re_syntax_baseEE3one, symObjAddr: 0x10C9A0, symBinAddr: 0x10014B200, symSize: 0x0 }
  - { offsetInCU: 0x3A492, offset: 0x65554, size: 0x8, addend: 0x0, symName: ___func__._ZNK5boost11basic_regexIcNS_12regex_traitsIcNS_16cpp_regex_traitsIcEEEEE10get_traitsEv, symObjAddr: 0x110940, symBinAddr: 0x100145140, symSize: 0x0 }
  - { offsetInCU: 0x3A4A4, offset: 0x65566, size: 0x8, addend: 0x0, symName: _.str.294, symObjAddr: 0x110960, symBinAddr: 0x100145160, symSize: 0x0 }
  - { offsetInCU: 0x3A4B6, offset: 0x65578, size: 0x8, addend: 0x0, symName: _.str.295, symObjAddr: 0x110980, symBinAddr: 0x100145180, symSize: 0x0 }
  - { offsetInCU: 0x3A4C7, offset: 0x65589, size: 0x8, addend: 0x0, symName: _.str.296, symObjAddr: 0x1109C0, symBinAddr: 0x1001451C0, symSize: 0x0 }
  - { offsetInCU: 0x3AA08, offset: 0x65ACA, size: 0x8, addend: 0x0, symName: __ZN5boost13re_detail_50012perl_matcherINSt3__111__wrap_iterIPKcEENS2_9allocatorINS_9sub_matchIS6_EEEENS_12regex_traitsIcNS_16cpp_regex_traitsIcEEEEE24estimate_max_state_countEPNS2_26random_access_iterator_tagE, symObjAddr: 0xC46CC, symBinAddr: 0x1000DDB1C, symSize: 0xC40 }
  - { offsetInCU: 0x3AA2E, offset: 0x65AF0, size: 0x8, addend: 0x0, symName: __ZZN5boost13re_detail_50012perl_matcherINSt3__111__wrap_iterIPKcEENS2_9allocatorINS_9sub_matchIS6_EEEENS_12regex_traitsIcNS_16cpp_regex_traitsIcEEEEE24estimate_max_state_countEPNS2_26random_access_iterator_tagEE1k, symObjAddr: 0x10C9D8, symBinAddr: 0x10014B238, symSize: 0x0 }
  - { offsetInCU: 0x3AA7F, offset: 0x65B41, size: 0x8, addend: 0x0, symName: ___func__._ZNK5boost11basic_regexIcNS_12regex_traitsIcNS_16cpp_regex_traitsIcEEEEE8get_dataEv, symObjAddr: 0x110A20, symBinAddr: 0x100145220, symSize: 0x0 }
  - { offsetInCU: 0x3AA90, offset: 0x65B52, size: 0x8, addend: 0x0, symName: ___func__._ZN5boost13re_detail_50015save_state_initC2EPPNS0_11saved_stateES4_, symObjAddr: 0x110A40, symBinAddr: 0x100145240, symSize: 0x0 }
  - { offsetInCU: 0x3AAA1, offset: 0x65B63, size: 0x8, addend: 0x0, symName: _.str.297, symObjAddr: 0x110A60, symBinAddr: 0x100145260, symSize: 0x0 }
  - { offsetInCU: 0x3AAB2, offset: 0x65B74, size: 0x8, addend: 0x0, symName: _.str.298, symObjAddr: 0x110AA0, symBinAddr: 0x1001452A0, symSize: 0x0 }
  - { offsetInCU: 0x3AB29, offset: 0x65BEB, size: 0x8, addend: 0x0, symName: __ZN5boost13re_detail_50015mem_block_cache8instanceEv, symObjAddr: 0xCA638, symBinAddr: 0x1000E3A88, symSize: 0x84 }
  - { offsetInCU: 0x3AB49, offset: 0x65C0B, size: 0x8, addend: 0x0, symName: __ZZN5boost13re_detail_50015mem_block_cache8instanceEvE11block_cache, symObjAddr: 0x112910, symBinAddr: 0x10018C5C0, symSize: 0x0 }
  - { offsetInCU: 0x3AB60, offset: 0x65C22, size: 0x8, addend: 0x0, symName: _.str.299, symObjAddr: 0x110AC0, symBinAddr: 0x1001452C0, symSize: 0x0 }
  - { offsetInCU: 0x3AB7E, offset: 0x65C40, size: 0x8, addend: 0x0, symName: ___func__._ZNK5boost11basic_regexIcNS_12regex_traitsIcNS_16cpp_regex_traitsIcEEEEE15get_first_stateEv, symObjAddr: 0x110B40, symBinAddr: 0x100145340, symSize: 0x0 }
  - { offsetInCU: 0x3AB90, offset: 0x65C52, size: 0x8, addend: 0x0, symName: ___func__._ZN5boost13match_resultsINSt3__111__wrap_iterIPKcEENS1_9allocatorINS_9sub_matchIS5_EEEEE9set_firstES5_, symObjAddr: 0x110B60, symBinAddr: 0x100145360, symSize: 0x0 }
  - { offsetInCU: 0x3ABA2, offset: 0x65C64, size: 0x8, addend: 0x0, symName: _.str.300, symObjAddr: 0x110B80, symBinAddr: 0x100145380, symSize: 0x0 }
  - { offsetInCU: 0x3ABB4, offset: 0x65C76, size: 0x8, addend: 0x0, symName: _.str.301, symObjAddr: 0x110BC0, symBinAddr: 0x1001453C0, symSize: 0x0 }
  - { offsetInCU: 0x3ABBE, offset: 0x65C80, size: 0x8, addend: 0x0, symName: __ZN5boost13re_detail_50012perl_matcherINSt3__111__wrap_iterIPKcEENS2_9allocatorINS_9sub_matchIS6_EEEENS_12regex_traitsIcNS_16cpp_regex_traitsIcEEEEE16match_all_statesEv, symObjAddr: 0xDCEEC, symBinAddr: 0x1000F633C, symSize: 0x9D4 }
  - { offsetInCU: 0x3ABE4, offset: 0x65CA6, size: 0x8, addend: 0x0, symName: __ZZN5boost13re_detail_50012perl_matcherINSt3__111__wrap_iterIPKcEENS2_9allocatorINS_9sub_matchIS6_EEEENS_12regex_traitsIcNS_16cpp_regex_traitsIcEEEEE16match_all_statesEvE14s_match_vtable, symObjAddr: 0x112000, symBinAddr: 0x100189FC0, symSize: 0x0 }
  - { offsetInCU: 0x3AC71, offset: 0x65D33, size: 0x8, addend: 0x0, symName: ___func__._ZN5boost13re_detail_50012perl_matcherINSt3__111__wrap_iterIPKcEENS2_9allocatorINS_9sub_matchIS6_EEEENS_12regex_traitsIcNS_16cpp_regex_traitsIcEEEEE15match_startmarkEv, symObjAddr: 0x110C00, symBinAddr: 0x100145400, symSize: 0x0 }
  - { offsetInCU: 0x3AC83, offset: 0x65D45, size: 0x8, addend: 0x0, symName: _.str.302, symObjAddr: 0x110C20, symBinAddr: 0x100145420, symSize: 0x0 }
  - { offsetInCU: 0x3ACA1, offset: 0x65D63, size: 0x8, addend: 0x0, symName: _.str.303, symObjAddr: 0x110C60, symBinAddr: 0x100145460, symSize: 0x0 }
  - { offsetInCU: 0x3ACB3, offset: 0x65D75, size: 0x8, addend: 0x0, symName: _.str.304, symObjAddr: 0x110CC0, symBinAddr: 0x1001454C0, symSize: 0x0 }
  - { offsetInCU: 0x3ACC5, offset: 0x65D87, size: 0x8, addend: 0x0, symName: _.str.305, symObjAddr: 0x110CE0, symBinAddr: 0x1001454E0, symSize: 0x0 }
  - { offsetInCU: 0x3ACE3, offset: 0x65DA5, size: 0x8, addend: 0x0, symName: ___func__._ZN5boost13re_detail_50012perl_matcherINSt3__111__wrap_iterIPKcEENS2_9allocatorINS_9sub_matchIS6_EEEENS_12regex_traitsIcNS_16cpp_regex_traitsIcEEEEE11match_matchEv, symObjAddr: 0x110D20, symBinAddr: 0x100145520, symSize: 0x0 }
  - { offsetInCU: 0x3ACF5, offset: 0x65DB7, size: 0x8, addend: 0x0, symName: _.str.306, symObjAddr: 0x110D40, symBinAddr: 0x100145540, symSize: 0x0 }
  - { offsetInCU: 0x3AD07, offset: 0x65DC9, size: 0x8, addend: 0x0, symName: ___func__._ZN5boost13match_resultsINSt3__111__wrap_iterIPKcEENS1_9allocatorINS_9sub_matchIS5_EEEEE10set_secondES5_, symObjAddr: 0x110D80, symBinAddr: 0x100145580, symSize: 0x0 }
  - { offsetInCU: 0x3AD19, offset: 0x65DDB, size: 0x8, addend: 0x0, symName: ___func__._ZN5boost13re_detail_50012perl_matcherINSt3__111__wrap_iterIPKcEENS2_9allocatorINS_9sub_matchIS6_EEEENS_12regex_traitsIcNS_16cpp_regex_traitsIcEEEEE13match_backrefEv, symObjAddr: 0x110DA0, symBinAddr: 0x1001455A0, symSize: 0x0 }
  - { offsetInCU: 0x3AD2B, offset: 0x65DED, size: 0x8, addend: 0x0, symName: _.str.307, symObjAddr: 0x110DC0, symBinAddr: 0x1001455C0, symSize: 0x0 }
  - { offsetInCU: 0x3AD3D, offset: 0x65DFF, size: 0x8, addend: 0x0, symName: _.str.308, symObjAddr: 0x110E00, symBinAddr: 0x100145600, symSize: 0x0 }
  - { offsetInCU: 0x3AD4F, offset: 0x65E11, size: 0x8, addend: 0x0, symName: ___func__._ZN5boost13re_detail_50012perl_matcherINSt3__111__wrap_iterIPKcEENS2_9allocatorINS_9sub_matchIS6_EEEENS_12regex_traitsIcNS_16cpp_regex_traitsIcEEEEE17match_char_repeatEv, symObjAddr: 0x110E40, symBinAddr: 0x100145640, symSize: 0x0 }
  - { offsetInCU: 0x3AD61, offset: 0x65E23, size: 0x8, addend: 0x0, symName: _.str.309, symObjAddr: 0x110E80, symBinAddr: 0x100145680, symSize: 0x0 }
  - { offsetInCU: 0x3AD7F, offset: 0x65E41, size: 0x8, addend: 0x0, symName: ___func__._ZN5boost13re_detail_50012perl_matcherINSt3__111__wrap_iterIPKcEENS2_9allocatorINS_9sub_matchIS6_EEEENS_12regex_traitsIcNS_16cpp_regex_traitsIcEEEEE15match_recursionEv, symObjAddr: 0x110EE0, symBinAddr: 0x1001456E0, symSize: 0x0 }
  - { offsetInCU: 0x3AD91, offset: 0x65E53, size: 0x8, addend: 0x0, symName: _.str.310, symObjAddr: 0x110F00, symBinAddr: 0x100145700, symSize: 0x0 }
  - { offsetInCU: 0x3ADA3, offset: 0x65E65, size: 0x8, addend: 0x0, symName: _.str.311, symObjAddr: 0x110F60, symBinAddr: 0x100145760, symSize: 0x0 }
  - { offsetInCU: 0x3ADB5, offset: 0x65E77, size: 0x8, addend: 0x0, symName: ___func__._ZN5boost13match_resultsINSt3__111__wrap_iterIPKcEENS1_9allocatorINS_9sub_matchIS5_EEEEE12maybe_assignERKSA_, symObjAddr: 0x110FA0, symBinAddr: 0x1001457A0, symSize: 0x0 }
  - { offsetInCU: 0x3ADC7, offset: 0x65E89, size: 0x8, addend: 0x0, symName: _.str.312, symObjAddr: 0x110FC0, symBinAddr: 0x1001457C0, symSize: 0x0 }
  - { offsetInCU: 0x3ADD9, offset: 0x65E9B, size: 0x8, addend: 0x0, symName: _.str.313, symObjAddr: 0x110FE0, symBinAddr: 0x1001457E0, symSize: 0x0 }
  - { offsetInCU: 0x3ADEB, offset: 0x65EAD, size: 0x8, addend: 0x0, symName: _.str.314, symObjAddr: 0x111000, symBinAddr: 0x100145800, symSize: 0x0 }
  - { offsetInCU: 0x3ADFD, offset: 0x65EBF, size: 0x8, addend: 0x0, symName: _.str.315, symObjAddr: 0x111020, symBinAddr: 0x100145820, symSize: 0x0 }
  - { offsetInCU: 0x3AE0F, offset: 0x65ED1, size: 0x8, addend: 0x0, symName: _.str.316, symObjAddr: 0x111040, symBinAddr: 0x100145840, symSize: 0x0 }
  - { offsetInCU: 0x3AE19, offset: 0x65EDB, size: 0x8, addend: 0x0, symName: __ZN5boost13re_detail_50012perl_matcherINSt3__111__wrap_iterIPKcEENS2_9allocatorINS_9sub_matchIS6_EEEENS_12regex_traitsIcNS_16cpp_regex_traitsIcEEEEE6unwindEb, symObjAddr: 0xC9F6C, symBinAddr: 0x1000E33BC, symSize: 0x3C4 }
  - { offsetInCU: 0x3AE41, offset: 0x65F03, size: 0x8, addend: 0x0, symName: __ZZN5boost13re_detail_50012perl_matcherINSt3__111__wrap_iterIPKcEENS2_9allocatorINS_9sub_matchIS6_EEEENS_12regex_traitsIcNS_16cpp_regex_traitsIcEEEEE6unwindEbE14s_unwind_table, symObjAddr: 0x112220, symBinAddr: 0x10018A1E0, symSize: 0x0 }
  - { offsetInCU: 0x3AEBA, offset: 0x65F7C, size: 0x8, addend: 0x0, symName: ___func__._ZN5boost13re_detail_50012perl_matcherINSt3__111__wrap_iterIPKcEENS2_9allocatorINS_9sub_matchIS6_EEEENS_12regex_traitsIcNS_16cpp_regex_traitsIcEEEEE27unwind_greedy_single_repeatEb, symObjAddr: 0x1110C0, symBinAddr: 0x1001458C0, symSize: 0x0 }
  - { offsetInCU: 0x3AECC, offset: 0x65F8E, size: 0x8, addend: 0x0, symName: _.str.317, symObjAddr: 0x111100, symBinAddr: 0x100145900, symSize: 0x0 }
  - { offsetInCU: 0x3AEDE, offset: 0x65FA0, size: 0x8, addend: 0x0, symName: _.str.318, symObjAddr: 0x111140, symBinAddr: 0x100145940, symSize: 0x0 }
  - { offsetInCU: 0x3AEF0, offset: 0x65FB2, size: 0x8, addend: 0x0, symName: _.str.319, symObjAddr: 0x111160, symBinAddr: 0x100145960, symSize: 0x0 }
  - { offsetInCU: 0x3AF02, offset: 0x65FC4, size: 0x8, addend: 0x0, symName: ___func__._ZN5boost13re_detail_50012perl_matcherINSt3__111__wrap_iterIPKcEENS2_9allocatorINS_9sub_matchIS6_EEEENS_12regex_traitsIcNS_16cpp_regex_traitsIcEEEEE22unwind_slow_dot_repeatEb, symObjAddr: 0x111180, symBinAddr: 0x100145980, symSize: 0x0 }
  - { offsetInCU: 0x3AF14, offset: 0x65FD6, size: 0x8, addend: 0x0, symName: _.str.320, symObjAddr: 0x1111C0, symBinAddr: 0x1001459C0, symSize: 0x0 }
  - { offsetInCU: 0x3AF26, offset: 0x65FE8, size: 0x8, addend: 0x0, symName: _.str.321, symObjAddr: 0x111220, symBinAddr: 0x100145A20, symSize: 0x0 }
  - { offsetInCU: 0x3AF38, offset: 0x65FFA, size: 0x8, addend: 0x0, symName: _.str.322, symObjAddr: 0x111280, symBinAddr: 0x100145A80, symSize: 0x0 }
  - { offsetInCU: 0x3AF4A, offset: 0x6600C, size: 0x8, addend: 0x0, symName: ___func__._ZN5boost13re_detail_50012perl_matcherINSt3__111__wrap_iterIPKcEENS2_9allocatorINS_9sub_matchIS6_EEEENS_12regex_traitsIcNS_16cpp_regex_traitsIcEEEEE22unwind_fast_dot_repeatEb, symObjAddr: 0x1112C0, symBinAddr: 0x100145AC0, symSize: 0x0 }
  - { offsetInCU: 0x3AF5C, offset: 0x6601E, size: 0x8, addend: 0x0, symName: ___func__._ZN5boost13re_detail_50012perl_matcherINSt3__111__wrap_iterIPKcEENS2_9allocatorINS_9sub_matchIS6_EEEENS_12regex_traitsIcNS_16cpp_regex_traitsIcEEEEE18unwind_char_repeatEb, symObjAddr: 0x111300, symBinAddr: 0x100145B00, symSize: 0x0 }
  - { offsetInCU: 0x3AF6E, offset: 0x66030, size: 0x8, addend: 0x0, symName: _.str.323, symObjAddr: 0x111340, symBinAddr: 0x100145B40, symSize: 0x0 }
  - { offsetInCU: 0x3AF80, offset: 0x66042, size: 0x8, addend: 0x0, symName: _.str.324, symObjAddr: 0x1113A0, symBinAddr: 0x100145BA0, symSize: 0x0 }
  - { offsetInCU: 0x3AF92, offset: 0x66054, size: 0x8, addend: 0x0, symName: ___func__._ZN5boost13re_detail_50012perl_matcherINSt3__111__wrap_iterIPKcEENS2_9allocatorINS_9sub_matchIS6_EEEENS_12regex_traitsIcNS_16cpp_regex_traitsIcEEEEE23unwind_short_set_repeatEb, symObjAddr: 0x111400, symBinAddr: 0x100145C00, symSize: 0x0 }
  - { offsetInCU: 0x3AFA4, offset: 0x66066, size: 0x8, addend: 0x0, symName: _.str.325, symObjAddr: 0x111440, symBinAddr: 0x100145C40, symSize: 0x0 }
  - { offsetInCU: 0x3AFB6, offset: 0x66078, size: 0x8, addend: 0x0, symName: _.str.326, symObjAddr: 0x1114A0, symBinAddr: 0x100145CA0, symSize: 0x0 }
  - { offsetInCU: 0x3AFC8, offset: 0x6608A, size: 0x8, addend: 0x0, symName: ___func__._ZN5boost13re_detail_50012perl_matcherINSt3__111__wrap_iterIPKcEENS2_9allocatorINS_9sub_matchIS6_EEEENS_12regex_traitsIcNS_16cpp_regex_traitsIcEEEEE22unwind_long_set_repeatEb, symObjAddr: 0x111500, symBinAddr: 0x100145D00, symSize: 0x0 }
  - { offsetInCU: 0x3AFDA, offset: 0x6609C, size: 0x8, addend: 0x0, symName: _.str.327, symObjAddr: 0x111540, symBinAddr: 0x100145D40, symSize: 0x0 }
  - { offsetInCU: 0x3B384, offset: 0x66446, size: 0x8, addend: 0x0, symName: __ZNK5boost13re_detail_50031cpp_regex_traits_implementationIcE9transformEPKcS4_, symObjAddr: 0x275E0, symBinAddr: 0x100041B9C, symSize: 0xC60 }
  - { offsetInCU: 0x3B4EE, offset: 0x665B0, size: 0x8, addend: 0x0, symName: __ZNSt3__16vectorIN5boost13re_detail_50020named_subexpressions4nameENS_9allocatorIS4_EEE26__swap_out_circular_bufferERNS_14__split_bufferIS4_RS6_EE, symObjAddr: 0x67F78, symBinAddr: 0x1000819D4, symSize: 0x56C }
  - { offsetInCU: 0x3B547, offset: 0x66609, size: 0x8, addend: 0x0, symName: __ZNSt3__16vectorINS_4pairImmEENS_9allocatorIS2_EEE26__swap_out_circular_bufferERNS_14__split_bufferIS2_RS4_EE, symObjAddr: 0x704C0, symBinAddr: 0x100089D08, symSize: 0x56C }
  - { offsetInCU: 0x3B5DC, offset: 0x6669E, size: 0x8, addend: 0x0, symName: __ZN5boost13re_detail_50019basic_regex_creatorIcNS_12regex_traitsIcNS_16cpp_regex_traitsIcEEEEE10append_setERKNS0_14basic_char_setIcS5_EE, symObjAddr: 0x747E0, symBinAddr: 0x10008DF00, symSize: 0x6C }
  - { offsetInCU: 0x3B632, offset: 0x666F4, size: 0x8, addend: 0x0, symName: __ZNSt3__16vectorIlNS_9allocatorIlEEE26__swap_out_circular_bufferERNS_14__split_bufferIlRS2_EE, symObjAddr: 0x92240, symBinAddr: 0x1000AB690, symSize: 0x56C }
  - { offsetInCU: 0x3B68B, offset: 0x6674D, size: 0x8, addend: 0x0, symName: __ZNSt3__16vectorIN5boost13re_detail_5007digraphIcEENS_9allocatorIS4_EEE26__swap_out_circular_bufferERNS_14__split_bufferIS4_RS6_EE, symObjAddr: 0x9E8A4, symBinAddr: 0x1000B7CF4, symSize: 0x56C }
  - { offsetInCU: 0x3B8B5, offset: 0x66977, size: 0x8, addend: 0x0, symName: __ZNSt3__16vectorINS_4pairIbPN5boost13re_detail_50014re_syntax_baseEEENS_9allocatorIS6_EEE26__swap_out_circular_bufferERNS_14__split_bufferIS6_RS8_EE, symObjAddr: 0xB3EE8, symBinAddr: 0x1000CD338, symSize: 0x56C }
  - { offsetInCU: 0x3B972, offset: 0x66A34, size: 0x8, addend: 0x0, symName: __ZN5boost13re_detail_50012perl_matcherINSt3__111__wrap_iterIPKcEENS2_9allocatorINS_9sub_matchIS6_EEEENS_12regex_traitsIcNS_16cpp_regex_traitsIcEEEEE14construct_initERKNS_11basic_regexIcSE_EENS_15regex_constants12_match_flagsE, symObjAddr: 0xC3284, symBinAddr: 0x1000DC6D4, symSize: 0xA18 }
  - { offsetInCU: 0x3BA28, offset: 0x66AEA, size: 0x8, addend: 0x0, symName: __ZNSt3__16vectorIN5boost9sub_matchINS_11__wrap_iterIPKcEEEENS_9allocatorIS7_EEE26__swap_out_circular_bufferERNS_14__split_bufferIS7_RS9_EEPS7_, symObjAddr: 0xD1F58, symBinAddr: 0x1000EB3A8, symSize: 0x678 }
  - { offsetInCU: 0x3BB9B, offset: 0x66C5D, size: 0x8, addend: 0x0, symName: __ZNSt3__16vectorIN5boost13re_detail_50014recursion_infoINS1_13match_resultsINS_11__wrap_iterIPKcEENS_9allocatorINS1_9sub_matchIS8_EEEEEEEENS9_ISE_EEE26__swap_out_circular_bufferERNS_14__split_bufferISE_RSF_EE, symObjAddr: 0xFB4F8, symBinAddr: 0x100114948, symSize: 0x56C }
  - { offsetInCU: 0x3DAC7, offset: 0x68B89, size: 0x8, addend: 0x0, symName: __Z11prepareFileNSt3__112basic_stringIcNS_11char_traitsIcEENS_9allocatorIcEEEE, symObjAddr: 0x0, symBinAddr: 0x1000218C4, symSize: 0x4EC }
  - { offsetInCU: 0x3DAF5, offset: 0x68BB7, size: 0x8, addend: 0x0, symName: __Z14removeCommentsNSt3__112basic_stringIcNS_11char_traitsIcEENS_9allocatorIcEEEE, symObjAddr: 0x4EC, symBinAddr: 0x100021DB0, symSize: 0xAA8 }
  - { offsetInCU: 0x3DBED, offset: 0x68CAF, size: 0x8, addend: 0x0, symName: __Z9normalizeNSt3__112basic_stringIcNS_11char_traitsIcEENS_9allocatorIcEEEE, symObjAddr: 0xFC8, symBinAddr: 0x100022858, symSize: 0x7A8 }
  - { offsetInCU: 0x3DCAA, offset: 0x68D6C, size: 0x8, addend: 0x0, symName: __Z16removeEmptyLinesNSt3__112basic_stringIcNS_11char_traitsIcEENS_9allocatorIcEEEE, symObjAddr: 0x1770, symBinAddr: 0x100023000, symSize: 0x6E4 }
  - { offsetInCU: 0x3DD53, offset: 0x68E15, size: 0x8, addend: 0x0, symName: __ZNSt3__112basic_stringIcNS_11char_traitsIcEENS_9allocatorIcEEEpLB8ue170006ERKS5_, symObjAddr: 0x270C, symBinAddr: 0x1000239CC, symSize: 0x2C }
  - { offsetInCU: 0x3DD88, offset: 0x68E4A, size: 0x8, addend: 0x0, symName: __ZNKSt3__112basic_stringIcNS_11char_traitsIcEENS_9allocatorIcEEE4findB8ue170006EPKcm, symObjAddr: 0x27CC, symBinAddr: 0x1000239F8, symSize: 0x74 }
  - { offsetInCU: 0x3DDCE, offset: 0x68E90, size: 0x8, addend: 0x0, symName: __ZNKSt3__112basic_stringIcNS_11char_traitsIcEENS_9allocatorIcEEE5emptyB8ue170006Ev, symObjAddr: 0x2B38, symBinAddr: 0x100023A6C, symSize: 0x30 }
  - { offsetInCU: 0x3DDF3, offset: 0x68EB5, size: 0x8, addend: 0x0, symName: __Z28identifyArithmeticExpressionNSt3__112basic_stringIcNS_11char_traitsIcEENS_9allocatorIcEEEE, symObjAddr: 0x2B68, symBinAddr: 0x100023A9C, symSize: 0x2A4 }
  - { offsetInCU: 0x3DE34, offset: 0x68EF6, size: 0x8, addend: 0x0, symName: __ZN5boost11basic_regexIcNS_12regex_traitsIcNS_16cpp_regex_traitsIcEEEEEC1EPKcj, symObjAddr: 0x2E0C, symBinAddr: 0x100023D40, symSize: 0x3C }
  - { offsetInCU: 0x3DE7C, offset: 0x68F3E, size: 0x8, addend: 0x0, symName: __ZN5boost11basic_regexIcNS_12regex_traitsIcNS_16cpp_regex_traitsIcEEEEED1Ev, symObjAddr: 0x3318, symBinAddr: 0x10002424C, symSize: 0x2C }
  - { offsetInCU: 0x3DEA5, offset: 0x68F67, size: 0x8, addend: 0x0, symName: __Z14extractVarNameNSt3__112basic_stringIcNS_11char_traitsIcEENS_9allocatorIcEEEE, symObjAddr: 0x3344, symBinAddr: 0x100024278, symSize: 0x4A0 }
  - { offsetInCU: 0x3DEF6, offset: 0x68FB8, size: 0x8, addend: 0x0, symName: __ZNSt3__16vectorINS_12basic_stringIcNS_11char_traitsIcEENS_9allocatorIcEEEENS4_IS6_EEEixB8ue170006Em, symObjAddr: 0x3B80, symBinAddr: 0x100024A04, symSize: 0x74 }
  - { offsetInCU: 0x3DF2C, offset: 0x68FEE, size: 0x8, addend: 0x0, symName: __Z15extractVarValueNSt3__112basic_stringIcNS_11char_traitsIcEENS_9allocatorIcEEEE, symObjAddr: 0x3BF4, symBinAddr: 0x100024A78, symSize: 0x464 }
  - { offsetInCU: 0x3E0E7, offset: 0x691A9, size: 0x8, addend: 0x0, symName: __ZNSt3__17variantIJidbcNS_12basic_stringIcNS_11char_traitsIcEENS_9allocatorIcEEEEEEC1B8ue170006IRA1_KcLi0ELi0ELi0ES6_Lm4ELi0EEEOT_, symObjAddr: 0x4058, symBinAddr: 0x100024EDC, symSize: 0x34 }
  - { offsetInCU: 0x3E153, offset: 0x69215, size: 0x8, addend: 0x0, symName: __Z9inferTypeNSt3__112basic_stringIcNS_11char_traitsIcEENS_9allocatorIcEEEE, symObjAddr: 0x408C, symBinAddr: 0x100024F10, symSize: 0xA34 }
  - { offsetInCU: 0x3E1EE, offset: 0x692B0, size: 0x8, addend: 0x0, symName: __ZNSt3__17variantIJidbcNS_12basic_stringIcNS_11char_traitsIcEENS_9allocatorIcEEEEEEC1B8ue170006ILb1ELi0EEEv, symObjAddr: 0x4C80, symBinAddr: 0x1000259D8, symSize: 0x2C }
  - { offsetInCU: 0x3E237, offset: 0x692F9, size: 0x8, addend: 0x0, symName: __ZNSt3__116allocator_traitsINS_9allocatorIcEEE37select_on_container_copy_constructionB8ue170006IS2_vvEES2_RKS2_, symObjAddr: 0x5FD0, symBinAddr: 0x100025A04, symSize: 0x10 }
  - { offsetInCU: 0x3E266, offset: 0x69328, size: 0x8, addend: 0x0, symName: __ZNKSt3__112basic_stringIcNS_11char_traitsIcEENS_9allocatorIcEEE13get_allocatorB8ue170006Ev, symObjAddr: 0x5FE0, symBinAddr: 0x100025A14, symSize: 0x24 }
  - { offsetInCU: 0x3E28C, offset: 0x6934E, size: 0x8, addend: 0x0, symName: __ZNSt3__112basic_stringIcNS_11char_traitsIcEENS_9allocatorIcEEEC1B8ue170006ENS_24__uninitialized_size_tagEmRKS4_, symObjAddr: 0x6004, symBinAddr: 0x100025A38, symSize: 0x3C }
  - { offsetInCU: 0x3E2E0, offset: 0x693A2, size: 0x8, addend: 0x0, symName: __ZNSt3__111char_traitsIcE4copyB8ue170006EPcPKcm, symObjAddr: 0x60A8, symBinAddr: 0x100025A74, symSize: 0x4C }
  - { offsetInCU: 0x3E31F, offset: 0x693E1, size: 0x8, addend: 0x0, symName: __ZNSt3__111char_traitsIcE6assignB8ue170006EPcmc, symObjAddr: 0x611C, symBinAddr: 0x100025AC0, symSize: 0x23C }
  - { offsetInCU: 0x3E364, offset: 0x69426, size: 0x8, addend: 0x0, symName: __ZNKSt3__112basic_stringIcNS_11char_traitsIcEENS_9allocatorIcEEE7__allocB8ue170006Ev, symObjAddr: 0x6468, symBinAddr: 0x100025CFC, symSize: 0x24 }
  - { offsetInCU: 0x3E38A, offset: 0x6944C, size: 0x8, addend: 0x0, symName: __ZNKSt3__117__compressed_pairINS_12basic_stringIcNS_11char_traitsIcEENS_9allocatorIcEEE5__repES5_E6secondB8ue170006Ev, symObjAddr: 0x648C, symBinAddr: 0x100025D20, symSize: 0x24 }
  - { offsetInCU: 0x3E3B0, offset: 0x69472, size: 0x8, addend: 0x0, symName: __ZNKSt3__122__compressed_pair_elemINS_9allocatorIcEELi1ELb1EE5__getB8ue170006Ev, symObjAddr: 0x64B0, symBinAddr: 0x100025D44, symSize: 0x14 }
  - { offsetInCU: 0x3E3D6, offset: 0x69498, size: 0x8, addend: 0x0, symName: __ZNSt3__112basic_stringIcNS_11char_traitsIcEENS_9allocatorIcEEEC2B8ue170006ENS_24__uninitialized_size_tagEmRKS4_, symObjAddr: 0x64C4, symBinAddr: 0x100025D58, symSize: 0x324 }
  - { offsetInCU: 0x3E45C, offset: 0x6951E, size: 0x8, addend: 0x0, symName: __ZNSt3__117__compressed_pairINS_12basic_stringIcNS_11char_traitsIcEENS_9allocatorIcEEE5__repES5_EC1B8ue170006INS_18__default_init_tagERKS5_EEOT_OT0_, symObjAddr: 0x67E8, symBinAddr: 0x10002607C, symSize: 0x3C }
  - { offsetInCU: 0x3E4B4, offset: 0x69576, size: 0x8, addend: 0x0, symName: __ZNKSt3__112basic_stringIcNS_11char_traitsIcEENS_9allocatorIcEEE8max_sizeB8ue170006Ev, symObjAddr: 0x6824, symBinAddr: 0x1000260B8, symSize: 0xBC }
  - { offsetInCU: 0x3E506, offset: 0x695C8, size: 0x8, addend: 0x0, symName: __ZNKSt3__112basic_stringIcNS_11char_traitsIcEENS_9allocatorIcEEE20__throw_length_errorB8ue170006Ev, symObjAddr: 0x68E0, symBinAddr: 0x100026174, symSize: 0x20 }
  - { offsetInCU: 0x3E52C, offset: 0x695EE, size: 0x8, addend: 0x0, symName: __ZNSt3__112basic_stringIcNS_11char_traitsIcEENS_9allocatorIcEEE13__fits_in_ssoB8ue170006Em, symObjAddr: 0x6900, symBinAddr: 0x100026194, symSize: 0x20 }
  - { offsetInCU: 0x3E550, offset: 0x69612, size: 0x8, addend: 0x0, symName: __ZNSt3__112basic_stringIcNS_11char_traitsIcEENS_9allocatorIcEEE11__recommendB8ue170006Em, symObjAddr: 0x6920, symBinAddr: 0x1000261B4, symSize: 0x84 }
  - { offsetInCU: 0x3E583, offset: 0x69645, size: 0x8, addend: 0x0, symName: __ZNSt3__116allocator_traitsINS_9allocatorIcEEE8allocateB8ue170006ERS2_m, symObjAddr: 0x69A4, symBinAddr: 0x100026238, symSize: 0x2C }
  - { offsetInCU: 0x3E5B6, offset: 0x69678, size: 0x8, addend: 0x0, symName: __ZNSt3__112basic_stringIcNS_11char_traitsIcEENS_9allocatorIcEEE16__begin_lifetimeB8ue170006EPcm, symObjAddr: 0x69D0, symBinAddr: 0x100026264, symSize: 0x14 }
  - { offsetInCU: 0x3E5E9, offset: 0x696AB, size: 0x8, addend: 0x0, symName: __ZNSt3__112basic_stringIcNS_11char_traitsIcEENS_9allocatorIcEEE14__set_long_capB8ue170006Em, symObjAddr: 0x69E4, symBinAddr: 0x100026278, symSize: 0xEC }
  - { offsetInCU: 0x3E61E, offset: 0x696E0, size: 0x8, addend: 0x0, symName: __ZNSt3__112basic_stringIcNS_11char_traitsIcEENS_9allocatorIcEEE18__set_long_pointerB8ue170006EPc, symObjAddr: 0x6AD0, symBinAddr: 0x100026364, symSize: 0x7C }
  - { offsetInCU: 0x3E653, offset: 0x69715, size: 0x8, addend: 0x0, symName: __ZNSt3__112basic_stringIcNS_11char_traitsIcEENS_9allocatorIcEEE15__set_long_sizeB8ue170006Em, symObjAddr: 0x6B4C, symBinAddr: 0x1000263E0, symSize: 0x80 }
  - { offsetInCU: 0x3E688, offset: 0x6974A, size: 0x8, addend: 0x0, symName: __ZNSt3__117__compressed_pairINS_12basic_stringIcNS_11char_traitsIcEENS_9allocatorIcEEE5__repES5_EC2B8ue170006INS_18__default_init_tagERKS5_EEOT_OT0_, symObjAddr: 0x6BCC, symBinAddr: 0x100026460, symSize: 0x40 }
  - { offsetInCU: 0x3E6E0, offset: 0x697A2, size: 0x8, addend: 0x0, symName: __ZNSt3__122__compressed_pair_elemINS_9allocatorIcEELi1ELb1EEC2B8ue170006IRKS2_vEEOT_, symObjAddr: 0x6C0C, symBinAddr: 0x1000264A0, symSize: 0x18 }
  - { offsetInCU: 0x3E722, offset: 0x697E4, size: 0x8, addend: 0x0, symName: __ZNSt3__116allocator_traitsINS_9allocatorIcEEE8max_sizeB8ue170006IS2_vvEEmRKS2_, symObjAddr: 0x6C24, symBinAddr: 0x1000264B8, symSize: 0x28 }
  - { offsetInCU: 0x3E74E, offset: 0x69810, size: 0x8, addend: 0x0, symName: __ZNSt3__112basic_stringIcNS_11char_traitsIcEENS_9allocatorIcEEE10__align_itB8ue170006ILm16EEEmm, symObjAddr: 0x6D90, symBinAddr: 0x1000264E0, symSize: 0x1C }
  - { offsetInCU: 0x3E77C, offset: 0x6983E, size: 0x8, addend: 0x0, symName: __ZNSt3__19allocatorIcE8allocateB8ue170006Em, symObjAddr: 0x6DAC, symBinAddr: 0x1000264FC, symSize: 0x5C }
  - { offsetInCU: 0x3E7D3, offset: 0x69895, size: 0x8, addend: 0x0, symName: __ZNKSt3__114__copy_trivialclB8ue170006IKccLi0EEENS_4pairIPT_PT0_EES5_S5_S7_, symObjAddr: 0x7DC0, symBinAddr: 0x100027428, symSize: 0x230 }
  - { offsetInCU: 0x3E83F, offset: 0x69901, size: 0x8, addend: 0x0, symName: __ZNSt3__119__unwrap_range_implIPKcS2_E8__unwrapB8ue170006ES2_S2_, symObjAddr: 0x8294, symBinAddr: 0x1000278FC, symSize: 0x30C }
  - { offsetInCU: 0x3E877, offset: 0x69939, size: 0x8, addend: 0x0, symName: __ZNSt3__14pairIPKcS2_EC1B8ue170006IS2_S2_LPv0EEEOT_OT0_, symObjAddr: 0x85C4, symBinAddr: 0x100027C2C, symSize: 0x3C }
  - { offsetInCU: 0x3E8D5, offset: 0x69997, size: 0x8, addend: 0x0, symName: __ZNSt3__118__unwrap_iter_implIPKcLb1EE8__unwrapB8ue170006ES2_, symObjAddr: 0x8600, symBinAddr: 0x100027C68, symSize: 0x24 }
  - { offsetInCU: 0x3E8F8, offset: 0x699BA, size: 0x8, addend: 0x0, symName: __ZNSt3__14pairIPKcS2_EC2B8ue170006IS2_S2_LPv0EEEOT_OT0_, symObjAddr: 0x8638, symBinAddr: 0x100027C8C, symSize: 0x138 }
  - { offsetInCU: 0x3E95B, offset: 0x69A1D, size: 0x8, addend: 0x0, symName: __ZNSt3__14pairIPKcPcEC1B8ue170006IRS2_S3_LPv0EEEOT_OT0_, symObjAddr: 0x8D8C, symBinAddr: 0x1000283E0, symSize: 0x3C }
  - { offsetInCU: 0x3E9B9, offset: 0x69A7B, size: 0x8, addend: 0x0, symName: __ZNSt3__14pairIPKcPcEC2B8ue170006IRS2_S3_LPv0EEEOT_OT0_, symObjAddr: 0x8DC8, symBinAddr: 0x10002841C, symSize: 0x138 }
  - { offsetInCU: 0x3EA17, offset: 0x69AD9, size: 0x8, addend: 0x0, symName: __ZNSt3__118__unwrap_iter_implIPcLb1EE8__unwrapB8ue170006ES1_, symObjAddr: 0x8F00, symBinAddr: 0x100028554, symSize: 0x24 }
  - { offsetInCU: 0x3EA3A, offset: 0x69AFC, size: 0x8, addend: 0x0, symName: __ZNSt3__14pairIPKcPcEC1B8ue170006IS2_S3_LPv0EEEOT_OT0_, symObjAddr: 0x8F24, symBinAddr: 0x100028578, symSize: 0x3C }
  - { offsetInCU: 0x3EA98, offset: 0x69B5A, size: 0x8, addend: 0x0, symName: __ZNSt3__14pairIPKcPcEC2B8ue170006IS2_S3_LPv0EEEOT_OT0_, symObjAddr: 0x8F60, symBinAddr: 0x1000285B4, symSize: 0x138 }
  - { offsetInCU: 0x3EAF6, offset: 0x69BB8, size: 0x8, addend: 0x0, symName: __ZNSt3__119__unwrap_range_implIPKcS2_E8__rewrapB8ue170006ES2_S2_, symObjAddr: 0x9098, symBinAddr: 0x1000286EC, symSize: 0x2C }
  - { offsetInCU: 0x3EB27, offset: 0x69BE9, size: 0x8, addend: 0x0, symName: __ZNSt3__118__unwrap_iter_implIPKcLb1EE8__rewrapB8ue170006ES2_S2_, symObjAddr: 0x910C, symBinAddr: 0x100028760, symSize: 0x48 }
  - { offsetInCU: 0x3EB58, offset: 0x69C1A, size: 0x8, addend: 0x0, symName: __ZNSt3__118__unwrap_iter_implIPcLb1EE8__rewrapB8ue170006ES1_S1_, symObjAddr: 0x9154, symBinAddr: 0x1000287A8, symSize: 0x48 }
  - { offsetInCU: 0x3EB89, offset: 0x69C4B, size: 0x8, addend: 0x0, symName: __ZNSt3__112basic_stringIcNS_11char_traitsIcEENS_9allocatorIcEEE6appendB8ue170006ERKS5_, symObjAddr: 0x9428, symBinAddr: 0x100028980, symSize: 0x4C }
  - { offsetInCU: 0x3EBBE, offset: 0x69C80, size: 0x8, addend: 0x0, symName: __ZNKSt3__112basic_stringIcNS_11char_traitsIcEENS_9allocatorIcEEEcvNS_17basic_string_viewIcS2_EEB8ue170006Ev, symObjAddr: 0xAF60, symBinAddr: 0x100028D14, symSize: 0x228 }
  - { offsetInCU: 0x3EBEF, offset: 0x69CB1, size: 0x8, addend: 0x0, symName: __ZNSt3__17variantIJidbcNS_12basic_stringIcNS_11char_traitsIcEENS_9allocatorIcEEEEEEC2B8ue170006IRA1_KcLi0ELi0ELi0ES6_Lm4ELi0EEEOT_, symObjAddr: 0xBB64, symBinAddr: 0x100028F3C, symSize: 0x34 }
  - { offsetInCU: 0x3EC5C, offset: 0x69D1E, size: 0x8, addend: 0x0, symName: __ZNSt3__116__variant_detail6__implIJidbcNS_12basic_stringIcNS_11char_traitsIcEENS_9allocatorIcEEEEEECI1NS0_6__baseILNS0_6_TraitE1EJidbcS7_EEEILm4EJRA1_KcEEENS_16in_place_index_tIXT_EEEDpOT0_, symObjAddr: 0xBB98, symBinAddr: 0x100028F70, symSize: 0x34 }
  - { offsetInCU: 0x3EC9B, offset: 0x69D5D, size: 0x8, addend: 0x0, symName: __ZNSt3__116__variant_detail6__implIJidbcNS_12basic_stringIcNS_11char_traitsIcEENS_9allocatorIcEEEEEECI2NS0_6__baseILNS0_6_TraitE1EJidbcS7_EEEILm4EJRA1_KcEEENS_16in_place_index_tIXT_EEEDpOT0_, symObjAddr: 0xBBCC, symBinAddr: 0x100028FA4, symSize: 0x34 }
  - { offsetInCU: 0x3ECDA, offset: 0x69D9C, size: 0x8, addend: 0x0, symName: __ZNSt3__116__variant_detail17__copy_assignmentINS0_8__traitsIJidbcNS_12basic_stringIcNS_11char_traitsIcEENS_9allocatorIcEEEEEEELNS0_6_TraitE1EECI2NS0_6__baseILSA_1EJidbcS8_EEEILm4EJRA1_KcEEENS_16in_place_index_tIXT_EEEDpOT0_, symObjAddr: 0xBC00, symBinAddr: 0x100028FD8, symSize: 0x34 }
  - { offsetInCU: 0x3ED19, offset: 0x69DDB, size: 0x8, addend: 0x0, symName: __ZNSt3__116__variant_detail17__move_assignmentINS0_8__traitsIJidbcNS_12basic_stringIcNS_11char_traitsIcEENS_9allocatorIcEEEEEEELNS0_6_TraitE1EECI2NS0_6__baseILSA_1EJidbcS8_EEEILm4EJRA1_KcEEENS_16in_place_index_tIXT_EEEDpOT0_, symObjAddr: 0xBC34, symBinAddr: 0x10002900C, symSize: 0x34 }
  - { offsetInCU: 0x3ED5D, offset: 0x69E1F, size: 0x8, addend: 0x0, symName: __ZNSt3__116__variant_detail12__assignmentINS0_8__traitsIJidbcNS_12basic_stringIcNS_11char_traitsIcEENS_9allocatorIcEEEEEEEECI2NS0_6__baseILNS0_6_TraitE1EJidbcS8_EEEILm4EJRA1_KcEEENS_16in_place_index_tIXT_EEEDpOT0_, symObjAddr: 0xBC68, symBinAddr: 0x100029040, symSize: 0x34 }
  - { offsetInCU: 0x3ED9C, offset: 0x69E5E, size: 0x8, addend: 0x0, symName: __ZNSt3__116__variant_detail18__copy_constructorINS0_8__traitsIJidbcNS_12basic_stringIcNS_11char_traitsIcEENS_9allocatorIcEEEEEEELNS0_6_TraitE1EECI2NS0_6__baseILSA_1EJidbcS8_EEEILm4EJRA1_KcEEENS_16in_place_index_tIXT_EEEDpOT0_, symObjAddr: 0xBC9C, symBinAddr: 0x100029074, symSize: 0x34 }
  - { offsetInCU: 0x3EDDB, offset: 0x69E9D, size: 0x8, addend: 0x0, symName: __ZNSt3__116__variant_detail18__move_constructorINS0_8__traitsIJidbcNS_12basic_stringIcNS_11char_traitsIcEENS_9allocatorIcEEEEEEELNS0_6_TraitE1EECI2NS0_6__baseILSA_1EJidbcS8_EEEILm4EJRA1_KcEEENS_16in_place_index_tIXT_EEEDpOT0_, symObjAddr: 0xBCD0, symBinAddr: 0x1000290A8, symSize: 0x34 }
  - { offsetInCU: 0x3EE1F, offset: 0x69EE1, size: 0x8, addend: 0x0, symName: __ZNSt3__116__variant_detail6__ctorINS0_8__traitsIJidbcNS_12basic_stringIcNS_11char_traitsIcEENS_9allocatorIcEEEEEEEECI2NS0_6__baseILNS0_6_TraitE1EJidbcS8_EEEILm4EJRA1_KcEEENS_16in_place_index_tIXT_EEEDpOT0_, symObjAddr: 0xBD04, symBinAddr: 0x1000290DC, symSize: 0x34 }
  - { offsetInCU: 0x3EE5E, offset: 0x69F20, size: 0x8, addend: 0x0, symName: __ZNSt3__116__variant_detail6__dtorINS0_8__traitsIJidbcNS_12basic_stringIcNS_11char_traitsIcEENS_9allocatorIcEEEEEEELNS0_6_TraitE1EECI2NS0_6__baseILSA_1EJidbcS8_EEEILm4EJRA1_KcEEENS_16in_place_index_tIXT_EEEDpOT0_, symObjAddr: 0xBD38, symBinAddr: 0x100029110, symSize: 0x34 }
  - { offsetInCU: 0x3EE9D, offset: 0x69F5F, size: 0x8, addend: 0x0, symName: __ZNSt3__116__variant_detail6__baseILNS0_6_TraitE1EJidbcNS_12basic_stringIcNS_11char_traitsIcEENS_9allocatorIcEEEEEEC2B8ue170006ILm4EJRA1_KcEEENS_16in_place_index_tIXT_EEEDpOT0_, symObjAddr: 0xBD6C, symBinAddr: 0x100029144, symSize: 0xA8 }
  - { offsetInCU: 0x3EEF7, offset: 0x69FB9, size: 0x8, addend: 0x0, symName: __ZNSt3__116__variant_detail7__unionILNS0_6_TraitE1ELm0EJidbcNS_12basic_stringIcNS_11char_traitsIcEENS_9allocatorIcEEEEEEC1B8ue170006ILm4EJRA1_KcEEENS_16in_place_index_tIXT_EEEDpOT0_, symObjAddr: 0xBE14, symBinAddr: 0x1000291EC, symSize: 0x34 }
  - { offsetInCU: 0x3EF51, offset: 0x6A013, size: 0x8, addend: 0x0, symName: __ZNSt3__116__variant_detail7__unionILNS0_6_TraitE1ELm0EJidbcNS_12basic_stringIcNS_11char_traitsIcEENS_9allocatorIcEEEEEEC2B8ue170006ILm4EJRA1_KcEEENS_16in_place_index_tIXT_EEEDpOT0_, symObjAddr: 0xBE48, symBinAddr: 0x100029220, symSize: 0x34 }
  - { offsetInCU: 0x3EFAB, offset: 0x6A06D, size: 0x8, addend: 0x0, symName: __ZNSt3__116__variant_detail7__unionILNS0_6_TraitE1ELm1EJdbcNS_12basic_stringIcNS_11char_traitsIcEENS_9allocatorIcEEEEEEC1B8ue170006ILm3EJRA1_KcEEENS_16in_place_index_tIXT_EEEDpOT0_, symObjAddr: 0xBE7C, symBinAddr: 0x100029254, symSize: 0x34 }
  - { offsetInCU: 0x3F005, offset: 0x6A0C7, size: 0x8, addend: 0x0, symName: __ZNSt3__116__variant_detail7__unionILNS0_6_TraitE1ELm1EJdbcNS_12basic_stringIcNS_11char_traitsIcEENS_9allocatorIcEEEEEEC2B8ue170006ILm3EJRA1_KcEEENS_16in_place_index_tIXT_EEEDpOT0_, symObjAddr: 0xBEB0, symBinAddr: 0x100029288, symSize: 0x34 }
  - { offsetInCU: 0x3F05F, offset: 0x6A121, size: 0x8, addend: 0x0, symName: __ZNSt3__116__variant_detail7__unionILNS0_6_TraitE1ELm2EJbcNS_12basic_stringIcNS_11char_traitsIcEENS_9allocatorIcEEEEEEC1B8ue170006ILm2EJRA1_KcEEENS_16in_place_index_tIXT_EEEDpOT0_, symObjAddr: 0xBEE4, symBinAddr: 0x1000292BC, symSize: 0x34 }
  - { offsetInCU: 0x3F0B9, offset: 0x6A17B, size: 0x8, addend: 0x0, symName: __ZNSt3__116__variant_detail7__unionILNS0_6_TraitE1ELm2EJbcNS_12basic_stringIcNS_11char_traitsIcEENS_9allocatorIcEEEEEEC2B8ue170006ILm2EJRA1_KcEEENS_16in_place_index_tIXT_EEEDpOT0_, symObjAddr: 0xBF18, symBinAddr: 0x1000292F0, symSize: 0x34 }
  - { offsetInCU: 0x3F113, offset: 0x6A1D5, size: 0x8, addend: 0x0, symName: __ZNSt3__116__variant_detail7__unionILNS0_6_TraitE1ELm3EJcNS_12basic_stringIcNS_11char_traitsIcEENS_9allocatorIcEEEEEEC1B8ue170006ILm1EJRA1_KcEEENS_16in_place_index_tIXT_EEEDpOT0_, symObjAddr: 0xBF4C, symBinAddr: 0x100029324, symSize: 0x34 }
  - { offsetInCU: 0x3F16D, offset: 0x6A22F, size: 0x8, addend: 0x0, symName: __ZNSt3__116__variant_detail7__unionILNS0_6_TraitE1ELm3EJcNS_12basic_stringIcNS_11char_traitsIcEENS_9allocatorIcEEEEEEC2B8ue170006ILm1EJRA1_KcEEENS_16in_place_index_tIXT_EEEDpOT0_, symObjAddr: 0xBF80, symBinAddr: 0x100029358, symSize: 0x34 }
  - { offsetInCU: 0x3F1C7, offset: 0x6A289, size: 0x8, addend: 0x0, symName: __ZNSt3__116__variant_detail7__unionILNS0_6_TraitE1ELm4EJNS_12basic_stringIcNS_11char_traitsIcEENS_9allocatorIcEEEEEEC1B8ue170006IJRA1_KcEEENS_16in_place_index_tILm0EEEDpOT_, symObjAddr: 0xBFB4, symBinAddr: 0x10002938C, symSize: 0x34 }
  - { offsetInCU: 0x3F217, offset: 0x6A2D9, size: 0x8, addend: 0x0, symName: __ZNSt3__116__variant_detail7__unionILNS0_6_TraitE1ELm4EJNS_12basic_stringIcNS_11char_traitsIcEENS_9allocatorIcEEEEEEC2B8ue170006IJRA1_KcEEENS_16in_place_index_tILm0EEEDpOT_, symObjAddr: 0xBFE8, symBinAddr: 0x1000293C0, symSize: 0x34 }
  - { offsetInCU: 0x3F26C, offset: 0x6A32E, size: 0x8, addend: 0x0, symName: __ZNSt3__116__variant_detail5__altILm4ENS_12basic_stringIcNS_11char_traitsIcEENS_9allocatorIcEEEEEC1B8ue170006IJRA1_KcEEENS_10in_place_tEDpOT_, symObjAddr: 0xC01C, symBinAddr: 0x1000293F4, symSize: 0x34 }
  - { offsetInCU: 0x3F2BC, offset: 0x6A37E, size: 0x8, addend: 0x0, symName: __ZNSt3__116__variant_detail5__altILm4ENS_12basic_stringIcNS_11char_traitsIcEENS_9allocatorIcEEEEEC2B8ue170006IJRA1_KcEEENS_10in_place_tEDpOT_, symObjAddr: 0xC050, symBinAddr: 0x100029428, symSize: 0x34 }
  - { offsetInCU: 0x3F311, offset: 0x6A3D3, size: 0x8, addend: 0x0, symName: __ZNSt3__17variantIJidbcNS_12basic_stringIcNS_11char_traitsIcEENS_9allocatorIcEEEEEEC2B8ue170006ILb1ELi0EEEv, symObjAddr: 0xCEC4, symBinAddr: 0x10002945C, symSize: 0x40 }
  - { offsetInCU: 0x3F34B, offset: 0x6A40D, size: 0x8, addend: 0x0, symName: __ZNSt3__116__variant_detail6__implIJidbcNS_12basic_stringIcNS_11char_traitsIcEENS_9allocatorIcEEEEEECI1NS0_6__baseILNS0_6_TraitE1EJidbcS7_EEEILm0EJEEENS_16in_place_index_tIXT_EEEDpOT0_, symObjAddr: 0xCF04, symBinAddr: 0x10002949C, symSize: 0x2C }
  - { offsetInCU: 0x3F381, offset: 0x6A443, size: 0x8, addend: 0x0, symName: __ZNSt3__116__variant_detail6__implIJidbcNS_12basic_stringIcNS_11char_traitsIcEENS_9allocatorIcEEEEEECI2NS0_6__baseILNS0_6_TraitE1EJidbcS7_EEEILm0EJEEENS_16in_place_index_tIXT_EEEDpOT0_, symObjAddr: 0xCF30, symBinAddr: 0x1000294C8, symSize: 0x2C }
  - { offsetInCU: 0x3F3B7, offset: 0x6A479, size: 0x8, addend: 0x0, symName: __ZNSt3__116__variant_detail17__copy_assignmentINS0_8__traitsIJidbcNS_12basic_stringIcNS_11char_traitsIcEENS_9allocatorIcEEEEEEELNS0_6_TraitE1EECI2NS0_6__baseILSA_1EJidbcS8_EEEILm0EJEEENS_16in_place_index_tIXT_EEEDpOT0_, symObjAddr: 0xCF5C, symBinAddr: 0x1000294F4, symSize: 0x2C }
  - { offsetInCU: 0x3F3ED, offset: 0x6A4AF, size: 0x8, addend: 0x0, symName: __ZNSt3__116__variant_detail17__move_assignmentINS0_8__traitsIJidbcNS_12basic_stringIcNS_11char_traitsIcEENS_9allocatorIcEEEEEEELNS0_6_TraitE1EECI2NS0_6__baseILSA_1EJidbcS8_EEEILm0EJEEENS_16in_place_index_tIXT_EEEDpOT0_, symObjAddr: 0xCF88, symBinAddr: 0x100029520, symSize: 0x2C }
  - { offsetInCU: 0x3F423, offset: 0x6A4E5, size: 0x8, addend: 0x0, symName: __ZNSt3__116__variant_detail12__assignmentINS0_8__traitsIJidbcNS_12basic_stringIcNS_11char_traitsIcEENS_9allocatorIcEEEEEEEECI2NS0_6__baseILNS0_6_TraitE1EJidbcS8_EEEILm0EJEEENS_16in_place_index_tIXT_EEEDpOT0_, symObjAddr: 0xCFB4, symBinAddr: 0x10002954C, symSize: 0x2C }
  - { offsetInCU: 0x3F459, offset: 0x6A51B, size: 0x8, addend: 0x0, symName: __ZNSt3__116__variant_detail18__copy_constructorINS0_8__traitsIJidbcNS_12basic_stringIcNS_11char_traitsIcEENS_9allocatorIcEEEEEEELNS0_6_TraitE1EECI2NS0_6__baseILSA_1EJidbcS8_EEEILm0EJEEENS_16in_place_index_tIXT_EEEDpOT0_, symObjAddr: 0xCFE0, symBinAddr: 0x100029578, symSize: 0x2C }
  - { offsetInCU: 0x3F48F, offset: 0x6A551, size: 0x8, addend: 0x0, symName: __ZNSt3__116__variant_detail18__move_constructorINS0_8__traitsIJidbcNS_12basic_stringIcNS_11char_traitsIcEENS_9allocatorIcEEEEEEELNS0_6_TraitE1EECI2NS0_6__baseILSA_1EJidbcS8_EEEILm0EJEEENS_16in_place_index_tIXT_EEEDpOT0_, symObjAddr: 0xD00C, symBinAddr: 0x1000295A4, symSize: 0x2C }
  - { offsetInCU: 0x3F4C5, offset: 0x6A587, size: 0x8, addend: 0x0, symName: __ZNSt3__116__variant_detail6__ctorINS0_8__traitsIJidbcNS_12basic_stringIcNS_11char_traitsIcEENS_9allocatorIcEEEEEEEECI2NS0_6__baseILNS0_6_TraitE1EJidbcS8_EEEILm0EJEEENS_16in_place_index_tIXT_EEEDpOT0_, symObjAddr: 0xD038, symBinAddr: 0x1000295D0, symSize: 0x2C }
  - { offsetInCU: 0x3F4FB, offset: 0x6A5BD, size: 0x8, addend: 0x0, symName: __ZNSt3__116__variant_detail6__dtorINS0_8__traitsIJidbcNS_12basic_stringIcNS_11char_traitsIcEENS_9allocatorIcEEEEEEELNS0_6_TraitE1EECI2NS0_6__baseILSA_1EJidbcS8_EEEILm0EJEEENS_16in_place_index_tIXT_EEEDpOT0_, symObjAddr: 0xD064, symBinAddr: 0x1000295FC, symSize: 0x2C }
  - { offsetInCU: 0x3F531, offset: 0x6A5F3, size: 0x8, addend: 0x0, symName: __ZNSt3__116__variant_detail6__baseILNS0_6_TraitE1EJidbcNS_12basic_stringIcNS_11char_traitsIcEENS_9allocatorIcEEEEEEC2B8ue170006ILm0EJEEENS_16in_place_index_tIXT_EEEDpOT0_, symObjAddr: 0xD090, symBinAddr: 0x100029628, symSize: 0x9C }
  - { offsetInCU: 0x3F576, offset: 0x6A638, size: 0x8, addend: 0x0, symName: __ZNSt3__116__variant_detail7__unionILNS0_6_TraitE1ELm0EJidbcNS_12basic_stringIcNS_11char_traitsIcEENS_9allocatorIcEEEEEEC1B8ue170006IJEEENS_16in_place_index_tILm0EEEDpOT_, symObjAddr: 0xD12C, symBinAddr: 0x1000296C4, symSize: 0x2C }
  - { offsetInCU: 0x3F5B1, offset: 0x6A673, size: 0x8, addend: 0x0, symName: __ZNSt3__116__variant_detail7__unionILNS0_6_TraitE1ELm0EJidbcNS_12basic_stringIcNS_11char_traitsIcEENS_9allocatorIcEEEEEEC2B8ue170006IJEEENS_16in_place_index_tILm0EEEDpOT_, symObjAddr: 0xD158, symBinAddr: 0x1000296F0, symSize: 0x2C }
  - { offsetInCU: 0x3F5F1, offset: 0x6A6B3, size: 0x8, addend: 0x0, symName: __ZNSt3__116__variant_detail5__altILm0EiEC1B8ue170006IJEEENS_10in_place_tEDpOT_, symObjAddr: 0xD184, symBinAddr: 0x10002971C, symSize: 0x2C }
  - { offsetInCU: 0x3F62C, offset: 0x6A6EE, size: 0x8, addend: 0x0, symName: __ZNSt3__116__variant_detail5__altILm0EiEC2B8ue170006IJEEENS_10in_place_tEDpOT_, symObjAddr: 0xD1B0, symBinAddr: 0x100029748, symSize: 0x88 }
  - { offsetInCU: 0x3F685, offset: 0x6A747, size: 0x8, addend: 0x0, symName: __ZN5boost11basic_regexIcNS_12regex_traitsIcNS_16cpp_regex_traitsIcEEEEEC2EPKcj, symObjAddr: 0xEE8C, symBinAddr: 0x1000297D0, symSize: 0x6C }
  - { offsetInCU: 0x3F6CD, offset: 0x6A78F, size: 0x8, addend: 0x0, symName: __ZNSt3__110shared_ptrIN5boost13re_detail_50026basic_regex_implementationIcNS1_12regex_traitsIcNS1_16cpp_regex_traitsIcEEEEEEEC1B8ue170006Ev, symObjAddr: 0xEEF8, symBinAddr: 0x10002983C, symSize: 0x2C }
  - { offsetInCU: 0x3F6F7, offset: 0x6A7B9, size: 0x8, addend: 0x0, symName: __ZN5boost11basic_regexIcNS_12regex_traitsIcNS_16cpp_regex_traitsIcEEEEE6assignEPKcj, symObjAddr: 0xEF24, symBinAddr: 0x100029868, symSize: 0x60 }
  - { offsetInCU: 0x3F73B, offset: 0x6A7FD, size: 0x8, addend: 0x0, symName: __ZNSt3__110shared_ptrIN5boost13re_detail_50026basic_regex_implementationIcNS1_12regex_traitsIcNS1_16cpp_regex_traitsIcEEEEEEED1B8ue170006Ev, symObjAddr: 0xEF84, symBinAddr: 0x1000298C8, symSize: 0x2C }
  - { offsetInCU: 0x3F765, offset: 0x6A827, size: 0x8, addend: 0x0, symName: __ZNSt3__110shared_ptrIN5boost13re_detail_50026basic_regex_implementationIcNS1_12regex_traitsIcNS1_16cpp_regex_traitsIcEEEEEEEC2B8ue170006Ev, symObjAddr: 0xEFB0, symBinAddr: 0x1000298F4, symSize: 0x9C }
  - { offsetInCU: 0x3F78F, offset: 0x6A851, size: 0x8, addend: 0x0, symName: __ZN5boost11basic_regexIcNS_12regex_traitsIcNS_16cpp_regex_traitsIcEEEEE6assignEPKcS7_j, symObjAddr: 0xF04C, symBinAddr: 0x100029990, symSize: 0x3C }
  - { offsetInCU: 0x3F7E2, offset: 0x6A8A4, size: 0x8, addend: 0x0, symName: __ZN5boost16cpp_regex_traitsIcE6lengthEPKc, symObjAddr: 0xF088, symBinAddr: 0x1000299CC, symSize: 0x24 }
  - { offsetInCU: 0x3F806, offset: 0x6A8C8, size: 0x8, addend: 0x0, symName: __ZN5boost11basic_regexIcNS_12regex_traitsIcNS_16cpp_regex_traitsIcEEEEE9do_assignEPKcS7_j, symObjAddr: 0xF0AC, symBinAddr: 0x1000299F0, symSize: 0x460 }
  - { offsetInCU: 0x3F872, offset: 0x6A934, size: 0x8, addend: 0x0, symName: __ZNKSt3__110shared_ptrIN5boost13re_detail_50026basic_regex_implementationIcNS1_12regex_traitsIcNS1_16cpp_regex_traitsIcEEEEEEE3getB8ue170006Ev, symObjAddr: 0xF50C, symBinAddr: 0x100029E50, symSize: 0x60 }
  - { offsetInCU: 0x3F898, offset: 0x6A95A, size: 0x8, addend: 0x0, symName: __ZN5boost13re_detail_50026basic_regex_implementationIcNS_12regex_traitsIcNS_16cpp_regex_traitsIcEEEEEC1Ev, symObjAddr: 0xF56C, symBinAddr: 0x100029EB0, symSize: 0x2C }
  - { offsetInCU: 0x3F8C7, offset: 0x6A989, size: 0x8, addend: 0x0, symName: __ZNSt3__110shared_ptrIN5boost13re_detail_50026basic_regex_implementationIcNS1_12regex_traitsIcNS1_16cpp_regex_traitsIcEEEEEEEC1B8ue170006IS8_vEEPT_, symObjAddr: 0xF598, symBinAddr: 0x100029EDC, symSize: 0x34 }
  - { offsetInCU: 0x3F90A, offset: 0x6A9CC, size: 0x8, addend: 0x0, symName: __ZNSt3__110shared_ptrIN5boost13re_detail_50026basic_regex_implementationIcNS1_12regex_traitsIcNS1_16cpp_regex_traitsIcEEEEEEEaSB8ue170006EOS9_, symObjAddr: 0xF5CC, symBinAddr: 0x100029F10, symSize: 0x1F4 }
  - { offsetInCU: 0x3F941, offset: 0x6AA03, size: 0x8, addend: 0x0, symName: __ZNKSt3__110shared_ptrIN5boost13re_detail_50026basic_regex_implementationIcNS1_12regex_traitsIcNS1_16cpp_regex_traitsIcEEEEEEEptB8ue170006Ev, symObjAddr: 0xF7C0, symBinAddr: 0x10002A104, symSize: 0x60 }
  - { offsetInCU: 0x3F967, offset: 0x6AA29, size: 0x8, addend: 0x0, symName: __ZN5boost13re_detail_50026basic_regex_implementationIcNS_12regex_traitsIcNS_16cpp_regex_traitsIcEEEEEC1ERKNSt3__110shared_ptrINS_20regex_traits_wrapperIS5_EEEE, symObjAddr: 0xF820, symBinAddr: 0x10002A164, symSize: 0x34 }
  - { offsetInCU: 0x3F99F, offset: 0x6AA61, size: 0x8, addend: 0x0, symName: __ZN5boost13re_detail_50026basic_regex_implementationIcNS_12regex_traitsIcNS_16cpp_regex_traitsIcEEEEE6assignEPKcS8_j, symObjAddr: 0xF854, symBinAddr: 0x10002A198, symSize: 0x36C }
  - { offsetInCU: 0x3FA14, offset: 0x6AAD6, size: 0x8, addend: 0x0, symName: __ZNSt3__110shared_ptrIN5boost13re_detail_50026basic_regex_implementationIcNS1_12regex_traitsIcNS1_16cpp_regex_traitsIcEEEEEEE4swapB8ue170006ERS9_, symObjAddr: 0xFBC0, symBinAddr: 0x10002A504, symSize: 0x44 }
  - { offsetInCU: 0x3FA49, offset: 0x6AB0B, size: 0x8, addend: 0x0, symName: __ZN5boost13re_detail_50026basic_regex_implementationIcNS_12regex_traitsIcNS_16cpp_regex_traitsIcEEEEEC2Ev, symObjAddr: 0xFC04, symBinAddr: 0x10002A548, symSize: 0x2C }
  - { offsetInCU: 0x3FA73, offset: 0x6AB35, size: 0x8, addend: 0x0, symName: __ZN5boost13re_detail_50010regex_dataIcNS_12regex_traitsIcNS_16cpp_regex_traitsIcEEEEEC2Ev, symObjAddr: 0xFC30, symBinAddr: 0x10002A574, symSize: 0x478 }
  - { offsetInCU: 0x3FA9D, offset: 0x6AB5F, size: 0x8, addend: 0x0, symName: __ZN5boost13re_detail_50020named_subexpressionsC2Ev, symObjAddr: 0x100A8, symBinAddr: 0x10002A9EC, symSize: 0x2C }
  - { offsetInCU: 0x3FAC7, offset: 0x6AB89, size: 0x8, addend: 0x0, symName: __ZN5boost20regex_traits_wrapperINS_12regex_traitsIcNS_16cpp_regex_traitsIcEEEEEC1Ev, symObjAddr: 0x100D4, symBinAddr: 0x10002AA18, symSize: 0x2C }
  - { offsetInCU: 0x3FAF6, offset: 0x6ABB8, size: 0x8, addend: 0x0, symName: __ZNSt3__110shared_ptrIN5boost20regex_traits_wrapperINS1_12regex_traitsIcNS1_16cpp_regex_traitsIcEEEEEEEC1B8ue170006IS7_vEEPT_, symObjAddr: 0x10100, symBinAddr: 0x10002AA44, symSize: 0x34 }
  - { offsetInCU: 0x3FB39, offset: 0x6ABFB, size: 0x8, addend: 0x0, symName: __ZN5boost13re_detail_50011raw_storageC1Ev, symObjAddr: 0x10134, symBinAddr: 0x10002AA78, symSize: 0x2C }
  - { offsetInCU: 0x3FB64, offset: 0x6AC26, size: 0x8, addend: 0x0, symName: __ZNSt3__16vectorINS_4pairImmEENS_9allocatorIS2_EEEC1B8ue170006Ev, symObjAddr: 0x10160, symBinAddr: 0x10002AAA4, symSize: 0x2C }
  - { offsetInCU: 0x3FB8E, offset: 0x6AC50, size: 0x8, addend: 0x0, symName: __ZNSt3__110shared_ptrIN5boost20regex_traits_wrapperINS1_12regex_traitsIcNS1_16cpp_regex_traitsIcEEEEEEED1B8ue170006Ev, symObjAddr: 0x1018C, symBinAddr: 0x10002AAD0, symSize: 0x2C }
  - { offsetInCU: 0x3FBB8, offset: 0x6AC7A, size: 0x8, addend: 0x0, symName: __ZN5boost13re_detail_50020named_subexpressionsD2Ev, symObjAddr: 0x101B8, symBinAddr: 0x10002AAFC, symSize: 0x2C }
  - { offsetInCU: 0x3FBE4, offset: 0x6ACA6, size: 0x8, addend: 0x0, symName: __ZNSt3__16vectorIN5boost13re_detail_50020named_subexpressions4nameENS_9allocatorIS4_EEEC1B8ue170006Ev, symObjAddr: 0x101E4, symBinAddr: 0x10002AB28, symSize: 0x2C }
  - { offsetInCU: 0x3FC0E, offset: 0x6ACD0, size: 0x8, addend: 0x0, symName: __ZNSt3__16vectorIN5boost13re_detail_50020named_subexpressions4nameENS_9allocatorIS4_EEEC2B8ue170006Ev, symObjAddr: 0x10210, symBinAddr: 0x10002AB54, symSize: 0x2E8 }
  - { offsetInCU: 0x3FC3E, offset: 0x6AD00, size: 0x8, addend: 0x0, symName: __ZNSt3__117__compressed_pairIPN5boost13re_detail_50020named_subexpressions4nameENS_9allocatorIS4_EEEC1B8ue170006IDnNS_18__default_init_tagEEEOT_OT0_, symObjAddr: 0x104F8, symBinAddr: 0x10002AE3C, symSize: 0x3C }
  - { offsetInCU: 0x3FC96, offset: 0x6AD58, size: 0x8, addend: 0x0, symName: __ZNSt3__117__compressed_pairIPN5boost13re_detail_50020named_subexpressions4nameENS_9allocatorIS4_EEEC2B8ue170006IDnNS_18__default_init_tagEEEOT_OT0_, symObjAddr: 0x10534, symBinAddr: 0x10002AE78, symSize: 0x40 }
  - { offsetInCU: 0x3FCEE, offset: 0x6ADB0, size: 0x8, addend: 0x0, symName: __ZNSt3__122__compressed_pair_elemIPN5boost13re_detail_50020named_subexpressions4nameELi0ELb0EEC2B8ue170006IDnvEEOT_, symObjAddr: 0x10574, symBinAddr: 0x10002AEB8, symSize: 0x64 }
  - { offsetInCU: 0x3FD30, offset: 0x6ADF2, size: 0x8, addend: 0x0, symName: __ZNSt3__122__compressed_pair_elemINS_9allocatorIN5boost13re_detail_50020named_subexpressions4nameEEELi1ELb1EEC2B8ue170006ENS_18__default_init_tagE, symObjAddr: 0x105D8, symBinAddr: 0x10002AF1C, symSize: 0x2C }
  - { offsetInCU: 0x3FD65, offset: 0x6AE27, size: 0x8, addend: 0x0, symName: __ZNSt3__19allocatorIN5boost13re_detail_50020named_subexpressions4nameEEC2B8ue170006Ev, symObjAddr: 0x10604, symBinAddr: 0x10002AF48, symSize: 0x2C }
  - { offsetInCU: 0x3FD8F, offset: 0x6AE51, size: 0x8, addend: 0x0, symName: __ZNSt3__116__non_trivial_ifILb1ENS_9allocatorIN5boost13re_detail_50020named_subexpressions4nameEEEEC2B8ue170006Ev, symObjAddr: 0x10630, symBinAddr: 0x10002AF74, symSize: 0x14 }
  - { offsetInCU: 0x3FDB9, offset: 0x6AE7B, size: 0x8, addend: 0x0, symName: __ZN5boost20regex_traits_wrapperINS_12regex_traitsIcNS_16cpp_regex_traitsIcEEEEEC2Ev, symObjAddr: 0x10644, symBinAddr: 0x10002AF88, symSize: 0x2C }
  - { offsetInCU: 0x3FDE3, offset: 0x6AEA5, size: 0x8, addend: 0x0, symName: __ZN5boost12regex_traitsIcNS_16cpp_regex_traitsIcEEEC2Ev, symObjAddr: 0x10670, symBinAddr: 0x10002AFB4, symSize: 0x2C }
  - { offsetInCU: 0x3FE0D, offset: 0x6AECF, size: 0x8, addend: 0x0, symName: __ZN5boost16cpp_regex_traitsIcEC2Ev, symObjAddr: 0x1069C, symBinAddr: 0x10002AFE0, symSize: 0x28C }
  - { offsetInCU: 0x3FE38, offset: 0x6AEFA, size: 0x8, addend: 0x0, symName: __ZN5boost13re_detail_50021cpp_regex_traits_baseIcEC1ERKNSt3__16localeE, symObjAddr: 0x10BE4, symBinAddr: 0x10002B528, symSize: 0x34 }
  - { offsetInCU: 0x3FE70, offset: 0x6AF32, size: 0x8, addend: 0x0, symName: __ZN5boost13re_detail_50021cpp_regex_traits_baseIcED1Ev, symObjAddr: 0x10F20, symBinAddr: 0x10002B864, symSize: 0x2C }
  - { offsetInCU: 0x3FE9C, offset: 0x6AF5E, size: 0x8, addend: 0x0, symName: __ZN5boost13re_detail_50021cpp_regex_traits_baseIcEC2ERKNSt3__16localeE, symObjAddr: 0x10F4C, symBinAddr: 0x10002B890, symSize: 0x26C }
  - { offsetInCU: 0x3FED6, offset: 0x6AF98, size: 0x8, addend: 0x0, symName: __ZN5boost13re_detail_50021cpp_regex_traits_baseIcE5imbueERKNSt3__16localeE, symObjAddr: 0x111B8, symBinAddr: 0x10002BAFC, symSize: 0x1D8 }
  - { offsetInCU: 0x3FF38, offset: 0x6AFFA, size: 0x8, addend: 0x0, symName: __ZNSt3__110lock_guardINS_5mutexEEC1B8ue170006ERS1_, symObjAddr: 0x11434, symBinAddr: 0x10002BD78, symSize: 0x34 }
  - { offsetInCU: 0x3FF70, offset: 0x6B032, size: 0x8, addend: 0x0, symName: __ZNSt3__110lock_guardINS_5mutexEED1B8ue170006Ev, symObjAddr: 0x12F2C, symBinAddr: 0x10002D870, symSize: 0x2C }
  - { offsetInCU: 0x3FF9A, offset: 0x6B05C, size: 0x8, addend: 0x0, symName: __ZNSt3__110lock_guardINS_5mutexEEC2B8ue170006ERS1_, symObjAddr: 0x12F58, symBinAddr: 0x10002D89C, symSize: 0xB0 }
  - { offsetInCU: 0x3FFD7, offset: 0x6B099, size: 0x8, addend: 0x0, symName: __ZN5boost12object_cacheINS_13re_detail_50021cpp_regex_traits_baseIcEENS1_31cpp_regex_traits_implementationIcEEE4dataC1Ev, symObjAddr: 0x13008, symBinAddr: 0x10002D94C, symSize: 0x2C }
  - { offsetInCU: 0x40003, offset: 0x6B0C5, size: 0x8, addend: 0x0, symName: __ZN5boost12object_cacheINS_13re_detail_50021cpp_regex_traits_baseIcEENS1_31cpp_regex_traits_implementationIcEEE4dataD1Ev, symObjAddr: 0x13034, symBinAddr: 0x10002D978, symSize: 0x2C }
  - { offsetInCU: 0x4002F, offset: 0x6B0F1, size: 0x8, addend: 0x0, symName: __ZNSt3__13mapIN5boost13re_detail_50021cpp_regex_traits_baseIcEENS_15__list_iteratorINS_4pairINS_10shared_ptrIKNS2_31cpp_regex_traits_implementationIcEEEEPKS4_EEPvEENS_4lessIS4_EENS_9allocatorINS6_ISC_SG_EEEEE4findB8ue170006ERSC_, symObjAddr: 0x13060, symBinAddr: 0x10002D9A4, symSize: 0x2BC }
  - { offsetInCU: 0x40066, offset: 0x6B128, size: 0x8, addend: 0x0, symName: __ZNSt3__13mapIN5boost13re_detail_50021cpp_regex_traits_baseIcEENS_15__list_iteratorINS_4pairINS_10shared_ptrIKNS2_31cpp_regex_traits_implementationIcEEEEPKS4_EEPvEENS_4lessIS4_EENS_9allocatorINS6_ISC_SG_EEEEE3endB8ue170006Ev, symObjAddr: 0x1334C, symBinAddr: 0x10002DC90, symSize: 0x2B4 }
  - { offsetInCU: 0x4008D, offset: 0x6B14F, size: 0x8, addend: 0x0, symName: __ZNSt3__14listINS_4pairINS_10shared_ptrIKN5boost13re_detail_50031cpp_regex_traits_implementationIcEEEEPKNS4_21cpp_regex_traits_baseIcEEEENS_9allocatorISD_EEE3endB8ue170006Ev, symObjAddr: 0x13634, symBinAddr: 0x10002DF78, symSize: 0x234 }
  - { offsetInCU: 0x400B4, offset: 0x6B176, size: 0x8, addend: 0x0, symName: __ZNSt3__115__list_iteratorINS_4pairINS_10shared_ptrIKN5boost13re_detail_50031cpp_regex_traits_implementationIcEEEEPKNS4_21cpp_regex_traits_baseIcEEEEPvEmmB8ue170006Ev, symObjAddr: 0x13868, symBinAddr: 0x10002E1AC, symSize: 0xDC }
  - { offsetInCU: 0x400DA, offset: 0x6B19C, size: 0x8, addend: 0x0, symName: __ZNKSt3__114__map_iteratorINS_15__tree_iteratorINS_12__value_typeIN5boost13re_detail_50021cpp_regex_traits_baseIcEENS_15__list_iteratorINS_4pairINS_10shared_ptrIKNS4_31cpp_regex_traits_implementationIcEEEEPKS6_EEPvEEEEPNS_11__tree_nodeISJ_SH_EElEEEptB8ue170006Ev, symObjAddr: 0x13944, symBinAddr: 0x10002E288, symSize: 0x2C }
  - { offsetInCU: 0x40100, offset: 0x6B1C2, size: 0x8, addend: 0x0, symName: __ZNSt3__14listINS_4pairINS_10shared_ptrIKN5boost13re_detail_50031cpp_regex_traits_implementationIcEEEEPKNS4_21cpp_regex_traits_baseIcEEEENS_9allocatorISD_EEEC1B8ue170006Ev, symObjAddr: 0x13970, symBinAddr: 0x10002E2B4, symSize: 0x2C }
  - { offsetInCU: 0x4012A, offset: 0x6B1EC, size: 0x8, addend: 0x0, symName: __ZNSt3__14listINS_4pairINS_10shared_ptrIKN5boost13re_detail_50031cpp_regex_traits_implementationIcEEEEPKNS4_21cpp_regex_traits_baseIcEEEENS_9allocatorISD_EEE6spliceENS_21__list_const_iteratorISD_PvEERSG_SJ_, symObjAddr: 0x1399C, symBinAddr: 0x10002E2E0, symSize: 0x4F0 }
  - { offsetInCU: 0x401A7, offset: 0x6B269, size: 0x8, addend: 0x0, symName: __ZNSt3__121__list_const_iteratorINS_4pairINS_10shared_ptrIKN5boost13re_detail_50031cpp_regex_traits_implementationIcEEEEPKNS4_21cpp_regex_traits_baseIcEEEEPvEC1B8ue170006ERKNS_15__list_iteratorISD_SE_EE, symObjAddr: 0x13E8C, symBinAddr: 0x10002E7D0, symSize: 0x34 }
  - { offsetInCU: 0x401E0, offset: 0x6B2A2, size: 0x8, addend: 0x0, symName: __ZNSt3__14listINS_4pairINS_10shared_ptrIKN5boost13re_detail_50031cpp_regex_traits_implementationIcEEEEPKNS4_21cpp_regex_traits_baseIcEEEENS_9allocatorISD_EEE5beginB8ue170006Ev, symObjAddr: 0x13EC0, symBinAddr: 0x10002E804, symSize: 0x234 }
  - { offsetInCU: 0x40207, offset: 0x6B2C9, size: 0x8, addend: 0x0, symName: __ZNSt3__14listINS_4pairINS_10shared_ptrIKN5boost13re_detail_50031cpp_regex_traits_implementationIcEEEEPKNS4_21cpp_regex_traits_baseIcEEEENS_9allocatorISD_EEE4backB8ue170006Ev, symObjAddr: 0x140F4, symBinAddr: 0x10002EA38, symSize: 0x68 }
  - { offsetInCU: 0x4022D, offset: 0x6B2EF, size: 0x8, addend: 0x0, symName: __ZNK5boost13re_detail_50021cpp_regex_traits_baseIcEeqERKS2_, symObjAddr: 0x1415C, symBinAddr: 0x10002EAA0, symSize: 0x204 }
  - { offsetInCU: 0x40261, offset: 0x6B323, size: 0x8, addend: 0x0, symName: __ZNKSt3__115__list_iteratorINS_4pairINS_10shared_ptrIKN5boost13re_detail_50031cpp_regex_traits_implementationIcEEEEPKNS4_21cpp_regex_traits_baseIcEEEEPvEptB8ue170006Ev, symObjAddr: 0x14360, symBinAddr: 0x10002ECA4, symSize: 0x6C }
  - { offsetInCU: 0x40287, offset: 0x6B349, size: 0x8, addend: 0x0, symName: __ZNSt3__14listINS_4pairINS_10shared_ptrIKN5boost13re_detail_50031cpp_regex_traits_implementationIcEEEEPKNS4_21cpp_regex_traits_baseIcEEEENS_9allocatorISD_EEED1Ev, symObjAddr: 0x143CC, symBinAddr: 0x10002ED10, symSize: 0x2C }
  - { offsetInCU: 0x402B4, offset: 0x6B376, size: 0x8, addend: 0x0, symName: __ZNSt3__110shared_ptrIKN5boost13re_detail_50031cpp_regex_traits_implementationIcEEEC1B8ue170006ERKS6_, symObjAddr: 0x143F8, symBinAddr: 0x10002ED3C, symSize: 0x34 }
  - { offsetInCU: 0x402ED, offset: 0x6B3AF, size: 0x8, addend: 0x0, symName: __ZN5boost13re_detail_50031cpp_regex_traits_implementationIcEC1ERKNS0_21cpp_regex_traits_baseIcEE, symObjAddr: 0x1442C, symBinAddr: 0x10002ED70, symSize: 0x34 }
  - { offsetInCU: 0x4032B, offset: 0x6B3ED, size: 0x8, addend: 0x0, symName: __ZNSt3__110shared_ptrIKN5boost13re_detail_50031cpp_regex_traits_implementationIcEEEC1B8ue170006IS4_vEEPT_, symObjAddr: 0x14460, symBinAddr: 0x10002EDA4, symSize: 0x34 }
  - { offsetInCU: 0x4036E, offset: 0x6B430, size: 0x8, addend: 0x0, symName: __ZNSt3__14listINS_4pairINS_10shared_ptrIKN5boost13re_detail_50031cpp_regex_traits_implementationIcEEEEPKNS4_21cpp_regex_traits_baseIcEEEENS_9allocatorISD_EEE9push_backEOSD_, symObjAddr: 0x14494, symBinAddr: 0x10002EDD8, symSize: 0x398 }
  - { offsetInCU: 0x403CF, offset: 0x6B491, size: 0x8, addend: 0x0, symName: __ZNSt3__14pairINS_10shared_ptrIKN5boost13re_detail_50031cpp_regex_traits_implementationIcEEEEPKNS3_21cpp_regex_traits_baseIcEEEC1B8ue170006IRS7_SB_LPv0EEEOT_OT0_, symObjAddr: 0x1482C, symBinAddr: 0x10002F170, symSize: 0x3C }
  - { offsetInCU: 0x4042D, offset: 0x6B4EF, size: 0x8, addend: 0x0, symName: __ZNSt3__14pairINS_10shared_ptrIKN5boost13re_detail_50031cpp_regex_traits_implementationIcEEEEPKNS3_21cpp_regex_traits_baseIcEEED1Ev, symObjAddr: 0x14868, symBinAddr: 0x10002F1AC, symSize: 0x2C }
  - { offsetInCU: 0x40472, offset: 0x6B534, size: 0x8, addend: 0x0, symName: __ZNSt3__13mapIN5boost13re_detail_50021cpp_regex_traits_baseIcEENS_15__list_iteratorINS_4pairINS_10shared_ptrIKNS2_31cpp_regex_traits_implementationIcEEEEPKS4_EEPvEENS_4lessIS4_EENS_9allocatorINS6_ISC_SG_EEEEE6insertB8ue170006INS6_IS4_SG_EEvEENS6_INS_14__map_iteratorINS_15__tree_iteratorINS_12__value_typeIS4_SG_EEPNS_11__tree_nodeISS_SF_EElEEEEbEEOT_, symObjAddr: 0x14894, symBinAddr: 0x10002F1D8, symSize: 0x2A8 }
  - { offsetInCU: 0x404B3, offset: 0x6B575, size: 0x8, addend: 0x0, symName: __ZNSt3__14pairIN5boost13re_detail_50021cpp_regex_traits_baseIcEENS_15__list_iteratorINS0_INS_10shared_ptrIKNS2_31cpp_regex_traits_implementationIcEEEEPKS4_EEPvEEED1Ev, symObjAddr: 0x14B7C, symBinAddr: 0x10002F4C0, symSize: 0x2C }
  - { offsetInCU: 0x404DF, offset: 0x6B5A1, size: 0x8, addend: 0x0, symName: __ZNKSt3__13mapIN5boost13re_detail_50021cpp_regex_traits_baseIcEENS_15__list_iteratorINS_4pairINS_10shared_ptrIKNS2_31cpp_regex_traits_implementationIcEEEEPKS4_EEPvEENS_4lessIS4_EENS_9allocatorINS6_ISC_SG_EEEEE4sizeB8ue170006Ev, symObjAddr: 0x14BA8, symBinAddr: 0x10002F4EC, symSize: 0x6C }
  - { offsetInCU: 0x40505, offset: 0x6B5C7, size: 0x8, addend: 0x0, symName: __ZNSt3__13mapIN5boost13re_detail_50021cpp_regex_traits_baseIcEENS_15__list_iteratorINS_4pairINS_10shared_ptrIKNS2_31cpp_regex_traits_implementationIcEEEEPKS4_EEPvEENS_4lessIS4_EENS_9allocatorINS6_ISC_SG_EEEEEixERSC_, symObjAddr: 0x14C14, symBinAddr: 0x10002F558, symSize: 0x314 }
  - { offsetInCU: 0x4053E, offset: 0x6B600, size: 0x8, addend: 0x0, symName: __ZNKSt3__110shared_ptrIKN5boost13re_detail_50031cpp_regex_traits_implementationIcEEE3getB8ue170006Ev, symObjAddr: 0x14F28, symBinAddr: 0x10002F86C, symSize: 0x60 }
  - { offsetInCU: 0x40564, offset: 0x6B626, size: 0x8, addend: 0x0, symName: __ZNKSt3__110shared_ptrIKN5boost13re_detail_50031cpp_regex_traits_implementationIcEEE9use_countB8ue170006Ev, symObjAddr: 0x14F88, symBinAddr: 0x10002F8CC, symSize: 0xD0 }
  - { offsetInCU: 0x4058A, offset: 0x6B64C, size: 0x8, addend: 0x0, symName: __ZNSt3__115__list_iteratorINS_4pairINS_10shared_ptrIKN5boost13re_detail_50031cpp_regex_traits_implementationIcEEEEPKNS4_21cpp_regex_traits_baseIcEEEEPvEppB8ue170006Ev, symObjAddr: 0x15058, symBinAddr: 0x10002F99C, symSize: 0xE0 }
  - { offsetInCU: 0x405B0, offset: 0x6B672, size: 0x8, addend: 0x0, symName: __ZNSt3__13mapIN5boost13re_detail_50021cpp_regex_traits_baseIcEENS_15__list_iteratorINS_4pairINS_10shared_ptrIKNS2_31cpp_regex_traits_implementationIcEEEEPKS4_EEPvEENS_4lessIS4_EENS_9allocatorINS6_ISC_SG_EEEEE5eraseB8ue170006ERSC_, symObjAddr: 0x15138, symBinAddr: 0x10002FA7C, symSize: 0x2C }
  - { offsetInCU: 0x405E5, offset: 0x6B6A7, size: 0x8, addend: 0x0, symName: __ZNSt3__14listINS_4pairINS_10shared_ptrIKN5boost13re_detail_50031cpp_regex_traits_implementationIcEEEEPKNS4_21cpp_regex_traits_baseIcEEEENS_9allocatorISD_EEE5eraseENS_21__list_const_iteratorISD_PvEE, symObjAddr: 0x15164, symBinAddr: 0x10002FAA8, symSize: 0x38C }
  - { offsetInCU: 0x40661, offset: 0x6B723, size: 0x8, addend: 0x0, symName: __ZNSt3__110shared_ptrIKN5boost13re_detail_50031cpp_regex_traits_implementationIcEEED1B8ue170006Ev, symObjAddr: 0x154F0, symBinAddr: 0x10002FE34, symSize: 0x2C }
  - { offsetInCU: 0x4068B, offset: 0x6B74D, size: 0x8, addend: 0x0, symName: __ZN5boost12object_cacheINS_13re_detail_50021cpp_regex_traits_baseIcEENS1_31cpp_regex_traits_implementationIcEEE4dataC2Ev, symObjAddr: 0x1551C, symBinAddr: 0x10002FE60, symSize: 0x38 }
  - { offsetInCU: 0x406B7, offset: 0x6B779, size: 0x8, addend: 0x0, symName: __ZNSt3__13mapIN5boost13re_detail_50021cpp_regex_traits_baseIcEENS_15__list_iteratorINS_4pairINS_10shared_ptrIKNS2_31cpp_regex_traits_implementationIcEEEEPKS4_EEPvEENS_4lessIS4_EENS_9allocatorINS6_ISC_SG_EEEEEC1B8ue170006Ev, symObjAddr: 0x15554, symBinAddr: 0x10002FE98, symSize: 0x2C }
  - { offsetInCU: 0x406E1, offset: 0x6B7A3, size: 0x8, addend: 0x0, symName: __ZNSt3__13mapIN5boost13re_detail_50021cpp_regex_traits_baseIcEENS_15__list_iteratorINS_4pairINS_10shared_ptrIKNS2_31cpp_regex_traits_implementationIcEEEEPKS4_EEPvEENS_4lessIS4_EENS_9allocatorINS6_ISC_SG_EEEEEC2B8ue170006Ev, symObjAddr: 0x15580, symBinAddr: 0x10002FEC4, symSize: 0x1E8 }
  - { offsetInCU: 0x4070C, offset: 0x6B7CE, size: 0x8, addend: 0x0, symName: __ZNSt3__119__map_value_compareIN5boost13re_detail_50021cpp_regex_traits_baseIcEENS_12__value_typeIS4_NS_15__list_iteratorINS_4pairINS_10shared_ptrIKNS2_31cpp_regex_traits_implementationIcEEEEPKS4_EEPvEEEENS_4lessIS4_EELb1EEC1B8ue170006ESK_, symObjAddr: 0x15768, symBinAddr: 0x1000300AC, symSize: 0x2C }
  - { offsetInCU: 0x40745, offset: 0x6B807, size: 0x8, addend: 0x0, symName: __ZNSt3__16__treeINS_12__value_typeIN5boost13re_detail_50021cpp_regex_traits_baseIcEENS_15__list_iteratorINS_4pairINS_10shared_ptrIKNS3_31cpp_regex_traits_implementationIcEEEEPKS5_EEPvEEEENS_19__map_value_compareIS5_SI_NS_4lessIS5_EELb1EEENS_9allocatorISI_EEEC1ERKSM_, symObjAddr: 0x15794, symBinAddr: 0x1000300D8, symSize: 0x34 }
  - { offsetInCU: 0x40780, offset: 0x6B842, size: 0x8, addend: 0x0, symName: __ZNSt3__119__map_value_compareIN5boost13re_detail_50021cpp_regex_traits_baseIcEENS_12__value_typeIS4_NS_15__list_iteratorINS_4pairINS_10shared_ptrIKNS2_31cpp_regex_traits_implementationIcEEEEPKS4_EEPvEEEENS_4lessIS4_EELb1EEC2B8ue170006ESK_, symObjAddr: 0x157C8, symBinAddr: 0x10003010C, symSize: 0x14 }
  - { offsetInCU: 0x407B9, offset: 0x6B87B, size: 0x8, addend: 0x0, symName: __ZNSt3__16__treeINS_12__value_typeIN5boost13re_detail_50021cpp_regex_traits_baseIcEENS_15__list_iteratorINS_4pairINS_10shared_ptrIKNS3_31cpp_regex_traits_implementationIcEEEEPKS5_EEPvEEEENS_19__map_value_compareIS5_SI_NS_4lessIS5_EELb1EEENS_9allocatorISI_EEEC2ERKSM_, symObjAddr: 0x157DC, symBinAddr: 0x100030120, symSize: 0x2CC }
  - { offsetInCU: 0x407F6, offset: 0x6B8B8, size: 0x8, addend: 0x0, symName: __ZNSt3__117__compressed_pairINS_15__tree_end_nodeIPNS_16__tree_node_baseIPvEEEENS_9allocatorINS_11__tree_nodeINS_12__value_typeIN5boost13re_detail_50021cpp_regex_traits_baseIcEENS_15__list_iteratorINS_4pairINS_10shared_ptrIKNSB_31cpp_regex_traits_implementationIcEEEEPKSD_EES3_EEEES3_EEEEEC1B8ue170006ILb1EvEEv, symObjAddr: 0x15AA8, symBinAddr: 0x1000303EC, symSize: 0x2C }
  - { offsetInCU: 0x4082B, offset: 0x6B8ED, size: 0x8, addend: 0x0, symName: __ZNSt3__117__compressed_pairImNS_19__map_value_compareIN5boost13re_detail_50021cpp_regex_traits_baseIcEENS_12__value_typeIS5_NS_15__list_iteratorINS_4pairINS_10shared_ptrIKNS3_31cpp_regex_traits_implementationIcEEEEPKS5_EEPvEEEENS_4lessIS5_EELb1EEEEC1B8ue170006IiRKSM_EEOT_OT0_, symObjAddr: 0x15AD4, symBinAddr: 0x100030418, symSize: 0x3C }
  - { offsetInCU: 0x40883, offset: 0x6B945, size: 0x8, addend: 0x0, symName: __ZNSt3__16__treeINS_12__value_typeIN5boost13re_detail_50021cpp_regex_traits_baseIcEENS_15__list_iteratorINS_4pairINS_10shared_ptrIKNS3_31cpp_regex_traits_implementationIcEEEEPKS5_EEPvEEEENS_19__map_value_compareIS5_SI_NS_4lessIS5_EELb1EEENS_9allocatorISI_EEE10__end_nodeB8ue170006Ev, symObjAddr: 0x15B10, symBinAddr: 0x100030454, symSize: 0x2C }
  - { offsetInCU: 0x408A9, offset: 0x6B96B, size: 0x8, addend: 0x0, symName: __ZNSt3__16__treeINS_12__value_typeIN5boost13re_detail_50021cpp_regex_traits_baseIcEENS_15__list_iteratorINS_4pairINS_10shared_ptrIKNS3_31cpp_regex_traits_implementationIcEEEEPKS5_EEPvEEEENS_19__map_value_compareIS5_SI_NS_4lessIS5_EELb1EEENS_9allocatorISI_EEE12__begin_nodeB8ue170006Ev, symObjAddr: 0x15B3C, symBinAddr: 0x100030480, symSize: 0x14 }
  - { offsetInCU: 0x408CF, offset: 0x6B991, size: 0x8, addend: 0x0, symName: __ZNSt3__117__compressed_pairINS_15__tree_end_nodeIPNS_16__tree_node_baseIPvEEEENS_9allocatorINS_11__tree_nodeINS_12__value_typeIN5boost13re_detail_50021cpp_regex_traits_baseIcEENS_15__list_iteratorINS_4pairINS_10shared_ptrIKNSB_31cpp_regex_traits_implementationIcEEEEPKSD_EES3_EEEES3_EEEEEC2B8ue170006ILb1EvEEv, symObjAddr: 0x15B50, symBinAddr: 0x100030494, symSize: 0x34 }
  - { offsetInCU: 0x40904, offset: 0x6B9C6, size: 0x8, addend: 0x0, symName: __ZNSt3__122__compressed_pair_elemINS_15__tree_end_nodeIPNS_16__tree_node_baseIPvEEEELi0ELb0EEC2B8ue170006ENS_16__value_init_tagE, symObjAddr: 0x15B84, symBinAddr: 0x1000304C8, symSize: 0x2C }
  - { offsetInCU: 0x40939, offset: 0x6B9FB, size: 0x8, addend: 0x0, symName: __ZNSt3__122__compressed_pair_elemINS_9allocatorINS_11__tree_nodeINS_12__value_typeIN5boost13re_detail_50021cpp_regex_traits_baseIcEENS_15__list_iteratorINS_4pairINS_10shared_ptrIKNS5_31cpp_regex_traits_implementationIcEEEEPKS7_EEPvEEEESI_EEEELi1ELb1EEC2B8ue170006ENS_16__value_init_tagE, symObjAddr: 0x15BB0, symBinAddr: 0x1000304F4, symSize: 0x2C }
  - { offsetInCU: 0x4096E, offset: 0x6BA30, size: 0x8, addend: 0x0, symName: __ZNSt3__115__tree_end_nodeIPNS_16__tree_node_baseIPvEEEC1B8ue170006Ev, symObjAddr: 0x15BDC, symBinAddr: 0x100030520, symSize: 0x2C }
  - { offsetInCU: 0x40998, offset: 0x6BA5A, size: 0x8, addend: 0x0, symName: __ZNSt3__115__tree_end_nodeIPNS_16__tree_node_baseIPvEEEC2B8ue170006Ev, symObjAddr: 0x15C08, symBinAddr: 0x10003054C, symSize: 0x60 }
  - { offsetInCU: 0x409C2, offset: 0x6BA84, size: 0x8, addend: 0x0, symName: __ZNSt3__19allocatorINS_11__tree_nodeINS_12__value_typeIN5boost13re_detail_50021cpp_regex_traits_baseIcEENS_15__list_iteratorINS_4pairINS_10shared_ptrIKNS4_31cpp_regex_traits_implementationIcEEEEPKS6_EEPvEEEESH_EEEC2B8ue170006Ev, symObjAddr: 0x15C68, symBinAddr: 0x1000305AC, symSize: 0x2C }
  - { offsetInCU: 0x409EC, offset: 0x6BAAE, size: 0x8, addend: 0x0, symName: __ZNSt3__116__non_trivial_ifILb1ENS_9allocatorINS_11__tree_nodeINS_12__value_typeIN5boost13re_detail_50021cpp_regex_traits_baseIcEENS_15__list_iteratorINS_4pairINS_10shared_ptrIKNS5_31cpp_regex_traits_implementationIcEEEEPKS7_EEPvEEEESI_EEEEEC2B8ue170006Ev, symObjAddr: 0x15C94, symBinAddr: 0x1000305D8, symSize: 0x14 }
  - { offsetInCU: 0x40A16, offset: 0x6BAD8, size: 0x8, addend: 0x0, symName: __ZNSt3__117__compressed_pairImNS_19__map_value_compareIN5boost13re_detail_50021cpp_regex_traits_baseIcEENS_12__value_typeIS5_NS_15__list_iteratorINS_4pairINS_10shared_ptrIKNS3_31cpp_regex_traits_implementationIcEEEEPKS5_EEPvEEEENS_4lessIS5_EELb1EEEEC2B8ue170006IiRKSM_EEOT_OT0_, symObjAddr: 0x15CA8, symBinAddr: 0x1000305EC, symSize: 0x44 }
  - { offsetInCU: 0x40A6E, offset: 0x6BB30, size: 0x8, addend: 0x0, symName: __ZNSt3__122__compressed_pair_elemINS_19__map_value_compareIN5boost13re_detail_50021cpp_regex_traits_baseIcEENS_12__value_typeIS5_NS_15__list_iteratorINS_4pairINS_10shared_ptrIKNS3_31cpp_regex_traits_implementationIcEEEEPKS5_EEPvEEEENS_4lessIS5_EELb1EEELi1ELb1EEC2B8ue170006IRKSM_vEEOT_, symObjAddr: 0x15DC4, symBinAddr: 0x100030630, symSize: 0x18 }
  - { offsetInCU: 0x40AB0, offset: 0x6BB72, size: 0x8, addend: 0x0, symName: __ZNSt3__114pointer_traitsIPNS_15__tree_end_nodeIPNS_16__tree_node_baseIPvEEEEE10pointer_toB8ue170006ERS6_, symObjAddr: 0x15DDC, symBinAddr: 0x100030648, symSize: 0x14 }
  - { offsetInCU: 0x40AD3, offset: 0x6BB95, size: 0x8, addend: 0x0, symName: __ZNSt3__117__compressed_pairINS_15__tree_end_nodeIPNS_16__tree_node_baseIPvEEEENS_9allocatorINS_11__tree_nodeINS_12__value_typeIN5boost13re_detail_50021cpp_regex_traits_baseIcEENS_15__list_iteratorINS_4pairINS_10shared_ptrIKNSB_31cpp_regex_traits_implementationIcEEEEPKSD_EES3_EEEES3_EEEEE5firstB8ue170006Ev, symObjAddr: 0x15DF0, symBinAddr: 0x10003065C, symSize: 0x24 }
  - { offsetInCU: 0x40AF9, offset: 0x6BBBB, size: 0x8, addend: 0x0, symName: __ZNSt3__122__compressed_pair_elemINS_15__tree_end_nodeIPNS_16__tree_node_baseIPvEEEELi0ELb0EE5__getB8ue170006Ev, symObjAddr: 0x15E14, symBinAddr: 0x100030680, symSize: 0x14 }
  - { offsetInCU: 0x40B1F, offset: 0x6BBE1, size: 0x8, addend: 0x0, symName: __ZN5boost12object_cacheINS_13re_detail_50021cpp_regex_traits_baseIcEENS1_31cpp_regex_traits_implementationIcEEE4dataD2Ev, symObjAddr: 0x15E28, symBinAddr: 0x100030694, symSize: 0x38 }
  - { offsetInCU: 0x40B4B, offset: 0x6BC0D, size: 0x8, addend: 0x0, symName: __ZNSt3__13mapIN5boost13re_detail_50021cpp_regex_traits_baseIcEENS_15__list_iteratorINS_4pairINS_10shared_ptrIKNS2_31cpp_regex_traits_implementationIcEEEEPKS4_EEPvEENS_4lessIS4_EENS_9allocatorINS6_ISC_SG_EEEEED1B8ue170006Ev, symObjAddr: 0x15E60, symBinAddr: 0x1000306CC, symSize: 0x2C }
  - { offsetInCU: 0x40B75, offset: 0x6BC37, size: 0x8, addend: 0x0, symName: __ZNSt3__13mapIN5boost13re_detail_50021cpp_regex_traits_baseIcEENS_15__list_iteratorINS_4pairINS_10shared_ptrIKNS2_31cpp_regex_traits_implementationIcEEEEPKS4_EEPvEENS_4lessIS4_EENS_9allocatorINS6_ISC_SG_EEEEED2B8ue170006Ev, symObjAddr: 0x15E8C, symBinAddr: 0x1000306F8, symSize: 0x2C }
  - { offsetInCU: 0x40B9F, offset: 0x6BC61, size: 0x8, addend: 0x0, symName: __ZNSt3__16__treeINS_12__value_typeIN5boost13re_detail_50021cpp_regex_traits_baseIcEENS_15__list_iteratorINS_4pairINS_10shared_ptrIKNS3_31cpp_regex_traits_implementationIcEEEEPKS5_EEPvEEEENS_19__map_value_compareIS5_SI_NS_4lessIS5_EELb1EEENS_9allocatorISI_EEED1Ev, symObjAddr: 0x15EB8, symBinAddr: 0x100030724, symSize: 0x2C }
  - { offsetInCU: 0x40BCB, offset: 0x6BC8D, size: 0x8, addend: 0x0, symName: __ZNSt3__16__treeINS_12__value_typeIN5boost13re_detail_50021cpp_regex_traits_baseIcEENS_15__list_iteratorINS_4pairINS_10shared_ptrIKNS3_31cpp_regex_traits_implementationIcEEEEPKS5_EEPvEEEENS_19__map_value_compareIS5_SI_NS_4lessIS5_EELb1EEENS_9allocatorISI_EEED2Ev, symObjAddr: 0x15EE4, symBinAddr: 0x100030750, symSize: 0x38 }
  - { offsetInCU: 0x40BF7, offset: 0x6BCB9, size: 0x8, addend: 0x0, symName: __ZNSt3__16__treeINS_12__value_typeIN5boost13re_detail_50021cpp_regex_traits_baseIcEENS_15__list_iteratorINS_4pairINS_10shared_ptrIKNS3_31cpp_regex_traits_implementationIcEEEEPKS5_EEPvEEEENS_19__map_value_compareIS5_SI_NS_4lessIS5_EELb1EEENS_9allocatorISI_EEE7destroyEPNS_11__tree_nodeISI_SG_EE, symObjAddr: 0x15F1C, symBinAddr: 0x100030788, symSize: 0x134 }
  - { offsetInCU: 0x40C44, offset: 0x6BD06, size: 0x8, addend: 0x0, symName: __ZNKSt3__16__treeINS_12__value_typeIN5boost13re_detail_50021cpp_regex_traits_baseIcEENS_15__list_iteratorINS_4pairINS_10shared_ptrIKNS3_31cpp_regex_traits_implementationIcEEEEPKS5_EEPvEEEENS_19__map_value_compareIS5_SI_NS_4lessIS5_EELb1EEENS_9allocatorISI_EEE6__rootB8ue170006Ev, symObjAddr: 0x16050, symBinAddr: 0x1000308BC, symSize: 0x6C }
  - { offsetInCU: 0x40C6A, offset: 0x6BD2C, size: 0x8, addend: 0x0, symName: __ZNSt3__16__treeINS_12__value_typeIN5boost13re_detail_50021cpp_regex_traits_baseIcEENS_15__list_iteratorINS_4pairINS_10shared_ptrIKNS3_31cpp_regex_traits_implementationIcEEEEPKS5_EEPvEEEENS_19__map_value_compareIS5_SI_NS_4lessIS5_EELb1EEENS_9allocatorISI_EEE12__node_allocB8ue170006Ev, symObjAddr: 0x160BC, symBinAddr: 0x100030928, symSize: 0x28 }
  - { offsetInCU: 0x40C90, offset: 0x6BD52, size: 0x8, addend: 0x0, symName: __ZNSt3__116allocator_traitsINS_9allocatorINS_11__tree_nodeINS_12__value_typeIN5boost13re_detail_50021cpp_regex_traits_baseIcEENS_15__list_iteratorINS_4pairINS_10shared_ptrIKNS5_31cpp_regex_traits_implementationIcEEEEPKS7_EEPvEEEESI_EEEEE7destroyB8ue170006INS9_ISF_SJ_EEvvEEvRSM_PT_, symObjAddr: 0x160E4, symBinAddr: 0x100030950, symSize: 0x28 }
  - { offsetInCU: 0x40CCB, offset: 0x6BD8D, size: 0x8, addend: 0x0, symName: __ZNSt3__122__tree_key_value_typesINS_12__value_typeIN5boost13re_detail_50021cpp_regex_traits_baseIcEENS_15__list_iteratorINS_4pairINS_10shared_ptrIKNS3_31cpp_regex_traits_implementationIcEEEEPKS5_EEPvEEEEE9__get_ptrB8ue170006ERSI_, symObjAddr: 0x1610C, symBinAddr: 0x100030978, symSize: 0x24 }
  - { offsetInCU: 0x40CEF, offset: 0x6BDB1, size: 0x8, addend: 0x0, symName: __ZNSt3__116allocator_traitsINS_9allocatorINS_11__tree_nodeINS_12__value_typeIN5boost13re_detail_50021cpp_regex_traits_baseIcEENS_15__list_iteratorINS_4pairINS_10shared_ptrIKNS5_31cpp_regex_traits_implementationIcEEEEPKS7_EEPvEEEESI_EEEEE10deallocateB8ue170006ERSM_PSL_m, symObjAddr: 0x16130, symBinAddr: 0x10003099C, symSize: 0x34 }
  - { offsetInCU: 0x40D31, offset: 0x6BDF3, size: 0x8, addend: 0x0, symName: __ZNSt3__117__compressed_pairINS_15__tree_end_nodeIPNS_16__tree_node_baseIPvEEEENS_9allocatorINS_11__tree_nodeINS_12__value_typeIN5boost13re_detail_50021cpp_regex_traits_baseIcEENS_15__list_iteratorINS_4pairINS_10shared_ptrIKNSB_31cpp_regex_traits_implementationIcEEEEPKSD_EES3_EEEES3_EEEEE6secondB8ue170006Ev, symObjAddr: 0x16164, symBinAddr: 0x1000309D0, symSize: 0x24 }
  - { offsetInCU: 0x40D57, offset: 0x6BE19, size: 0x8, addend: 0x0, symName: __ZNSt3__122__compressed_pair_elemINS_9allocatorINS_11__tree_nodeINS_12__value_typeIN5boost13re_detail_50021cpp_regex_traits_baseIcEENS_15__list_iteratorINS_4pairINS_10shared_ptrIKNS5_31cpp_regex_traits_implementationIcEEEEPKS7_EEPvEEEESI_EEEELi1ELb1EE5__getB8ue170006Ev, symObjAddr: 0x16188, symBinAddr: 0x1000309F4, symSize: 0x14 }
  - { offsetInCU: 0x40D7D, offset: 0x6BE3F, size: 0x8, addend: 0x0, symName: __ZNSt3__14pairIKN5boost13re_detail_50021cpp_regex_traits_baseIcEENS_15__list_iteratorINS0_INS_10shared_ptrIKNS2_31cpp_regex_traits_implementationIcEEEEPS5_EEPvEEED1Ev, symObjAddr: 0x161E4, symBinAddr: 0x100030A50, symSize: 0x2C }
  - { offsetInCU: 0x40DA9, offset: 0x6BE6B, size: 0x8, addend: 0x0, symName: __ZNSt3__14pairIKN5boost13re_detail_50021cpp_regex_traits_baseIcEENS_15__list_iteratorINS0_INS_10shared_ptrIKNS2_31cpp_regex_traits_implementationIcEEEEPS5_EEPvEEED2Ev, symObjAddr: 0x16210, symBinAddr: 0x100030A7C, symSize: 0x2C }
  - { offsetInCU: 0x40DD5, offset: 0x6BE97, size: 0x8, addend: 0x0, symName: __ZNSt3__112__value_typeIN5boost13re_detail_50021cpp_regex_traits_baseIcEENS_15__list_iteratorINS_4pairINS_10shared_ptrIKNS2_31cpp_regex_traits_implementationIcEEEEPKS4_EEPvEEE11__get_valueB8ue170006Ev, symObjAddr: 0x1623C, symBinAddr: 0x100030AA8, symSize: 0x24 }
  - { offsetInCU: 0x40DFB, offset: 0x6BEBD, size: 0x8, addend: 0x0, symName: __ZNSt3__19allocatorINS_11__tree_nodeINS_12__value_typeIN5boost13re_detail_50021cpp_regex_traits_baseIcEENS_15__list_iteratorINS_4pairINS_10shared_ptrIKNS4_31cpp_regex_traits_implementationIcEEEEPKS6_EEPvEEEESH_EEE10deallocateB8ue170006EPSK_m, symObjAddr: 0x16298, symBinAddr: 0x100030B04, symSize: 0x50 }
  - { offsetInCU: 0x40E3D, offset: 0x6BEFF, size: 0x8, addend: 0x0, symName: __ZNKSt3__16__treeINS_12__value_typeIN5boost13re_detail_50021cpp_regex_traits_baseIcEENS_15__list_iteratorINS_4pairINS_10shared_ptrIKNS3_31cpp_regex_traits_implementationIcEEEEPKS5_EEPvEEEENS_19__map_value_compareIS5_SI_NS_4lessIS5_EELb1EEENS_9allocatorISI_EEE10__end_nodeB8ue170006Ev, symObjAddr: 0x162E8, symBinAddr: 0x100030B54, symSize: 0x2C }
  - { offsetInCU: 0x40E63, offset: 0x6BF25, size: 0x8, addend: 0x0, symName: __ZNKSt3__117__compressed_pairINS_15__tree_end_nodeIPNS_16__tree_node_baseIPvEEEENS_9allocatorINS_11__tree_nodeINS_12__value_typeIN5boost13re_detail_50021cpp_regex_traits_baseIcEENS_15__list_iteratorINS_4pairINS_10shared_ptrIKNSB_31cpp_regex_traits_implementationIcEEEEPKSD_EES3_EEEES3_EEEEE5firstB8ue170006Ev, symObjAddr: 0x16314, symBinAddr: 0x100030B80, symSize: 0x24 }
  - { offsetInCU: 0x40E89, offset: 0x6BF4B, size: 0x8, addend: 0x0, symName: __ZNKSt3__122__compressed_pair_elemINS_15__tree_end_nodeIPNS_16__tree_node_baseIPvEEEELi0ELb0EE5__getB8ue170006Ev, symObjAddr: 0x16338, symBinAddr: 0x100030BA4, symSize: 0x14 }
  - { offsetInCU: 0x40EAF, offset: 0x6BF71, size: 0x8, addend: 0x0, symName: __ZNSt3__16__treeINS_12__value_typeIN5boost13re_detail_50021cpp_regex_traits_baseIcEENS_15__list_iteratorINS_4pairINS_10shared_ptrIKNS3_31cpp_regex_traits_implementationIcEEEEPKS5_EEPvEEEENS_19__map_value_compareIS5_SI_NS_4lessIS5_EELb1EEENS_9allocatorISI_EEE4findIS5_EENS_15__tree_iteratorISI_PNS_11__tree_nodeISI_SG_EElEERKT_, symObjAddr: 0x1634C, symBinAddr: 0x100030BB8, symSize: 0x3FC }
  - { offsetInCU: 0x40F04, offset: 0x6BFC6, size: 0x8, addend: 0x0, symName: __ZNSt3__114__map_iteratorINS_15__tree_iteratorINS_12__value_typeIN5boost13re_detail_50021cpp_regex_traits_baseIcEENS_15__list_iteratorINS_4pairINS_10shared_ptrIKNS4_31cpp_regex_traits_implementationIcEEEEPKS6_EEPvEEEEPNS_11__tree_nodeISJ_SH_EElEEEC1B8ue170006ESN_, symObjAddr: 0x16748, symBinAddr: 0x100030FB4, symSize: 0x238 }
  - { offsetInCU: 0x40F42, offset: 0x6C004, size: 0x8, addend: 0x0, symName: __ZNSt3__16__treeINS_12__value_typeIN5boost13re_detail_50021cpp_regex_traits_baseIcEENS_15__list_iteratorINS_4pairINS_10shared_ptrIKNS3_31cpp_regex_traits_implementationIcEEEEPKS5_EEPvEEEENS_19__map_value_compareIS5_SI_NS_4lessIS5_EELb1EEENS_9allocatorISI_EEE13__lower_boundIS5_EENS_15__tree_iteratorISI_PNS_11__tree_nodeISI_SG_EElEERKT_SU_PNS_15__tree_end_nodeIPNS_16__tree_node_baseISG_EEEE, symObjAddr: 0x16980, symBinAddr: 0x1000311EC, symSize: 0x2E0 }
  - { offsetInCU: 0x40FA4, offset: 0x6C066, size: 0x8, addend: 0x0, symName: __ZNSt3__16__treeINS_12__value_typeIN5boost13re_detail_50021cpp_regex_traits_baseIcEENS_15__list_iteratorINS_4pairINS_10shared_ptrIKNS3_31cpp_regex_traits_implementationIcEEEEPKS5_EEPvEEEENS_19__map_value_compareIS5_SI_NS_4lessIS5_EELb1EEENS_9allocatorISI_EEE3endB8ue170006Ev, symObjAddr: 0x16C94, symBinAddr: 0x100031500, symSize: 0x204 }
  - { offsetInCU: 0x40FCB, offset: 0x6C08D, size: 0x8, addend: 0x0, symName: __ZNSt3__16__treeINS_12__value_typeIN5boost13re_detail_50021cpp_regex_traits_baseIcEENS_15__list_iteratorINS_4pairINS_10shared_ptrIKNS3_31cpp_regex_traits_implementationIcEEEEPKS5_EEPvEEEENS_19__map_value_compareIS5_SI_NS_4lessIS5_EELb1EEENS_9allocatorISI_EEE10value_compB8ue170006Ev, symObjAddr: 0x16E98, symBinAddr: 0x100031704, symSize: 0x28 }
  - { offsetInCU: 0x40FF1, offset: 0x6C0B3, size: 0x8, addend: 0x0, symName: __ZNKSt3__119__map_value_compareIN5boost13re_detail_50021cpp_regex_traits_baseIcEENS_12__value_typeIS4_NS_15__list_iteratorINS_4pairINS_10shared_ptrIKNS2_31cpp_regex_traits_implementationIcEEEEPKS4_EEPvEEEENS_4lessIS4_EELb1EEclB8ue170006ERSD_RKSI_, symObjAddr: 0x16EC0, symBinAddr: 0x10003172C, symSize: 0x50 }
  - { offsetInCU: 0x41035, offset: 0x6C0F7, size: 0x8, addend: 0x0, symName: __ZNKSt3__115__tree_iteratorINS_12__value_typeIN5boost13re_detail_50021cpp_regex_traits_baseIcEENS_15__list_iteratorINS_4pairINS_10shared_ptrIKNS3_31cpp_regex_traits_implementationIcEEEEPKS5_EEPvEEEEPNS_11__tree_nodeISI_SG_EElEdeB8ue170006Ev, symObjAddr: 0x16F10, symBinAddr: 0x10003177C, symSize: 0x28 }
  - { offsetInCU: 0x4105B, offset: 0x6C11D, size: 0x8, addend: 0x0, symName: __ZNKSt3__119__map_value_compareIN5boost13re_detail_50021cpp_regex_traits_baseIcEENS_12__value_typeIS4_NS_15__list_iteratorINS_4pairINS_10shared_ptrIKNS2_31cpp_regex_traits_implementationIcEEEEPKS4_EEPvEEEENS_4lessIS4_EELb1EEclB8ue170006ERKSI_RSD_, symObjAddr: 0x16F38, symBinAddr: 0x1000317A4, symSize: 0x48 }
  - { offsetInCU: 0x4109F, offset: 0x6C161, size: 0x8, addend: 0x0, symName: __ZNSt3__115__tree_iteratorINS_12__value_typeIN5boost13re_detail_50021cpp_regex_traits_baseIcEENS_15__list_iteratorINS_4pairINS_10shared_ptrIKNS3_31cpp_regex_traits_implementationIcEEEEPKS5_EEPvEEEEPNS_11__tree_nodeISI_SG_EElEC1B8ue170006EPNS_15__tree_end_nodeIPNS_16__tree_node_baseISG_EEEE, symObjAddr: 0x16F80, symBinAddr: 0x1000317EC, symSize: 0x34 }
  - { offsetInCU: 0x410D8, offset: 0x6C19A, size: 0x8, addend: 0x0, symName: __ZNKSt3__14lessIN5boost13re_detail_50021cpp_regex_traits_baseIcEEEclB8ue170006ERKS4_S7_, symObjAddr: 0x16FB4, symBinAddr: 0x100031820, symSize: 0x34 }
  - { offsetInCU: 0x4111C, offset: 0x6C1DE, size: 0x8, addend: 0x0, symName: __ZNKSt3__112__value_typeIN5boost13re_detail_50021cpp_regex_traits_baseIcEENS_15__list_iteratorINS_4pairINS_10shared_ptrIKNS2_31cpp_regex_traits_implementationIcEEEEPKS4_EEPvEEE11__get_valueB8ue170006Ev, symObjAddr: 0x16FE8, symBinAddr: 0x100031854, symSize: 0x24 }
  - { offsetInCU: 0x41142, offset: 0x6C204, size: 0x8, addend: 0x0, symName: __ZNK5boost13re_detail_50021cpp_regex_traits_baseIcEltERKS2_, symObjAddr: 0x1700C, symBinAddr: 0x100031878, symSize: 0x334 }
  - { offsetInCU: 0x41176, offset: 0x6C238, size: 0x8, addend: 0x0, symName: __ZNSt3__115__tree_iteratorINS_12__value_typeIN5boost13re_detail_50021cpp_regex_traits_baseIcEENS_15__list_iteratorINS_4pairINS_10shared_ptrIKNS3_31cpp_regex_traits_implementationIcEEEEPKS5_EEPvEEEEPNS_11__tree_nodeISI_SG_EElEC2B8ue170006EPNS_15__tree_end_nodeIPNS_16__tree_node_baseISG_EEEE, symObjAddr: 0x17378, symBinAddr: 0x100031BE4, symSize: 0x70 }
  - { offsetInCU: 0x411AF, offset: 0x6C271, size: 0x8, addend: 0x0, symName: __ZNSt3__117__compressed_pairImNS_19__map_value_compareIN5boost13re_detail_50021cpp_regex_traits_baseIcEENS_12__value_typeIS5_NS_15__list_iteratorINS_4pairINS_10shared_ptrIKNS3_31cpp_regex_traits_implementationIcEEEEPKS5_EEPvEEEENS_4lessIS5_EELb1EEEE6secondB8ue170006Ev, symObjAddr: 0x174A0, symBinAddr: 0x100031D0C, symSize: 0x24 }
  - { offsetInCU: 0x411D5, offset: 0x6C297, size: 0x8, addend: 0x0, symName: __ZNSt3__122__compressed_pair_elemINS_19__map_value_compareIN5boost13re_detail_50021cpp_regex_traits_baseIcEENS_12__value_typeIS5_NS_15__list_iteratorINS_4pairINS_10shared_ptrIKNS3_31cpp_regex_traits_implementationIcEEEEPKS5_EEPvEEEENS_4lessIS5_EELb1EEELi1ELb1EE5__getB8ue170006Ev, symObjAddr: 0x174C4, symBinAddr: 0x100031D30, symSize: 0x14 }
  - { offsetInCU: 0x411FB, offset: 0x6C2BD, size: 0x8, addend: 0x0, symName: __ZNKSt3__115__tree_iteratorINS_12__value_typeIN5boost13re_detail_50021cpp_regex_traits_baseIcEENS_15__list_iteratorINS_4pairINS_10shared_ptrIKNS3_31cpp_regex_traits_implementationIcEEEEPKS5_EEPvEEEEPNS_11__tree_nodeISI_SG_EElE8__get_npB8ue170006Ev, symObjAddr: 0x174D8, symBinAddr: 0x100031D44, symSize: 0x60 }
  - { offsetInCU: 0x41221, offset: 0x6C2E3, size: 0x8, addend: 0x0, symName: __ZNSt3__114__map_iteratorINS_15__tree_iteratorINS_12__value_typeIN5boost13re_detail_50021cpp_regex_traits_baseIcEENS_15__list_iteratorINS_4pairINS_10shared_ptrIKNS4_31cpp_regex_traits_implementationIcEEEEPKS6_EEPvEEEEPNS_11__tree_nodeISJ_SH_EElEEEC2B8ue170006ESN_, symObjAddr: 0x17538, symBinAddr: 0x100031DA4, symSize: 0x204 }
  - { offsetInCU: 0x4125F, offset: 0x6C321, size: 0x8, addend: 0x0, symName: __ZNSt3__110__list_impINS_4pairINS_10shared_ptrIKN5boost13re_detail_50031cpp_regex_traits_implementationIcEEEEPKNS4_21cpp_regex_traits_baseIcEEEENS_9allocatorISD_EEE3endB8ue170006Ev, symObjAddr: 0x177F4, symBinAddr: 0x100032060, symSize: 0x204 }
  - { offsetInCU: 0x41286, offset: 0x6C348, size: 0x8, addend: 0x0, symName: __ZNKSt3__110__list_impINS_4pairINS_10shared_ptrIKN5boost13re_detail_50031cpp_regex_traits_implementationIcEEEEPKNS4_21cpp_regex_traits_baseIcEEEENS_9allocatorISD_EEE13__end_as_linkB8ue170006Ev, symObjAddr: 0x179F8, symBinAddr: 0x100032264, symSize: 0x50 }
  - { offsetInCU: 0x412AC, offset: 0x6C36E, size: 0x8, addend: 0x0, symName: __ZNSt3__115__list_iteratorINS_4pairINS_10shared_ptrIKN5boost13re_detail_50031cpp_regex_traits_implementationIcEEEEPKNS4_21cpp_regex_traits_baseIcEEEEPvEC1B8ue170006EPNS_16__list_node_baseISD_SE_EE, symObjAddr: 0x17A48, symBinAddr: 0x1000322B4, symSize: 0x34 }
  - { offsetInCU: 0x412E5, offset: 0x6C3A7, size: 0x8, addend: 0x0, symName: __ZNSt3__126__list_node_pointer_traitsINS_4pairINS_10shared_ptrIKN5boost13re_detail_50031cpp_regex_traits_implementationIcEEEEPKNS4_21cpp_regex_traits_baseIcEEEEPvE26__unsafe_link_pointer_castB8ue170006EPNS_16__list_node_baseISD_SE_EE, symObjAddr: 0x17A7C, symBinAddr: 0x1000322E8, symSize: 0x14 }
  - { offsetInCU: 0x41309, offset: 0x6C3CB, size: 0x8, addend: 0x0, symName: __ZNSt3__116__list_node_baseINS_4pairINS_10shared_ptrIKN5boost13re_detail_50031cpp_regex_traits_implementationIcEEEEPKNS4_21cpp_regex_traits_baseIcEEEEPvE6__selfB8ue170006Ev, symObjAddr: 0x17A90, symBinAddr: 0x1000322FC, symSize: 0x24 }
  - { offsetInCU: 0x41334, offset: 0x6C3F6, size: 0x8, addend: 0x0, symName: __ZNSt3__114pointer_traitsIPNS_16__list_node_baseINS_4pairINS_10shared_ptrIKN5boost13re_detail_50031cpp_regex_traits_implementationIcEEEEPKNS5_21cpp_regex_traits_baseIcEEEEPvEEE10pointer_toB8ue170006ERSG_, symObjAddr: 0x17AB4, symBinAddr: 0x100032320, symSize: 0x14 }
  - { offsetInCU: 0x41357, offset: 0x6C419, size: 0x8, addend: 0x0, symName: __ZNSt3__115__list_iteratorINS_4pairINS_10shared_ptrIKN5boost13re_detail_50031cpp_regex_traits_implementationIcEEEEPKNS4_21cpp_regex_traits_baseIcEEEEPvEC2B8ue170006EPNS_16__list_node_baseISD_SE_EE, symObjAddr: 0x17AC8, symBinAddr: 0x100032334, symSize: 0x70 }
  - { offsetInCU: 0x41390, offset: 0x6C452, size: 0x8, addend: 0x0, symName: __ZNSt3__114pointer_traitsIPNS_4pairIKN5boost13re_detail_50021cpp_regex_traits_baseIcEENS_15__list_iteratorINS1_INS_10shared_ptrIKNS3_31cpp_regex_traits_implementationIcEEEEPS6_EEPvEEEEE10pointer_toB8ue170006ERSH_, symObjAddr: 0x17B38, symBinAddr: 0x1000323A4, symSize: 0x14 }
  - { offsetInCU: 0x413B3, offset: 0x6C475, size: 0x8, addend: 0x0, symName: __ZNKSt3__115__tree_iteratorINS_12__value_typeIN5boost13re_detail_50021cpp_regex_traits_baseIcEENS_15__list_iteratorINS_4pairINS_10shared_ptrIKNS3_31cpp_regex_traits_implementationIcEEEEPKS5_EEPvEEEEPNS_11__tree_nodeISI_SG_EElEptB8ue170006Ev, symObjAddr: 0x17B4C, symBinAddr: 0x1000323B8, symSize: 0x2C }
  - { offsetInCU: 0x413D9, offset: 0x6C49B, size: 0x8, addend: 0x0, symName: __ZNSt3__114pointer_traitsIPNS_12__value_typeIN5boost13re_detail_50021cpp_regex_traits_baseIcEENS_15__list_iteratorINS_4pairINS_10shared_ptrIKNS3_31cpp_regex_traits_implementationIcEEEEPKS5_EEPvEEEEE10pointer_toB8ue170006ERSI_, symObjAddr: 0x17B78, symBinAddr: 0x1000323E4, symSize: 0x14 }
  - { offsetInCU: 0x413FC, offset: 0x6C4BE, size: 0x8, addend: 0x0, symName: __ZNSt3__14listINS_4pairINS_10shared_ptrIKN5boost13re_detail_50031cpp_regex_traits_implementationIcEEEEPKNS4_21cpp_regex_traits_baseIcEEEENS_9allocatorISD_EEEC2B8ue170006Ev, symObjAddr: 0x17B8C, symBinAddr: 0x1000323F8, symSize: 0x2C }
  - { offsetInCU: 0x41426, offset: 0x6C4E8, size: 0x8, addend: 0x0, symName: __ZNSt3__110__list_impINS_4pairINS_10shared_ptrIKN5boost13re_detail_50031cpp_regex_traits_implementationIcEEEEPKNS4_21cpp_regex_traits_baseIcEEEENS_9allocatorISD_EEEC2Ev, symObjAddr: 0x17BB8, symBinAddr: 0x100032424, symSize: 0x290 }
  - { offsetInCU: 0x41453, offset: 0x6C515, size: 0x8, addend: 0x0, symName: __ZNSt3__116__list_node_baseINS_4pairINS_10shared_ptrIKN5boost13re_detail_50031cpp_regex_traits_implementationIcEEEEPKNS4_21cpp_regex_traits_baseIcEEEEPvEC1B8ue170006Ev, symObjAddr: 0x17E48, symBinAddr: 0x1000326B4, symSize: 0x2C }
  - { offsetInCU: 0x4147D, offset: 0x6C53F, size: 0x8, addend: 0x0, symName: __ZNSt3__117__compressed_pairImNS_9allocatorINS_11__list_nodeINS_4pairINS_10shared_ptrIKN5boost13re_detail_50031cpp_regex_traits_implementationIcEEEEPKNS6_21cpp_regex_traits_baseIcEEEEPvEEEEEC1B8ue170006IiNS_18__default_init_tagEEEOT_OT0_, symObjAddr: 0x17E74, symBinAddr: 0x1000326E0, symSize: 0x3C }
  - { offsetInCU: 0x414D5, offset: 0x6C597, size: 0x8, addend: 0x0, symName: __ZNSt3__116__list_node_baseINS_4pairINS_10shared_ptrIKN5boost13re_detail_50031cpp_regex_traits_implementationIcEEEEPKNS4_21cpp_regex_traits_baseIcEEEEPvEC2B8ue170006Ev, symObjAddr: 0x17EB0, symBinAddr: 0x10003271C, symSize: 0xCC }
  - { offsetInCU: 0x414FF, offset: 0x6C5C1, size: 0x8, addend: 0x0, symName: __ZNSt3__117__compressed_pairImNS_9allocatorINS_11__list_nodeINS_4pairINS_10shared_ptrIKN5boost13re_detail_50031cpp_regex_traits_implementationIcEEEEPKNS6_21cpp_regex_traits_baseIcEEEEPvEEEEEC2B8ue170006IiNS_18__default_init_tagEEEOT_OT0_, symObjAddr: 0x17F7C, symBinAddr: 0x1000327E8, symSize: 0x40 }
  - { offsetInCU: 0x41557, offset: 0x6C619, size: 0x8, addend: 0x0, symName: __ZNSt3__122__compressed_pair_elemINS_9allocatorINS_11__list_nodeINS_4pairINS_10shared_ptrIKN5boost13re_detail_50031cpp_regex_traits_implementationIcEEEEPKNS6_21cpp_regex_traits_baseIcEEEEPvEEEELi1ELb1EEC2B8ue170006ENS_18__default_init_tagE, symObjAddr: 0x17FBC, symBinAddr: 0x100032828, symSize: 0x2C }
  - { offsetInCU: 0x4158C, offset: 0x6C64E, size: 0x8, addend: 0x0, symName: __ZNSt3__19allocatorINS_11__list_nodeINS_4pairINS_10shared_ptrIKN5boost13re_detail_50031cpp_regex_traits_implementationIcEEEEPKNS5_21cpp_regex_traits_baseIcEEEEPvEEEC2B8ue170006Ev, symObjAddr: 0x17FE8, symBinAddr: 0x100032854, symSize: 0x2C }
  - { offsetInCU: 0x415B6, offset: 0x6C678, size: 0x8, addend: 0x0, symName: __ZNSt3__116__non_trivial_ifILb1ENS_9allocatorINS_11__list_nodeINS_4pairINS_10shared_ptrIKN5boost13re_detail_50031cpp_regex_traits_implementationIcEEEEPKNS6_21cpp_regex_traits_baseIcEEEEPvEEEEEC2B8ue170006Ev, symObjAddr: 0x18014, symBinAddr: 0x100032880, symSize: 0x14 }
  - { offsetInCU: 0x415E0, offset: 0x6C6A2, size: 0x8, addend: 0x0, symName: __ZNSt3__110__list_impINS_4pairINS_10shared_ptrIKN5boost13re_detail_50031cpp_regex_traits_implementationIcEEEEPKNS4_21cpp_regex_traits_baseIcEEEENS_9allocatorISD_EEE14__unlink_nodesEPNS_16__list_node_baseISD_PvEESK_, symObjAddr: 0x18028, symBinAddr: 0x100032894, symSize: 0x1A8 }
  - { offsetInCU: 0x41615, offset: 0x6C6D7, size: 0x8, addend: 0x0, symName: __ZNSt3__14listINS_4pairINS_10shared_ptrIKN5boost13re_detail_50031cpp_regex_traits_implementationIcEEEEPKNS4_21cpp_regex_traits_baseIcEEEENS_9allocatorISD_EEE12__link_nodesEPNS_16__list_node_baseISD_PvEESK_SK_, symObjAddr: 0x181D0, symBinAddr: 0x100032A3C, symSize: 0x1C8 }
  - { offsetInCU: 0x41659, offset: 0x6C71B, size: 0x8, addend: 0x0, symName: __ZNSt3__110__list_impINS_4pairINS_10shared_ptrIKN5boost13re_detail_50031cpp_regex_traits_implementationIcEEEEPKNS4_21cpp_regex_traits_baseIcEEEENS_9allocatorISD_EEE4__szB8ue170006Ev, symObjAddr: 0x18398, symBinAddr: 0x100032C04, symSize: 0x28 }
  - { offsetInCU: 0x4167F, offset: 0x6C741, size: 0x8, addend: 0x0, symName: __ZNSt3__117__compressed_pairImNS_9allocatorINS_11__list_nodeINS_4pairINS_10shared_ptrIKN5boost13re_detail_50031cpp_regex_traits_implementationIcEEEEPKNS6_21cpp_regex_traits_baseIcEEEEPvEEEEE5firstB8ue170006Ev, symObjAddr: 0x183C0, symBinAddr: 0x100032C2C, symSize: 0x24 }
  - { offsetInCU: 0x416A5, offset: 0x6C767, size: 0x8, addend: 0x0, symName: __ZNSt3__121__list_const_iteratorINS_4pairINS_10shared_ptrIKN5boost13re_detail_50031cpp_regex_traits_implementationIcEEEEPKNS4_21cpp_regex_traits_baseIcEEEEPvEC2B8ue170006ERKNS_15__list_iteratorISD_SE_EE, symObjAddr: 0x183F8, symBinAddr: 0x100032C50, symSize: 0xB0 }
  - { offsetInCU: 0x416DE, offset: 0x6C7A0, size: 0x8, addend: 0x0, symName: __ZNSt3__110__list_impINS_4pairINS_10shared_ptrIKN5boost13re_detail_50031cpp_regex_traits_implementationIcEEEEPKNS4_21cpp_regex_traits_baseIcEEEENS_9allocatorISD_EEE5beginB8ue170006Ev, symObjAddr: 0x184A8, symBinAddr: 0x100032D00, symSize: 0x234 }
  - { offsetInCU: 0x41705, offset: 0x6C7C7, size: 0x8, addend: 0x0, symName: __ZNSt3__116__list_node_baseINS_4pairINS_10shared_ptrIKN5boost13re_detail_50031cpp_regex_traits_implementationIcEEEEPKNS4_21cpp_regex_traits_baseIcEEEEPvE9__as_nodeB8ue170006Ev, symObjAddr: 0x186DC, symBinAddr: 0x100032F34, symSize: 0x24 }
  - { offsetInCU: 0x4172B, offset: 0x6C7ED, size: 0x8, addend: 0x0, symName: __ZNSt3__114pointer_traitsIPNS_4pairINS_10shared_ptrIKN5boost13re_detail_50031cpp_regex_traits_implementationIcEEEEPKNS4_21cpp_regex_traits_baseIcEEEEE10pointer_toB8ue170006ERSD_, symObjAddr: 0x18700, symBinAddr: 0x100032F58, symSize: 0x14 }
  - { offsetInCU: 0x4174E, offset: 0x6C810, size: 0x8, addend: 0x0, symName: __ZNSt3__14listINS_4pairINS_10shared_ptrIKN5boost13re_detail_50031cpp_regex_traits_implementationIcEEEEPKNS4_21cpp_regex_traits_baseIcEEEENS_9allocatorISD_EEED2Ev, symObjAddr: 0x18714, symBinAddr: 0x100032F6C, symSize: 0x2C }
  - { offsetInCU: 0x4177B, offset: 0x6C83D, size: 0x8, addend: 0x0, symName: __ZNSt3__110__list_impINS_4pairINS_10shared_ptrIKN5boost13re_detail_50031cpp_regex_traits_implementationIcEEEEPKNS4_21cpp_regex_traits_baseIcEEEENS_9allocatorISD_EEED2Ev, symObjAddr: 0x18740, symBinAddr: 0x100032F98, symSize: 0x2C }
  - { offsetInCU: 0x417A7, offset: 0x6C869, size: 0x8, addend: 0x0, symName: __ZNSt3__110__list_impINS_4pairINS_10shared_ptrIKN5boost13re_detail_50031cpp_regex_traits_implementationIcEEEEPKNS4_21cpp_regex_traits_baseIcEEEENS_9allocatorISD_EEE5clearEv, symObjAddr: 0x1876C, symBinAddr: 0x100032FC4, symSize: 0x1C8 }
  - { offsetInCU: 0x41819, offset: 0x6C8DB, size: 0x8, addend: 0x0, symName: __ZNKSt3__110__list_impINS_4pairINS_10shared_ptrIKN5boost13re_detail_50031cpp_regex_traits_implementationIcEEEEPKNS4_21cpp_regex_traits_baseIcEEEENS_9allocatorISD_EEE5emptyB8ue170006Ev, symObjAddr: 0x18934, symBinAddr: 0x10003318C, symSize: 0x78 }
  - { offsetInCU: 0x4183F, offset: 0x6C901, size: 0x8, addend: 0x0, symName: __ZNSt3__110__list_impINS_4pairINS_10shared_ptrIKN5boost13re_detail_50031cpp_regex_traits_implementationIcEEEEPKNS4_21cpp_regex_traits_baseIcEEEENS_9allocatorISD_EEE12__node_allocB8ue170006Ev, symObjAddr: 0x189AC, symBinAddr: 0x100033204, symSize: 0x28 }
  - { offsetInCU: 0x41865, offset: 0x6C927, size: 0x8, addend: 0x0, symName: __ZNSt3__116allocator_traitsINS_9allocatorINS_11__list_nodeINS_4pairINS_10shared_ptrIKN5boost13re_detail_50031cpp_regex_traits_implementationIcEEEEPKNS6_21cpp_regex_traits_baseIcEEEEPvEEEEE7destroyB8ue170006ISF_vvEEvRSI_PT_, symObjAddr: 0x189D4, symBinAddr: 0x10003322C, symSize: 0x28 }
  - { offsetInCU: 0x418A0, offset: 0x6C962, size: 0x8, addend: 0x0, symName: __ZNSt3__116allocator_traitsINS_9allocatorINS_11__list_nodeINS_4pairINS_10shared_ptrIKN5boost13re_detail_50031cpp_regex_traits_implementationIcEEEEPKNS6_21cpp_regex_traits_baseIcEEEEPvEEEEE10deallocateB8ue170006ERSI_PSH_m, symObjAddr: 0x189FC, symBinAddr: 0x100033254, symSize: 0x34 }
  - { offsetInCU: 0x418E2, offset: 0x6C9A4, size: 0x8, addend: 0x0, symName: __ZNKSt3__110__list_impINS_4pairINS_10shared_ptrIKN5boost13re_detail_50031cpp_regex_traits_implementationIcEEEEPKNS4_21cpp_regex_traits_baseIcEEEENS_9allocatorISD_EEE4__szB8ue170006Ev, symObjAddr: 0x18A30, symBinAddr: 0x100033288, symSize: 0x28 }
  - { offsetInCU: 0x41908, offset: 0x6C9CA, size: 0x8, addend: 0x0, symName: __ZNKSt3__117__compressed_pairImNS_9allocatorINS_11__list_nodeINS_4pairINS_10shared_ptrIKN5boost13re_detail_50031cpp_regex_traits_implementationIcEEEEPKNS6_21cpp_regex_traits_baseIcEEEEPvEEEEE5firstB8ue170006Ev, symObjAddr: 0x18A58, symBinAddr: 0x1000332B0, symSize: 0x24 }
  - { offsetInCU: 0x4192E, offset: 0x6C9F0, size: 0x8, addend: 0x0, symName: __ZNSt3__117__compressed_pairImNS_9allocatorINS_11__list_nodeINS_4pairINS_10shared_ptrIKN5boost13re_detail_50031cpp_regex_traits_implementationIcEEEEPKNS6_21cpp_regex_traits_baseIcEEEEPvEEEEE6secondB8ue170006Ev, symObjAddr: 0x18A90, symBinAddr: 0x1000332D4, symSize: 0x24 }
  - { offsetInCU: 0x41954, offset: 0x6CA16, size: 0x8, addend: 0x0, symName: __ZNSt3__122__compressed_pair_elemINS_9allocatorINS_11__list_nodeINS_4pairINS_10shared_ptrIKN5boost13re_detail_50031cpp_regex_traits_implementationIcEEEEPKNS6_21cpp_regex_traits_baseIcEEEEPvEEEELi1ELb1EE5__getB8ue170006Ev, symObjAddr: 0x18AB4, symBinAddr: 0x1000332F8, symSize: 0x14 }
  - { offsetInCU: 0x4197A, offset: 0x6CA3C, size: 0x8, addend: 0x0, symName: __ZNSt3__19allocatorINS_11__list_nodeINS_4pairINS_10shared_ptrIKN5boost13re_detail_50031cpp_regex_traits_implementationIcEEEEPKNS5_21cpp_regex_traits_baseIcEEEEPvEEE10deallocateB8ue170006EPSG_m, symObjAddr: 0x18B10, symBinAddr: 0x100033354, symSize: 0x50 }
  - { offsetInCU: 0x419BC, offset: 0x6CA7E, size: 0x8, addend: 0x0, symName: __ZNSt3__110shared_ptrIKN5boost13re_detail_50031cpp_regex_traits_implementationIcEEEC2B8ue170006ERKS6_, symObjAddr: 0x18B60, symBinAddr: 0x1000333A4, symSize: 0x1CC }
  - { offsetInCU: 0x419F5, offset: 0x6CAB7, size: 0x8, addend: 0x0, symName: __ZNSt3__119__shared_weak_count12__add_sharedB8ue170006Ev, symObjAddr: 0x18D2C, symBinAddr: 0x100033570, symSize: 0x24 }
  - { offsetInCU: 0x41A1B, offset: 0x6CADD, size: 0x8, addend: 0x0, symName: __ZNSt3__114__shared_count12__add_sharedB8ue170006Ev, symObjAddr: 0x18D50, symBinAddr: 0x100033594, symSize: 0x28 }
  - { offsetInCU: 0x41A41, offset: 0x6CB03, size: 0x8, addend: 0x0, symName: __ZN5boost13re_detail_50031cpp_regex_traits_implementationIcEC2ERKNS0_21cpp_regex_traits_baseIcEE, symObjAddr: 0x18DF8, symBinAddr: 0x10003363C, symSize: 0xAC }
  - { offsetInCU: 0x41A7A, offset: 0x6CB3C, size: 0x8, addend: 0x0, symName: __ZN5boost13re_detail_50027cpp_regex_traits_char_layerIcEC2ERKNS0_21cpp_regex_traits_baseIcEE, symObjAddr: 0x18EA4, symBinAddr: 0x1000336E8, symSize: 0x64 }
  - { offsetInCU: 0x41AB3, offset: 0x6CB75, size: 0x8, addend: 0x0, symName: __ZNSt3__13mapIiNS_12basic_stringIcNS_11char_traitsIcEENS_9allocatorIcEEEENS_4lessIiEENS4_INS_4pairIKiS6_EEEEEC1B8ue170006Ev, symObjAddr: 0x18F08, symBinAddr: 0x10003374C, symSize: 0x2C }
  - { offsetInCU: 0x41ADD, offset: 0x6CB9F, size: 0x8, addend: 0x0, symName: __ZNSt3__13mapINS_12basic_stringIcNS_11char_traitsIcEENS_9allocatorIcEEEEjNS_4lessIS6_EENS4_INS_4pairIKS6_jEEEEEC1B8ue170006Ev, symObjAddr: 0x18F34, symBinAddr: 0x100033778, symSize: 0x2C }
  - { offsetInCU: 0x41B07, offset: 0x6CBC9, size: 0x8, addend: 0x0, symName: __ZNSt3__13mapINS_12basic_stringIcNS_11char_traitsIcEENS_9allocatorIcEEEES6_NS_4lessIS6_EENS4_INS_4pairIKS6_S6_EEEEEC1B8ue170006Ev, symObjAddr: 0x18F60, symBinAddr: 0x1000337A4, symSize: 0x2C }
  - { offsetInCU: 0x41B31, offset: 0x6CBF3, size: 0x8, addend: 0x0, symName: __ZNSt3__13mapINS_12basic_stringIcNS_11char_traitsIcEENS_9allocatorIcEEEES6_NS_4lessIS6_EENS4_INS_4pairIKS6_S6_EEEEED1B8ue170006Ev, symObjAddr: 0x19DDC, symBinAddr: 0x100034620, symSize: 0x2C }
  - { offsetInCU: 0x41B5B, offset: 0x6CC1D, size: 0x8, addend: 0x0, symName: __ZNSt3__13mapINS_12basic_stringIcNS_11char_traitsIcEENS_9allocatorIcEEEEjNS_4lessIS6_EENS4_INS_4pairIKS6_jEEEEED1B8ue170006Ev, symObjAddr: 0x19E08, symBinAddr: 0x10003464C, symSize: 0x2C }
  - { offsetInCU: 0x41B85, offset: 0x6CC47, size: 0x8, addend: 0x0, symName: __ZNSt3__13mapIiNS_12basic_stringIcNS_11char_traitsIcEENS_9allocatorIcEEEENS_4lessIiEENS4_INS_4pairIKiS6_EEEEED1B8ue170006Ev, symObjAddr: 0x19E34, symBinAddr: 0x100034678, symSize: 0x2C }
  - { offsetInCU: 0x41BAF, offset: 0x6CC71, size: 0x8, addend: 0x0, symName: __ZN5boost13re_detail_50027cpp_regex_traits_char_layerIcED2Ev, symObjAddr: 0x19E60, symBinAddr: 0x1000346A4, symSize: 0x2C }
  - { offsetInCU: 0x41BDC, offset: 0x6CC9E, size: 0x8, addend: 0x0, symName: __ZN5boost13re_detail_50021cpp_regex_traits_baseIcEC2ERKS2_, symObjAddr: 0x19E8C, symBinAddr: 0x1000346D0, symSize: 0x4C }
  - { offsetInCU: 0x41C11, offset: 0x6CCD3, size: 0x8, addend: 0x0, symName: __ZN5boost13re_detail_50027cpp_regex_traits_char_layerIcE4initEv, symObjAddr: 0x19ED8, symBinAddr: 0x10003471C, symSize: 0xE04 }
  - { offsetInCU: 0x41D20, offset: 0x6CDE2, size: 0x8, addend: 0x0, symName: __ZN5boost13re_detail_50021cpp_regex_traits_baseIcED2Ev, symObjAddr: 0x1ACDC, symBinAddr: 0x100035520, symSize: 0x2C }
  - { offsetInCU: 0x41D4C, offset: 0x6CE0E, size: 0x8, addend: 0x0, symName: __ZN5boost16cpp_regex_traitsIcE16get_catalog_nameEv, symObjAddr: 0x1AD08, symBinAddr: 0x10003554C, symSize: 0x2D4 }
  - { offsetInCU: 0x41D87, offset: 0x6CE49, size: 0x8, addend: 0x0, symName: __ZNKSt3__18messagesIcE4openB8ue170006ERKNS_12basic_stringIcNS_11char_traitsIcEENS_9allocatorIcEEEERKNS_6localeE, symObjAddr: 0x1AFDC, symBinAddr: 0x100035820, symSize: 0xC8 }
  - { offsetInCU: 0x41DCB, offset: 0x6CE8D, size: 0x8, addend: 0x0, symName: __ZNKSt3__18messagesIcE3getB8ue170006EliiRKNS_12basic_stringIcNS_11char_traitsIcEENS_9allocatorIcEEEE, symObjAddr: 0x1B3C0, symBinAddr: 0x100035C04, symSize: 0xF8 }
  - { offsetInCU: 0x41E2D, offset: 0x6CEEF, size: 0x8, addend: 0x0, symName: __ZNKSt3__18messagesIcE5closeB8ue170006El, symObjAddr: 0x1B7F0, symBinAddr: 0x100036004, symSize: 0xB8 }
  - { offsetInCU: 0x41E62, offset: 0x6CF24, size: 0x8, addend: 0x0, symName: __ZNKSt3__15ctypeIcE2isB8ue170006Ejc, symObjAddr: 0x1B8A8, symBinAddr: 0x1000360BC, symSize: 0x120 }
  - { offsetInCU: 0x41EA6, offset: 0x6CF68, size: 0x8, addend: 0x0, symName: __ZN5boost10wrapexceptISt13runtime_errorEC1ERKS1_, symObjAddr: 0x1BB50, symBinAddr: 0x100036364, symSize: 0x34 }
  - { offsetInCU: 0x41EDE, offset: 0x6CFA0, size: 0x8, addend: 0x0, symName: __ZN5boost10wrapexceptISt13runtime_errorED1Ev, symObjAddr: 0x1BB84, symBinAddr: 0x100036398, symSize: 0x2C }
  - { offsetInCU: 0x41F0A, offset: 0x6CFCC, size: 0x8, addend: 0x0, symName: __ZN5boost10wrapexceptISt13runtime_errorEC2ERKS1_, symObjAddr: 0x1BBB0, symBinAddr: 0x1000363C4, symSize: 0x18C }
  - { offsetInCU: 0x41F42, offset: 0x6D004, size: 0x8, addend: 0x0, symName: __ZN5boost16exception_detail10clone_baseC2Ev, symObjAddr: 0x1BD3C, symBinAddr: 0x100036550, symSize: 0x74 }
  - { offsetInCU: 0x41F6F, offset: 0x6D031, size: 0x8, addend: 0x0, symName: __ZN5boost9exceptionC2Ev, symObjAddr: 0x1BDB0, symBinAddr: 0x1000365C4, symSize: 0x1BC }
  - { offsetInCU: 0x41F99, offset: 0x6D05B, size: 0x8, addend: 0x0, symName: __ZN5boost10wrapexceptISt13runtime_errorE9copy_fromEPKv, symObjAddr: 0x1BF6C, symBinAddr: 0x100036780, symSize: 0x14 }
  - { offsetInCU: 0x41FCA, offset: 0x6D08C, size: 0x8, addend: 0x0, symName: __ZN5boost9exceptionD2Ev, symObjAddr: 0x1BF80, symBinAddr: 0x100036794, symSize: 0x80 }
  - { offsetInCU: 0x41FF6, offset: 0x6D0B8, size: 0x8, addend: 0x0, symName: __ZN5boost16exception_detail10clone_baseD2Ev, symObjAddr: 0x1C000, symBinAddr: 0x100036814, symSize: 0x14 }
  - { offsetInCU: 0x42020, offset: 0x6D0E2, size: 0x8, addend: 0x0, symName: __ZNK5boost10wrapexceptISt13runtime_errorE5cloneEv, symObjAddr: 0x1C014, symBinAddr: 0x100036828, symSize: 0x380 }
  - { offsetInCU: 0x42068, offset: 0x6D12A, size: 0x8, addend: 0x0, symName: __ZNK5boost10wrapexceptISt13runtime_errorE7rethrowEv, symObjAddr: 0x1C394, symBinAddr: 0x100036BA8, symSize: 0x70 }
  - { offsetInCU: 0x4208E, offset: 0x6D150, size: 0x8, addend: 0x0, symName: __ZN5boost10wrapexceptISt13runtime_errorED0Ev, symObjAddr: 0x1C404, symBinAddr: 0x100036C18, symSize: 0x30 }
  - { offsetInCU: 0x420BA, offset: 0x6D17C, size: 0x8, addend: 0x0, symName: __ZThn8_N5boost10wrapexceptISt13runtime_errorED1Ev, symObjAddr: 0x1C434, symBinAddr: 0x100036C48, symSize: 0x1C }
  - { offsetInCU: 0x420D0, offset: 0x6D192, size: 0x8, addend: 0x0, symName: __ZThn8_N5boost10wrapexceptISt13runtime_errorED0Ev, symObjAddr: 0x1C450, symBinAddr: 0x100036C64, symSize: 0x18 }
  - { offsetInCU: 0x420E6, offset: 0x6D1A8, size: 0x8, addend: 0x0, symName: __ZThn24_N5boost10wrapexceptISt13runtime_errorED1Ev, symObjAddr: 0x1C468, symBinAddr: 0x100036C7C, symSize: 0x1C }
  - { offsetInCU: 0x420FC, offset: 0x6D1BE, size: 0x8, addend: 0x0, symName: __ZThn24_N5boost10wrapexceptISt13runtime_errorED0Ev, symObjAddr: 0x1C484, symBinAddr: 0x100036C98, symSize: 0x18 }
  - { offsetInCU: 0x42112, offset: 0x6D1D4, size: 0x8, addend: 0x0, symName: __ZN5boost16exception_detail10clone_baseD1Ev, symObjAddr: 0x1C49C, symBinAddr: 0x100036CB0, symSize: 0x20 }
  - { offsetInCU: 0x4213C, offset: 0x6D1FE, size: 0x8, addend: 0x0, symName: __ZN5boost16exception_detail10clone_baseD0Ev, symObjAddr: 0x1C4BC, symBinAddr: 0x100036CD0, symSize: 0x18 }
  - { offsetInCU: 0x42166, offset: 0x6D228, size: 0x8, addend: 0x0, symName: __ZN5boost16exception_detail12refcount_ptrINS0_20error_info_containerEEC1Ev, symObjAddr: 0x1C4D4, symBinAddr: 0x100036CE8, symSize: 0x2C }
  - { offsetInCU: 0x42190, offset: 0x6D252, size: 0x8, addend: 0x0, symName: __ZN5boost16exception_detail12refcount_ptrINS0_20error_info_containerEEC2Ev, symObjAddr: 0x1C500, symBinAddr: 0x100036D14, symSize: 0x60 }
  - { offsetInCU: 0x421BA, offset: 0x6D27C, size: 0x8, addend: 0x0, symName: __ZN5boost16exception_detail12refcount_ptrINS0_20error_info_containerEED1Ev, symObjAddr: 0x1C560, symBinAddr: 0x100036D74, symSize: 0x2C }
  - { offsetInCU: 0x421E4, offset: 0x6D2A6, size: 0x8, addend: 0x0, symName: __ZN5boost16exception_detail12refcount_ptrINS0_20error_info_containerEED2Ev, symObjAddr: 0x1C58C, symBinAddr: 0x100036DA0, symSize: 0x40 }
  - { offsetInCU: 0x4220E, offset: 0x6D2D0, size: 0x8, addend: 0x0, symName: __ZN5boost16exception_detail12refcount_ptrINS0_20error_info_containerEE7releaseEv, symObjAddr: 0x1C5CC, symBinAddr: 0x100036DE0, symSize: 0x16C }
  - { offsetInCU: 0x42239, offset: 0x6D2FB, size: 0x8, addend: 0x0, symName: __ZN5boost10wrapexceptISt13runtime_errorEC1ERKS2_, symObjAddr: 0x1C738, symBinAddr: 0x100036F4C, symSize: 0x34 }
  - { offsetInCU: 0x42278, offset: 0x6D33A, size: 0x8, addend: 0x0, symName: __ZN5boost10wrapexceptISt13runtime_errorE7deleterD1Ev, symObjAddr: 0x1CE30, symBinAddr: 0x100037644, symSize: 0x2C }
  - { offsetInCU: 0x422A2, offset: 0x6D364, size: 0x8, addend: 0x0, symName: __ZN5boost10wrapexceptISt13runtime_errorEC2ERKS2_, symObjAddr: 0x1CE5C, symBinAddr: 0x100037670, symSize: 0x16C }
  - { offsetInCU: 0x422DC, offset: 0x6D39E, size: 0x8, addend: 0x0, symName: __ZN5boost16exception_detail10clone_baseC2ERKS1_, symObjAddr: 0x1CFC8, symBinAddr: 0x1000377DC, symSize: 0x78 }
  - { offsetInCU: 0x42317, offset: 0x6D3D9, size: 0x8, addend: 0x0, symName: __ZN5boost9exceptionC2ERKS0_, symObjAddr: 0x1D040, symBinAddr: 0x100037854, symSize: 0xA4 }
  - { offsetInCU: 0x4234C, offset: 0x6D40E, size: 0x8, addend: 0x0, symName: __ZN5boost16exception_detail12refcount_ptrINS0_20error_info_containerEEC1ERKS3_, symObjAddr: 0x1D0E4, symBinAddr: 0x1000378F8, symSize: 0x34 }
  - { offsetInCU: 0x42384, offset: 0x6D446, size: 0x8, addend: 0x0, symName: __ZN5boost16exception_detail12refcount_ptrINS0_20error_info_containerEEC2ERKS3_, symObjAddr: 0x1D118, symBinAddr: 0x10003792C, symSize: 0xB8 }
  - { offsetInCU: 0x423BC, offset: 0x6D47E, size: 0x8, addend: 0x0, symName: __ZN5boost16exception_detail12refcount_ptrINS0_20error_info_containerEE7add_refEv, symObjAddr: 0x1D1D0, symBinAddr: 0x1000379E4, symSize: 0x12C }
  - { offsetInCU: 0x423E2, offset: 0x6D4A4, size: 0x8, addend: 0x0, symName: __ZNK5boost16exception_detail12refcount_ptrINS0_20error_info_containerEE3getEv, symObjAddr: 0x1D2FC, symBinAddr: 0x100037B10, symSize: 0x60 }
  - { offsetInCU: 0x42408, offset: 0x6D4CA, size: 0x8, addend: 0x0, symName: __ZN5boost16exception_detail12refcount_ptrINS0_20error_info_containerEEaSERKS3_, symObjAddr: 0x1D35C, symBinAddr: 0x100037B70, symSize: 0x78 }
  - { offsetInCU: 0x4243C, offset: 0x6D4FE, size: 0x8, addend: 0x0, symName: __ZN5boost16exception_detail12refcount_ptrINS0_20error_info_containerEE5adoptEPS2_, symObjAddr: 0x1D3D4, symBinAddr: 0x100037BE8, symSize: 0x84 }
  - { offsetInCU: 0x42470, offset: 0x6D532, size: 0x8, addend: 0x0, symName: __ZN5boost10wrapexceptISt13runtime_errorE7deleterD2Ev, symObjAddr: 0x1D458, symBinAddr: 0x100037C6C, symSize: 0x104 }
  - { offsetInCU: 0x4249A, offset: 0x6D55C, size: 0x8, addend: 0x0, symName: __ZN5boost10wrapexceptISt13runtime_errorED2Ev, symObjAddr: 0x1D55C, symBinAddr: 0x100037D70, symSize: 0x44 }
  - { offsetInCU: 0x424C6, offset: 0x6D588, size: 0x8, addend: 0x0, symName: __ZNSt3__13mapIiNS_12basic_stringIcNS_11char_traitsIcEENS_9allocatorIcEEEENS_4lessIiEENS4_INS_4pairIKiS6_EEEEEC2B8ue170006Ev, symObjAddr: 0x1D5C4, symBinAddr: 0x100037DB4, symSize: 0x1E8 }
  - { offsetInCU: 0x424F1, offset: 0x6D5B3, size: 0x8, addend: 0x0, symName: __ZNSt3__119__map_value_compareIiNS_12__value_typeIiNS_12basic_stringIcNS_11char_traitsIcEENS_9allocatorIcEEEEEENS_4lessIiEELb1EEC1B8ue170006ESA_, symObjAddr: 0x1D7AC, symBinAddr: 0x100037F9C, symSize: 0x2C }
  - { offsetInCU: 0x4252A, offset: 0x6D5EC, size: 0x8, addend: 0x0, symName: __ZNSt3__16__treeINS_12__value_typeIiNS_12basic_stringIcNS_11char_traitsIcEENS_9allocatorIcEEEEEENS_19__map_value_compareIiS8_NS_4lessIiEELb1EEENS5_IS8_EEEC1ERKSC_, symObjAddr: 0x1D7D8, symBinAddr: 0x100037FC8, symSize: 0x34 }
  - { offsetInCU: 0x42565, offset: 0x6D627, size: 0x8, addend: 0x0, symName: __ZNSt3__119__map_value_compareIiNS_12__value_typeIiNS_12basic_stringIcNS_11char_traitsIcEENS_9allocatorIcEEEEEENS_4lessIiEELb1EEC2B8ue170006ESA_, symObjAddr: 0x1D80C, symBinAddr: 0x100037FFC, symSize: 0x14 }
  - { offsetInCU: 0x4259E, offset: 0x6D660, size: 0x8, addend: 0x0, symName: __ZNSt3__16__treeINS_12__value_typeIiNS_12basic_stringIcNS_11char_traitsIcEENS_9allocatorIcEEEEEENS_19__map_value_compareIiS8_NS_4lessIiEELb1EEENS5_IS8_EEEC2ERKSC_, symObjAddr: 0x1D820, symBinAddr: 0x100038010, symSize: 0x2CC }
  - { offsetInCU: 0x425DB, offset: 0x6D69D, size: 0x8, addend: 0x0, symName: __ZNSt3__117__compressed_pairINS_15__tree_end_nodeIPNS_16__tree_node_baseIPvEEEENS_9allocatorINS_11__tree_nodeINS_12__value_typeIiNS_12basic_stringIcNS_11char_traitsIcEENS7_IcEEEEEES3_EEEEEC1B8ue170006ILb1EvEEv, symObjAddr: 0x1DAEC, symBinAddr: 0x1000382DC, symSize: 0x2C }
  - { offsetInCU: 0x42610, offset: 0x6D6D2, size: 0x8, addend: 0x0, symName: __ZNSt3__117__compressed_pairImNS_19__map_value_compareIiNS_12__value_typeIiNS_12basic_stringIcNS_11char_traitsIcEENS_9allocatorIcEEEEEENS_4lessIiEELb1EEEEC1B8ue170006IiRKSC_EEOT_OT0_, symObjAddr: 0x1DB18, symBinAddr: 0x100038308, symSize: 0x3C }
  - { offsetInCU: 0x42668, offset: 0x6D72A, size: 0x8, addend: 0x0, symName: __ZNSt3__16__treeINS_12__value_typeIiNS_12basic_stringIcNS_11char_traitsIcEENS_9allocatorIcEEEEEENS_19__map_value_compareIiS8_NS_4lessIiEELb1EEENS5_IS8_EEE10__end_nodeB8ue170006Ev, symObjAddr: 0x1DB54, symBinAddr: 0x100038344, symSize: 0x2C }
  - { offsetInCU: 0x4268E, offset: 0x6D750, size: 0x8, addend: 0x0, symName: __ZNSt3__16__treeINS_12__value_typeIiNS_12basic_stringIcNS_11char_traitsIcEENS_9allocatorIcEEEEEENS_19__map_value_compareIiS8_NS_4lessIiEELb1EEENS5_IS8_EEE12__begin_nodeB8ue170006Ev, symObjAddr: 0x1DB80, symBinAddr: 0x100038370, symSize: 0x14 }
  - { offsetInCU: 0x426B4, offset: 0x6D776, size: 0x8, addend: 0x0, symName: __ZNSt3__117__compressed_pairINS_15__tree_end_nodeIPNS_16__tree_node_baseIPvEEEENS_9allocatorINS_11__tree_nodeINS_12__value_typeIiNS_12basic_stringIcNS_11char_traitsIcEENS7_IcEEEEEES3_EEEEEC2B8ue170006ILb1EvEEv, symObjAddr: 0x1DB94, symBinAddr: 0x100038384, symSize: 0x34 }
  - { offsetInCU: 0x426E9, offset: 0x6D7AB, size: 0x8, addend: 0x0, symName: __ZNSt3__122__compressed_pair_elemINS_9allocatorINS_11__tree_nodeINS_12__value_typeIiNS_12basic_stringIcNS_11char_traitsIcEENS1_IcEEEEEEPvEEEELi1ELb1EEC2B8ue170006ENS_16__value_init_tagE, symObjAddr: 0x1DBC8, symBinAddr: 0x1000383B8, symSize: 0x2C }
  - { offsetInCU: 0x4271E, offset: 0x6D7E0, size: 0x8, addend: 0x0, symName: __ZNSt3__19allocatorINS_11__tree_nodeINS_12__value_typeIiNS_12basic_stringIcNS_11char_traitsIcEENS0_IcEEEEEEPvEEEC2B8ue170006Ev, symObjAddr: 0x1DBF4, symBinAddr: 0x1000383E4, symSize: 0x2C }
  - { offsetInCU: 0x42748, offset: 0x6D80A, size: 0x8, addend: 0x0, symName: __ZNSt3__116__non_trivial_ifILb1ENS_9allocatorINS_11__tree_nodeINS_12__value_typeIiNS_12basic_stringIcNS_11char_traitsIcEENS1_IcEEEEEEPvEEEEEC2B8ue170006Ev, symObjAddr: 0x1DC20, symBinAddr: 0x100038410, symSize: 0x14 }
  - { offsetInCU: 0x42772, offset: 0x6D834, size: 0x8, addend: 0x0, symName: __ZNSt3__117__compressed_pairImNS_19__map_value_compareIiNS_12__value_typeIiNS_12basic_stringIcNS_11char_traitsIcEENS_9allocatorIcEEEEEENS_4lessIiEELb1EEEEC2B8ue170006IiRKSC_EEOT_OT0_, symObjAddr: 0x1DC34, symBinAddr: 0x100038424, symSize: 0x44 }
  - { offsetInCU: 0x427CA, offset: 0x6D88C, size: 0x8, addend: 0x0, symName: __ZNSt3__122__compressed_pair_elemINS_19__map_value_compareIiNS_12__value_typeIiNS_12basic_stringIcNS_11char_traitsIcEENS_9allocatorIcEEEEEENS_4lessIiEELb1EEELi1ELb1EEC2B8ue170006IRKSC_vEEOT_, symObjAddr: 0x1DC78, symBinAddr: 0x100038468, symSize: 0x18 }
  - { offsetInCU: 0x4280C, offset: 0x6D8CE, size: 0x8, addend: 0x0, symName: __ZNSt3__117__compressed_pairINS_15__tree_end_nodeIPNS_16__tree_node_baseIPvEEEENS_9allocatorINS_11__tree_nodeINS_12__value_typeIiNS_12basic_stringIcNS_11char_traitsIcEENS7_IcEEEEEES3_EEEEE5firstB8ue170006Ev, symObjAddr: 0x1DC90, symBinAddr: 0x100038480, symSize: 0x24 }
  - { offsetInCU: 0x42832, offset: 0x6D8F4, size: 0x8, addend: 0x0, symName: __ZNSt3__13mapINS_12basic_stringIcNS_11char_traitsIcEENS_9allocatorIcEEEEjNS_4lessIS6_EENS4_INS_4pairIKS6_jEEEEEC2B8ue170006Ev, symObjAddr: 0x1DCB4, symBinAddr: 0x1000384A4, symSize: 0x1E8 }
  - { offsetInCU: 0x4285D, offset: 0x6D91F, size: 0x8, addend: 0x0, symName: __ZNSt3__119__map_value_compareINS_12basic_stringIcNS_11char_traitsIcEENS_9allocatorIcEEEENS_12__value_typeIS6_jEENS_4lessIS6_EELb1EEC1B8ue170006ESA_, symObjAddr: 0x1DE9C, symBinAddr: 0x10003868C, symSize: 0x2C }
  - { offsetInCU: 0x42896, offset: 0x6D958, size: 0x8, addend: 0x0, symName: __ZNSt3__16__treeINS_12__value_typeINS_12basic_stringIcNS_11char_traitsIcEENS_9allocatorIcEEEEjEENS_19__map_value_compareIS7_S8_NS_4lessIS7_EELb1EEENS5_IS8_EEEC1ERKSC_, symObjAddr: 0x1DEC8, symBinAddr: 0x1000386B8, symSize: 0x34 }
  - { offsetInCU: 0x428D1, offset: 0x6D993, size: 0x8, addend: 0x0, symName: __ZNSt3__119__map_value_compareINS_12basic_stringIcNS_11char_traitsIcEENS_9allocatorIcEEEENS_12__value_typeIS6_jEENS_4lessIS6_EELb1EEC2B8ue170006ESA_, symObjAddr: 0x1DEFC, symBinAddr: 0x1000386EC, symSize: 0x14 }
  - { offsetInCU: 0x4290A, offset: 0x6D9CC, size: 0x8, addend: 0x0, symName: __ZNSt3__16__treeINS_12__value_typeINS_12basic_stringIcNS_11char_traitsIcEENS_9allocatorIcEEEEjEENS_19__map_value_compareIS7_S8_NS_4lessIS7_EELb1EEENS5_IS8_EEEC2ERKSC_, symObjAddr: 0x1DF10, symBinAddr: 0x100038700, symSize: 0x2CC }
  - { offsetInCU: 0x42947, offset: 0x6DA09, size: 0x8, addend: 0x0, symName: __ZNSt3__117__compressed_pairINS_15__tree_end_nodeIPNS_16__tree_node_baseIPvEEEENS_9allocatorINS_11__tree_nodeINS_12__value_typeINS_12basic_stringIcNS_11char_traitsIcEENS7_IcEEEEjEES3_EEEEEC1B8ue170006ILb1EvEEv, symObjAddr: 0x1E1DC, symBinAddr: 0x1000389CC, symSize: 0x2C }
  - { offsetInCU: 0x4297C, offset: 0x6DA3E, size: 0x8, addend: 0x0, symName: __ZNSt3__117__compressed_pairImNS_19__map_value_compareINS_12basic_stringIcNS_11char_traitsIcEENS_9allocatorIcEEEENS_12__value_typeIS7_jEENS_4lessIS7_EELb1EEEEC1B8ue170006IiRKSC_EEOT_OT0_, symObjAddr: 0x1E208, symBinAddr: 0x1000389F8, symSize: 0x3C }
  - { offsetInCU: 0x429D4, offset: 0x6DA96, size: 0x8, addend: 0x0, symName: __ZNSt3__16__treeINS_12__value_typeINS_12basic_stringIcNS_11char_traitsIcEENS_9allocatorIcEEEEjEENS_19__map_value_compareIS7_S8_NS_4lessIS7_EELb1EEENS5_IS8_EEE10__end_nodeB8ue170006Ev, symObjAddr: 0x1E244, symBinAddr: 0x100038A34, symSize: 0x2C }
  - { offsetInCU: 0x429FA, offset: 0x6DABC, size: 0x8, addend: 0x0, symName: __ZNSt3__16__treeINS_12__value_typeINS_12basic_stringIcNS_11char_traitsIcEENS_9allocatorIcEEEEjEENS_19__map_value_compareIS7_S8_NS_4lessIS7_EELb1EEENS5_IS8_EEE12__begin_nodeB8ue170006Ev, symObjAddr: 0x1E270, symBinAddr: 0x100038A60, symSize: 0x14 }
  - { offsetInCU: 0x42A20, offset: 0x6DAE2, size: 0x8, addend: 0x0, symName: __ZNSt3__117__compressed_pairINS_15__tree_end_nodeIPNS_16__tree_node_baseIPvEEEENS_9allocatorINS_11__tree_nodeINS_12__value_typeINS_12basic_stringIcNS_11char_traitsIcEENS7_IcEEEEjEES3_EEEEEC2B8ue170006ILb1EvEEv, symObjAddr: 0x1E284, symBinAddr: 0x100038A74, symSize: 0x34 }
  - { offsetInCU: 0x42A55, offset: 0x6DB17, size: 0x8, addend: 0x0, symName: __ZNSt3__122__compressed_pair_elemINS_9allocatorINS_11__tree_nodeINS_12__value_typeINS_12basic_stringIcNS_11char_traitsIcEENS1_IcEEEEjEEPvEEEELi1ELb1EEC2B8ue170006ENS_16__value_init_tagE, symObjAddr: 0x1E2B8, symBinAddr: 0x100038AA8, symSize: 0x2C }
  - { offsetInCU: 0x42A8A, offset: 0x6DB4C, size: 0x8, addend: 0x0, symName: __ZNSt3__19allocatorINS_11__tree_nodeINS_12__value_typeINS_12basic_stringIcNS_11char_traitsIcEENS0_IcEEEEjEEPvEEEC2B8ue170006Ev, symObjAddr: 0x1E2E4, symBinAddr: 0x100038AD4, symSize: 0x2C }
  - { offsetInCU: 0x42AB4, offset: 0x6DB76, size: 0x8, addend: 0x0, symName: __ZNSt3__116__non_trivial_ifILb1ENS_9allocatorINS_11__tree_nodeINS_12__value_typeINS_12basic_stringIcNS_11char_traitsIcEENS1_IcEEEEjEEPvEEEEEC2B8ue170006Ev, symObjAddr: 0x1E310, symBinAddr: 0x100038B00, symSize: 0x14 }
  - { offsetInCU: 0x42ADE, offset: 0x6DBA0, size: 0x8, addend: 0x0, symName: __ZNSt3__117__compressed_pairImNS_19__map_value_compareINS_12basic_stringIcNS_11char_traitsIcEENS_9allocatorIcEEEENS_12__value_typeIS7_jEENS_4lessIS7_EELb1EEEEC2B8ue170006IiRKSC_EEOT_OT0_, symObjAddr: 0x1E324, symBinAddr: 0x100038B14, symSize: 0x44 }
  - { offsetInCU: 0x42B36, offset: 0x6DBF8, size: 0x8, addend: 0x0, symName: __ZNSt3__122__compressed_pair_elemINS_19__map_value_compareINS_12basic_stringIcNS_11char_traitsIcEENS_9allocatorIcEEEENS_12__value_typeIS7_jEENS_4lessIS7_EELb1EEELi1ELb1EEC2B8ue170006IRKSC_vEEOT_, symObjAddr: 0x1E368, symBinAddr: 0x100038B58, symSize: 0x18 }
  - { offsetInCU: 0x42B78, offset: 0x6DC3A, size: 0x8, addend: 0x0, symName: __ZNSt3__117__compressed_pairINS_15__tree_end_nodeIPNS_16__tree_node_baseIPvEEEENS_9allocatorINS_11__tree_nodeINS_12__value_typeINS_12basic_stringIcNS_11char_traitsIcEENS7_IcEEEEjEES3_EEEEE5firstB8ue170006Ev, symObjAddr: 0x1E380, symBinAddr: 0x100038B70, symSize: 0x24 }
  - { offsetInCU: 0x42B9E, offset: 0x6DC60, size: 0x8, addend: 0x0, symName: __ZNSt3__13mapINS_12basic_stringIcNS_11char_traitsIcEENS_9allocatorIcEEEES6_NS_4lessIS6_EENS4_INS_4pairIKS6_S6_EEEEEC2B8ue170006Ev, symObjAddr: 0x1E3A4, symBinAddr: 0x100038B94, symSize: 0x1E8 }
  - { offsetInCU: 0x42BC9, offset: 0x6DC8B, size: 0x8, addend: 0x0, symName: __ZNSt3__119__map_value_compareINS_12basic_stringIcNS_11char_traitsIcEENS_9allocatorIcEEEENS_12__value_typeIS6_S6_EENS_4lessIS6_EELb1EEC1B8ue170006ESA_, symObjAddr: 0x1E58C, symBinAddr: 0x100038D7C, symSize: 0x2C }
  - { offsetInCU: 0x42C02, offset: 0x6DCC4, size: 0x8, addend: 0x0, symName: __ZNSt3__16__treeINS_12__value_typeINS_12basic_stringIcNS_11char_traitsIcEENS_9allocatorIcEEEES7_EENS_19__map_value_compareIS7_S8_NS_4lessIS7_EELb1EEENS5_IS8_EEEC1ERKSC_, symObjAddr: 0x1E5B8, symBinAddr: 0x100038DA8, symSize: 0x34 }
  - { offsetInCU: 0x42C3D, offset: 0x6DCFF, size: 0x8, addend: 0x0, symName: __ZNSt3__119__map_value_compareINS_12basic_stringIcNS_11char_traitsIcEENS_9allocatorIcEEEENS_12__value_typeIS6_S6_EENS_4lessIS6_EELb1EEC2B8ue170006ESA_, symObjAddr: 0x1E5EC, symBinAddr: 0x100038DDC, symSize: 0x14 }
  - { offsetInCU: 0x42C76, offset: 0x6DD38, size: 0x8, addend: 0x0, symName: __ZNSt3__16__treeINS_12__value_typeINS_12basic_stringIcNS_11char_traitsIcEENS_9allocatorIcEEEES7_EENS_19__map_value_compareIS7_S8_NS_4lessIS7_EELb1EEENS5_IS8_EEEC2ERKSC_, symObjAddr: 0x1E600, symBinAddr: 0x100038DF0, symSize: 0x2CC }
  - { offsetInCU: 0x42CB3, offset: 0x6DD75, size: 0x8, addend: 0x0, symName: __ZNSt3__117__compressed_pairINS_15__tree_end_nodeIPNS_16__tree_node_baseIPvEEEENS_9allocatorINS_11__tree_nodeINS_12__value_typeINS_12basic_stringIcNS_11char_traitsIcEENS7_IcEEEESE_EES3_EEEEEC1B8ue170006ILb1EvEEv, symObjAddr: 0x1E8CC, symBinAddr: 0x1000390BC, symSize: 0x2C }
  - { offsetInCU: 0x42CE8, offset: 0x6DDAA, size: 0x8, addend: 0x0, symName: __ZNSt3__117__compressed_pairImNS_19__map_value_compareINS_12basic_stringIcNS_11char_traitsIcEENS_9allocatorIcEEEENS_12__value_typeIS7_S7_EENS_4lessIS7_EELb1EEEEC1B8ue170006IiRKSC_EEOT_OT0_, symObjAddr: 0x1E8F8, symBinAddr: 0x1000390E8, symSize: 0x3C }
  - { offsetInCU: 0x42D40, offset: 0x6DE02, size: 0x8, addend: 0x0, symName: __ZNSt3__16__treeINS_12__value_typeINS_12basic_stringIcNS_11char_traitsIcEENS_9allocatorIcEEEES7_EENS_19__map_value_compareIS7_S8_NS_4lessIS7_EELb1EEENS5_IS8_EEE10__end_nodeB8ue170006Ev, symObjAddr: 0x1E934, symBinAddr: 0x100039124, symSize: 0x2C }
  - { offsetInCU: 0x42D66, offset: 0x6DE28, size: 0x8, addend: 0x0, symName: __ZNSt3__16__treeINS_12__value_typeINS_12basic_stringIcNS_11char_traitsIcEENS_9allocatorIcEEEES7_EENS_19__map_value_compareIS7_S8_NS_4lessIS7_EELb1EEENS5_IS8_EEE12__begin_nodeB8ue170006Ev, symObjAddr: 0x1E960, symBinAddr: 0x100039150, symSize: 0x14 }
  - { offsetInCU: 0x42D8C, offset: 0x6DE4E, size: 0x8, addend: 0x0, symName: __ZNSt3__117__compressed_pairINS_15__tree_end_nodeIPNS_16__tree_node_baseIPvEEEENS_9allocatorINS_11__tree_nodeINS_12__value_typeINS_12basic_stringIcNS_11char_traitsIcEENS7_IcEEEESE_EES3_EEEEEC2B8ue170006ILb1EvEEv, symObjAddr: 0x1E974, symBinAddr: 0x100039164, symSize: 0x34 }
  - { offsetInCU: 0x42DC1, offset: 0x6DE83, size: 0x8, addend: 0x0, symName: __ZNSt3__122__compressed_pair_elemINS_9allocatorINS_11__tree_nodeINS_12__value_typeINS_12basic_stringIcNS_11char_traitsIcEENS1_IcEEEES8_EEPvEEEELi1ELb1EEC2B8ue170006ENS_16__value_init_tagE, symObjAddr: 0x1E9A8, symBinAddr: 0x100039198, symSize: 0x2C }
  - { offsetInCU: 0x42DF6, offset: 0x6DEB8, size: 0x8, addend: 0x0, symName: __ZNSt3__19allocatorINS_11__tree_nodeINS_12__value_typeINS_12basic_stringIcNS_11char_traitsIcEENS0_IcEEEES7_EEPvEEEC2B8ue170006Ev, symObjAddr: 0x1E9D4, symBinAddr: 0x1000391C4, symSize: 0x2C }
  - { offsetInCU: 0x42E20, offset: 0x6DEE2, size: 0x8, addend: 0x0, symName: __ZNSt3__116__non_trivial_ifILb1ENS_9allocatorINS_11__tree_nodeINS_12__value_typeINS_12basic_stringIcNS_11char_traitsIcEENS1_IcEEEES8_EEPvEEEEEC2B8ue170006Ev, symObjAddr: 0x1EA00, symBinAddr: 0x1000391F0, symSize: 0x14 }
  - { offsetInCU: 0x42E4A, offset: 0x6DF0C, size: 0x8, addend: 0x0, symName: __ZNSt3__117__compressed_pairImNS_19__map_value_compareINS_12basic_stringIcNS_11char_traitsIcEENS_9allocatorIcEEEENS_12__value_typeIS7_S7_EENS_4lessIS7_EELb1EEEEC2B8ue170006IiRKSC_EEOT_OT0_, symObjAddr: 0x1EA14, symBinAddr: 0x100039204, symSize: 0x44 }
  - { offsetInCU: 0x42EA2, offset: 0x6DF64, size: 0x8, addend: 0x0, symName: __ZNSt3__122__compressed_pair_elemINS_19__map_value_compareINS_12basic_stringIcNS_11char_traitsIcEENS_9allocatorIcEEEENS_12__value_typeIS7_S7_EENS_4lessIS7_EELb1EEELi1ELb1EEC2B8ue170006IRKSC_vEEOT_, symObjAddr: 0x1EA58, symBinAddr: 0x100039248, symSize: 0x18 }
  - { offsetInCU: 0x42EE4, offset: 0x6DFA6, size: 0x8, addend: 0x0, symName: __ZNSt3__117__compressed_pairINS_15__tree_end_nodeIPNS_16__tree_node_baseIPvEEEENS_9allocatorINS_11__tree_nodeINS_12__value_typeINS_12basic_stringIcNS_11char_traitsIcEENS7_IcEEEESE_EES3_EEEEE5firstB8ue170006Ev, symObjAddr: 0x1EA70, symBinAddr: 0x100039260, symSize: 0x24 }
  - { offsetInCU: 0x42F0A, offset: 0x6DFCC, size: 0x8, addend: 0x0, symName: __ZNKSt3__15ctypeIcE6narrowB8ue170006Ecc, symObjAddr: 0x1EB74, symBinAddr: 0x100039338, symSize: 0xCC }
  - { offsetInCU: 0x42F4E, offset: 0x6E010, size: 0x8, addend: 0x0, symName: __ZNSt3__13mapIiNS_12basic_stringIcNS_11char_traitsIcEENS_9allocatorIcEEEENS_4lessIiEENS4_INS_4pairIKiS6_EEEEEixEOi, symObjAddr: 0x1EC40, symBinAddr: 0x100039404, symSize: 0x314 }
  - { offsetInCU: 0x42F87, offset: 0x6E049, size: 0x8, addend: 0x0, symName: __ZNSt3__13mapINS_12basic_stringIcNS_11char_traitsIcEENS_9allocatorIcEEEEjNS_4lessIS6_EENS4_INS_4pairIKS6_jEEEEEixERSA_, symObjAddr: 0x1EF54, symBinAddr: 0x100039718, symSize: 0x314 }
  - { offsetInCU: 0x42FD4, offset: 0x6E096, size: 0x8, addend: 0x0, symName: __ZNSt3__16__treeINS_12__value_typeIiNS_12basic_stringIcNS_11char_traitsIcEENS_9allocatorIcEEEEEENS_19__map_value_compareIiS8_NS_4lessIiEELb1EEENS5_IS8_EEE25__emplace_unique_key_argsIiJRKNS_21piecewise_construct_tENS_5tupleIJOiEEENSJ_IJEEEEEENS_4pairINS_15__tree_iteratorIS8_PNS_11__tree_nodeIS8_PvEElEEbEERKT_DpOT0_, symObjAddr: 0x1FEF4, symBinAddr: 0x10003A4B0, symSize: 0x520 }
  - { offsetInCU: 0x430BB, offset: 0x6E17D, size: 0x8, addend: 0x0, symName: __ZNKSt3__115__tree_iteratorINS_12__value_typeIiNS_12basic_stringIcNS_11char_traitsIcEENS_9allocatorIcEEEEEEPNS_11__tree_nodeIS8_PvEElEptB8ue170006Ev, symObjAddr: 0x20610, symBinAddr: 0x10003ABCC, symSize: 0x2C }
  - { offsetInCU: 0x430E1, offset: 0x6E1A3, size: 0x8, addend: 0x0, symName: __ZNSt3__112__value_typeIiNS_12basic_stringIcNS_11char_traitsIcEENS_9allocatorIcEEEEE11__get_valueB8ue170006Ev, symObjAddr: 0x2063C, symBinAddr: 0x10003ABF8, symSize: 0x24 }
  - { offsetInCU: 0x43107, offset: 0x6E1C9, size: 0x8, addend: 0x0, symName: __ZNSt3__16__treeINS_12__value_typeIiNS_12basic_stringIcNS_11char_traitsIcEENS_9allocatorIcEEEEEENS_19__map_value_compareIiS8_NS_4lessIiEELb1EEENS5_IS8_EEE12__find_equalIiEERPNS_16__tree_node_baseIPvEERPNS_15__tree_end_nodeISJ_EERKT_, symObjAddr: 0x20660, symBinAddr: 0x10003AC1C, symSize: 0x3F0 }
  - { offsetInCU: 0x43174, offset: 0x6E236, size: 0x8, addend: 0x0, symName: __ZNSt3__16__treeINS_12__value_typeIiNS_12basic_stringIcNS_11char_traitsIcEENS_9allocatorIcEEEEEENS_19__map_value_compareIiS8_NS_4lessIiEELb1EEENS5_IS8_EEE16__construct_nodeIJRKNS_21piecewise_construct_tENS_5tupleIJOiEEENSJ_IJEEEEEENS_10unique_ptrINS_11__tree_nodeIS8_PvEENS_22__tree_node_destructorINS5_ISQ_EEEEEEDpOT_, symObjAddr: 0x20A50, symBinAddr: 0x10003B00C, symSize: 0x394 }
  - { offsetInCU: 0x43203, offset: 0x6E2C5, size: 0x8, addend: 0x0, symName: __ZNSt3__16__treeINS_12__value_typeIiNS_12basic_stringIcNS_11char_traitsIcEENS_9allocatorIcEEEEEENS_19__map_value_compareIiS8_NS_4lessIiEELb1EEENS5_IS8_EEE16__insert_node_atEPNS_15__tree_end_nodeIPNS_16__tree_node_baseIPvEEEERSJ_SJ_, symObjAddr: 0x20DE4, symBinAddr: 0x10003B3A0, symSize: 0x370 }
  - { offsetInCU: 0x43258, offset: 0x6E31A, size: 0x8, addend: 0x0, symName: __ZNKSt3__110unique_ptrINS_11__tree_nodeINS_12__value_typeIiNS_12basic_stringIcNS_11char_traitsIcEENS_9allocatorIcEEEEEEPvEENS_22__tree_node_destructorINS6_ISB_EEEEE3getB8ue170006Ev, symObjAddr: 0x21154, symBinAddr: 0x10003B710, symSize: 0x6C }
  - { offsetInCU: 0x4327E, offset: 0x6E340, size: 0x8, addend: 0x0, symName: __ZNSt3__110unique_ptrINS_11__tree_nodeINS_12__value_typeIiNS_12basic_stringIcNS_11char_traitsIcEENS_9allocatorIcEEEEEEPvEENS_22__tree_node_destructorINS6_ISB_EEEEE7releaseB8ue170006Ev, symObjAddr: 0x211C0, symBinAddr: 0x10003B77C, symSize: 0xB8 }
  - { offsetInCU: 0x432B3, offset: 0x6E375, size: 0x8, addend: 0x0, symName: __ZNSt3__110unique_ptrINS_11__tree_nodeINS_12__value_typeIiNS_12basic_stringIcNS_11char_traitsIcEENS_9allocatorIcEEEEEEPvEENS_22__tree_node_destructorINS6_ISB_EEEEED1B8ue170006Ev, symObjAddr: 0x21278, symBinAddr: 0x10003B834, symSize: 0x2C }
  - { offsetInCU: 0x432DD, offset: 0x6E39F, size: 0x8, addend: 0x0, symName: __ZNSt3__115__tree_iteratorINS_12__value_typeIiNS_12basic_stringIcNS_11char_traitsIcEENS_9allocatorIcEEEEEEPNS_11__tree_nodeIS8_PvEElEC1B8ue170006ESC_, symObjAddr: 0x212A4, symBinAddr: 0x10003B860, symSize: 0x34 }
  - { offsetInCU: 0x43320, offset: 0x6E3E2, size: 0x8, addend: 0x0, symName: __ZNSt3__14pairINS_15__tree_iteratorINS_12__value_typeIiNS_12basic_stringIcNS_11char_traitsIcEENS_9allocatorIcEEEEEEPNS_11__tree_nodeIS9_PvEElEEbEC1B8ue170006ISE_RbLSB_0EEEOT_OT0_, symObjAddr: 0x212D8, symBinAddr: 0x10003B894, symSize: 0x3C }
  - { offsetInCU: 0x4337E, offset: 0x6E440, size: 0x8, addend: 0x0, symName: __ZNKSt3__16__treeINS_12__value_typeIiNS_12basic_stringIcNS_11char_traitsIcEENS_9allocatorIcEEEEEENS_19__map_value_compareIiS8_NS_4lessIiEELb1EEENS5_IS8_EEE6__rootB8ue170006Ev, symObjAddr: 0x21314, symBinAddr: 0x10003B8D0, symSize: 0x6C }
  - { offsetInCU: 0x433A4, offset: 0x6E466, size: 0x8, addend: 0x0, symName: __ZNKSt3__16__treeINS_12__value_typeIiNS_12basic_stringIcNS_11char_traitsIcEENS_9allocatorIcEEEEEENS_19__map_value_compareIiS8_NS_4lessIiEELb1EEENS5_IS8_EEE10__root_ptrB8ue170006Ev, symObjAddr: 0x21380, symBinAddr: 0x10003B93C, symSize: 0x24 }
  - { offsetInCU: 0x433CA, offset: 0x6E48C, size: 0x8, addend: 0x0, symName: __ZNSt3__16__treeINS_12__value_typeIiNS_12basic_stringIcNS_11char_traitsIcEENS_9allocatorIcEEEEEENS_19__map_value_compareIiS8_NS_4lessIiEELb1EEENS5_IS8_EEE10value_compB8ue170006Ev, symObjAddr: 0x213A4, symBinAddr: 0x10003B960, symSize: 0x28 }
  - { offsetInCU: 0x433F0, offset: 0x6E4B2, size: 0x8, addend: 0x0, symName: __ZNKSt3__119__map_value_compareIiNS_12__value_typeIiNS_12basic_stringIcNS_11char_traitsIcEENS_9allocatorIcEEEEEENS_4lessIiEELb1EEclB8ue170006ERKiRKS8_, symObjAddr: 0x213CC, symBinAddr: 0x10003B988, symSize: 0x50 }
  - { offsetInCU: 0x43434, offset: 0x6E4F6, size: 0x8, addend: 0x0, symName: __ZNKSt3__119__map_value_compareIiNS_12__value_typeIiNS_12basic_stringIcNS_11char_traitsIcEENS_9allocatorIcEEEEEENS_4lessIiEELb1EEclB8ue170006ERKS8_RKi, symObjAddr: 0x2141C, symBinAddr: 0x10003B9D8, symSize: 0x48 }
  - { offsetInCU: 0x43478, offset: 0x6E53A, size: 0x8, addend: 0x0, symName: __ZNKSt3__16__treeINS_12__value_typeIiNS_12basic_stringIcNS_11char_traitsIcEENS_9allocatorIcEEEEEENS_19__map_value_compareIiS8_NS_4lessIiEELb1EEENS5_IS8_EEE10__end_nodeB8ue170006Ev, symObjAddr: 0x21464, symBinAddr: 0x10003BA20, symSize: 0x2C }
  - { offsetInCU: 0x4349E, offset: 0x6E560, size: 0x8, addend: 0x0, symName: __ZNKSt3__117__compressed_pairINS_15__tree_end_nodeIPNS_16__tree_node_baseIPvEEEENS_9allocatorINS_11__tree_nodeINS_12__value_typeIiNS_12basic_stringIcNS_11char_traitsIcEENS7_IcEEEEEES3_EEEEE5firstB8ue170006Ev, symObjAddr: 0x21490, symBinAddr: 0x10003BA4C, symSize: 0x24 }
  - { offsetInCU: 0x434C4, offset: 0x6E586, size: 0x8, addend: 0x0, symName: __ZNSt3__117__compressed_pairImNS_19__map_value_compareIiNS_12__value_typeIiNS_12basic_stringIcNS_11char_traitsIcEENS_9allocatorIcEEEEEENS_4lessIiEELb1EEEE6secondB8ue170006Ev, symObjAddr: 0x214B4, symBinAddr: 0x10003BA70, symSize: 0x24 }
  - { offsetInCU: 0x434EA, offset: 0x6E5AC, size: 0x8, addend: 0x0, symName: __ZNSt3__122__compressed_pair_elemINS_19__map_value_compareIiNS_12__value_typeIiNS_12basic_stringIcNS_11char_traitsIcEENS_9allocatorIcEEEEEENS_4lessIiEELb1EEELi1ELb1EE5__getB8ue170006Ev, symObjAddr: 0x214D8, symBinAddr: 0x10003BA94, symSize: 0x14 }
  - { offsetInCU: 0x43510, offset: 0x6E5D2, size: 0x8, addend: 0x0, symName: __ZNKSt3__14lessIiEclB8ue170006ERKiS3_, symObjAddr: 0x214EC, symBinAddr: 0x10003BAA8, symSize: 0x10C }
  - { offsetInCU: 0x43554, offset: 0x6E616, size: 0x8, addend: 0x0, symName: __ZNKSt3__112__value_typeIiNS_12basic_stringIcNS_11char_traitsIcEENS_9allocatorIcEEEEE11__get_valueB8ue170006Ev, symObjAddr: 0x215F8, symBinAddr: 0x10003BBB4, symSize: 0x24 }
  - { offsetInCU: 0x4357A, offset: 0x6E63C, size: 0x8, addend: 0x0, symName: __ZNSt3__16__treeINS_12__value_typeIiNS_12basic_stringIcNS_11char_traitsIcEENS_9allocatorIcEEEEEENS_19__map_value_compareIiS8_NS_4lessIiEELb1EEENS5_IS8_EEE12__node_allocB8ue170006Ev, symObjAddr: 0x21654, symBinAddr: 0x10003BC10, symSize: 0x28 }
  - { offsetInCU: 0x435A0, offset: 0x6E662, size: 0x8, addend: 0x0, symName: __ZNSt3__116allocator_traitsINS_9allocatorINS_11__tree_nodeINS_12__value_typeIiNS_12basic_stringIcNS_11char_traitsIcEENS1_IcEEEEEEPvEEEEE8allocateB8ue170006ERSC_m, symObjAddr: 0x2167C, symBinAddr: 0x10003BC38, symSize: 0x2C }
  - { offsetInCU: 0x435D3, offset: 0x6E695, size: 0x8, addend: 0x0, symName: __ZNSt3__122__tree_node_destructorINS_9allocatorINS_11__tree_nodeINS_12__value_typeIiNS_12basic_stringIcNS_11char_traitsIcEENS1_IcEEEEEEPvEEEEEC1B8ue170006ERSC_b, symObjAddr: 0x216A8, symBinAddr: 0x10003BC64, symSize: 0x48 }
  - { offsetInCU: 0x43620, offset: 0x6E6E2, size: 0x8, addend: 0x0, symName: __ZNSt3__110unique_ptrINS_11__tree_nodeINS_12__value_typeIiNS_12basic_stringIcNS_11char_traitsIcEENS_9allocatorIcEEEEEEPvEENS_22__tree_node_destructorINS6_ISB_EEEEEC1B8ue170006ILb1EvEEPSB_NS_16__dependent_typeINS_27__unique_ptr_deleter_sfinaeISE_EEXT_EE20__good_rval_ref_typeE, symObjAddr: 0x216F0, symBinAddr: 0x10003BCAC, symSize: 0x3C }
  - { offsetInCU: 0x43671, offset: 0x6E733, size: 0x8, addend: 0x0, symName: __ZNSt3__116allocator_traitsINS_9allocatorINS_11__tree_nodeINS_12__value_typeIiNS_12basic_stringIcNS_11char_traitsIcEENS1_IcEEEEEEPvEEEEE9constructB8ue170006INS_4pairIKiS8_EEJRKNS_21piecewise_construct_tENS_5tupleIJOiEEENSL_IJEEEEvvEEvRSC_PT_DpOT0_, symObjAddr: 0x2172C, symBinAddr: 0x10003BCE8, symSize: 0x40 }
  - { offsetInCU: 0x436EE, offset: 0x6E7B0, size: 0x8, addend: 0x0, symName: __ZNSt3__122__tree_key_value_typesINS_12__value_typeIiNS_12basic_stringIcNS_11char_traitsIcEENS_9allocatorIcEEEEEEE9__get_ptrB8ue170006ERS8_, symObjAddr: 0x2176C, symBinAddr: 0x10003BD28, symSize: 0x24 }
  - { offsetInCU: 0x43712, offset: 0x6E7D4, size: 0x8, addend: 0x0, symName: __ZNKSt3__110unique_ptrINS_11__tree_nodeINS_12__value_typeIiNS_12basic_stringIcNS_11char_traitsIcEENS_9allocatorIcEEEEEEPvEENS_22__tree_node_destructorINS6_ISB_EEEEEptB8ue170006Ev, symObjAddr: 0x21790, symBinAddr: 0x10003BD4C, symSize: 0x6C }
  - { offsetInCU: 0x43738, offset: 0x6E7FA, size: 0x8, addend: 0x0, symName: __ZNSt3__110unique_ptrINS_11__tree_nodeINS_12__value_typeIiNS_12basic_stringIcNS_11char_traitsIcEENS_9allocatorIcEEEEEEPvEENS_22__tree_node_destructorINS6_ISB_EEEEE11get_deleterB8ue170006Ev, symObjAddr: 0x217FC, symBinAddr: 0x10003BDB8, symSize: 0x24 }
  - { offsetInCU: 0x4375E, offset: 0x6E820, size: 0x8, addend: 0x0, symName: __ZNSt3__117__compressed_pairINS_15__tree_end_nodeIPNS_16__tree_node_baseIPvEEEENS_9allocatorINS_11__tree_nodeINS_12__value_typeIiNS_12basic_stringIcNS_11char_traitsIcEENS7_IcEEEEEES3_EEEEE6secondB8ue170006Ev, symObjAddr: 0x21820, symBinAddr: 0x10003BDDC, symSize: 0x24 }
  - { offsetInCU: 0x43784, offset: 0x6E846, size: 0x8, addend: 0x0, symName: __ZNSt3__122__compressed_pair_elemINS_9allocatorINS_11__tree_nodeINS_12__value_typeIiNS_12basic_stringIcNS_11char_traitsIcEENS1_IcEEEEEEPvEEEELi1ELb1EE5__getB8ue170006Ev, symObjAddr: 0x21844, symBinAddr: 0x10003BE00, symSize: 0x14 }
  - { offsetInCU: 0x437AA, offset: 0x6E86C, size: 0x8, addend: 0x0, symName: __ZNSt3__19allocatorINS_11__tree_nodeINS_12__value_typeIiNS_12basic_stringIcNS_11char_traitsIcEENS0_IcEEEEEEPvEEE8allocateB8ue170006Em, symObjAddr: 0x21858, symBinAddr: 0x10003BE14, symSize: 0x5C }
